
ajax.cgi:     file format elf32-littlearm


Disassembly of section .text:

00009a44 <_start>:
    9a44:	e3a0b000 	mov	fp, #0
    9a48:	e3a0e000 	mov	lr, #0
    9a4c:	e49d1004 	pop	{r1}		; (ldr r1, [sp], #4)
    9a50:	e1a0200d 	mov	r2, sp
    9a54:	e52d2004 	push	{r2}		; (str r2, [sp, #-4]!)
    9a58:	e52d0004 	push	{r0}		; (str r0, [sp, #-4]!)
    9a5c:	e59fc010 	ldr	ip, [pc, #16]	; 9a74 <_start+0x30>
    9a60:	e52dc004 	push	{ip}		; (str ip, [sp, #-4]!)
    9a64:	e59f000c 	ldr	r0, [pc, #12]	; 9a78 <_start+0x34>
    9a68:	e59f300c 	ldr	r3, [pc, #12]	; 9a7c <_start+0x38>
    9a6c:	eaffff88 	b	9894 <__uClibc_main@plt>
    9a70:	ebffff27 	bl	9714 <abort@plt>
    9a74:	000142a4 	andeq	r4, r1, r4, lsr #5
    9a78:	0000b534 	andeq	fp, r0, r4, lsr r5
    9a7c:	00009510 	andeq	r9, r0, r0, lsl r5

00009a80 <__do_global_dtors_aux>:
    9a80:	e92d4030 	push	{r4, r5, lr}
    9a84:	e59f5044 	ldr	r5, [pc, #68]	; 9ad0 <__do_global_dtors_aux+0x50>
    9a88:	e5d53000 	ldrb	r3, [r5]
    9a8c:	e3530000 	cmp	r3, #0
    9a90:	1a00000c 	bne	9ac8 <__do_global_dtors_aux+0x48>
    9a94:	e59f4038 	ldr	r4, [pc, #56]	; 9ad4 <__do_global_dtors_aux+0x54>
    9a98:	ea000004 	b	9ab0 <__do_global_dtors_aux+0x30>
    9a9c:	e5943000 	ldr	r3, [r4]
    9aa0:	e2833004 	add	r3, r3, #4
    9aa4:	e5843000 	str	r3, [r4]
    9aa8:	e1a0e00f 	mov	lr, pc
    9aac:	e12fff12 	bx	r2
    9ab0:	e5943000 	ldr	r3, [r4]
    9ab4:	e5932000 	ldr	r2, [r3]
    9ab8:	e3520000 	cmp	r2, #0
    9abc:	1afffff6 	bne	9a9c <__do_global_dtors_aux+0x1c>
    9ac0:	e3a03001 	mov	r3, #1
    9ac4:	e5c53000 	strb	r3, [r5]
    9ac8:	e8bd4030 	pop	{r4, r5, lr}
    9acc:	e12fff1e 	bx	lr
    9ad0:	00021854 	andeq	r1, r2, r4, asr r8
    9ad4:	00021810 	andeq	r1, r2, r0, lsl r8

00009ad8 <call___do_global_dtors_aux>:
    9ad8:	e52de004 	push	{lr}		; (str lr, [sp, #-4]!)
    9adc:	e49de004 	pop	{lr}		; (ldr lr, [sp], #4)
    9ae0:	e12fff1e 	bx	lr

00009ae4 <frame_dummy>:
    9ae4:	e52de004 	push	{lr}		; (str lr, [sp, #-4]!)
    9ae8:	e59f0020 	ldr	r0, [pc, #32]	; 9b10 <frame_dummy+0x2c>
    9aec:	e59f2020 	ldr	r2, [pc, #32]	; 9b14 <frame_dummy+0x30>
    9af0:	e5903000 	ldr	r3, [r0]
    9af4:	e3530000 	cmp	r3, #0
    9af8:	0a000002 	beq	9b08 <frame_dummy+0x24>
    9afc:	e3520000 	cmp	r2, #0
    9b00:	11a0e00f 	movne	lr, pc
    9b04:	112fff12 	bxne	r2
    9b08:	e49de004 	pop	{lr}		; (ldr lr, [sp], #4)
    9b0c:	e12fff1e 	bx	lr
    9b10:	00021584 	andeq	r1, r2, r4, lsl #11
    9b14:	00000000 	andeq	r0, r0, r0

00009b18 <call_frame_dummy>:
    9b18:	e52de004 	push	{lr}		; (str lr, [sp, #-4]!)
    9b1c:	e49de004 	pop	{lr}		; (ldr lr, [sp], #4)
    9b20:	e12fff1e 	bx	lr

00009b24 <trim>:
    9b24:	e92d4030 	push	{r4, r5, lr}
    9b28:	e5d03000 	ldrb	r3, [r0]
    9b2c:	e3530000 	cmp	r3, #0
    9b30:	e1a05000 	mov	r5, r0
    9b34:	0a000026 	beq	9bd4 <trim+0xb0>
    9b38:	e59f10a0 	ldr	r1, [pc, #160]	; 9be0 <trim+0xbc>
    9b3c:	ebffff7b 	bl	9930 <strcspn@plt>
    9b40:	e3500000 	cmp	r0, #0
    9b44:	13a03000 	movne	r3, #0
    9b48:	17c53000 	strbne	r3, [r5, r0]
    9b4c:	e59f1090 	ldr	r1, [pc, #144]	; 9be4 <trim+0xc0>
    9b50:	e1a00005 	mov	r0, r5
    9b54:	ebffff96 	bl	99b4 <strspn@plt>
    9b58:	e0854000 	add	r4, r5, r0
    9b5c:	e1a00004 	mov	r0, r4
    9b60:	ebffff96 	bl	99c0 <strlen@plt>
    9b64:	e3500000 	cmp	r0, #0
    9b68:	da00000d 	ble	9ba4 <trim+0x80>
    9b6c:	e59fc074 	ldr	ip, [pc, #116]	; 9be8 <trim+0xc4>
    9b70:	e0841000 	add	r1, r4, r0
    9b74:	e5513001 	ldrb	r3, [r1, #-1]
    9b78:	e59c2000 	ldr	r2, [ip]
    9b7c:	e1a03083 	lsl	r3, r3, #1
    9b80:	e19330b2 	ldrh	r3, [r3, r2]
    9b84:	e3130020 	tst	r3, #32
    9b88:	0a000005 	beq	9ba4 <trim+0x80>
    9b8c:	e2400001 	sub	r0, r0, #1
    9b90:	e3a03000 	mov	r3, #0
    9b94:	e3500000 	cmp	r0, #0
    9b98:	e5413001 	strb	r3, [r1, #-1]
    9b9c:	e0841000 	add	r1, r4, r0
    9ba0:	cafffff3 	bgt	9b74 <trim+0x50>
    9ba4:	e5d43000 	ldrb	r3, [r4]
    9ba8:	e3530000 	cmp	r3, #0
    9bac:	05c53000 	strbeq	r3, [r5]
    9bb0:	0a000007 	beq	9bd4 <trim+0xb0>
    9bb4:	e1540005 	cmp	r4, r5
    9bb8:	0a000005 	beq	9bd4 <trim+0xb0>
    9bbc:	e1a00004 	mov	r0, r4
    9bc0:	ebffff7e 	bl	99c0 <strlen@plt>
    9bc4:	e1a01004 	mov	r1, r4
    9bc8:	e2802001 	add	r2, r0, #1
    9bcc:	e1a00005 	mov	r0, r5
    9bd0:	ebfffe6c 	bl	9588 <memmove@plt>
    9bd4:	e1a00005 	mov	r0, r5
    9bd8:	e8bd4030 	pop	{r4, r5, lr}
    9bdc:	e12fff1e 	bx	lr
    9be0:	000142bc 			; <UNDEFINED> instruction: 0x000142bc
    9be4:	000142c0 	andeq	r4, r1, r0, asr #5
    9be8:	0002184c 	andeq	r1, r2, ip, asr #16

00009bec <query_decode>:
    9bec:	e92d4070 	push	{r4, r5, r6, lr}
    9bf0:	e1a04000 	mov	r4, r0
    9bf4:	e24dd004 	sub	sp, sp, #4
    9bf8:	ea000010 	b	9c40 <query_decode+0x54>
    9bfc:	e5d43000 	ldrb	r3, [r4]
    9c00:	e3530025 	cmp	r3, #37	; 0x25
    9c04:	1a00000a 	bne	9c34 <query_decode+0x48>
    9c08:	ebffff18 	bl	9870 <sscanf@plt>
    9c0c:	e59d3000 	ldr	r3, [sp]
    9c10:	e1a00006 	mov	r0, r6
    9c14:	e5c43000 	strb	r3, [r4]
    9c18:	ebffff68 	bl	99c0 <strlen@plt>
    9c1c:	e2851003 	add	r1, r5, #3
    9c20:	e2802001 	add	r2, r0, #1
    9c24:	e1a00006 	mov	r0, r6
    9c28:	e1a04006 	mov	r4, r6
    9c2c:	ebfffefa 	bl	981c <strncpy@plt>
    9c30:	ea000002 	b	9c40 <query_decode+0x54>
    9c34:	e353002b 	cmp	r3, #43	; 0x2b
    9c38:	0243300b 	subeq	r3, r3, #11
    9c3c:	04c43001 	strbeq	r3, [r4], #1
    9c40:	e1a00004 	mov	r0, r4
    9c44:	e59f102c 	ldr	r1, [pc, #44]	; 9c78 <query_decode+0x8c>
    9c48:	ebffff77 	bl	9a2c <strpbrk@plt>
    9c4c:	e3500000 	cmp	r0, #0
    9c50:	e2806001 	add	r6, r0, #1
    9c54:	e1a05000 	mov	r5, r0
    9c58:	e1a04000 	mov	r4, r0
    9c5c:	e1a0200d 	mov	r2, sp
    9c60:	e59f1014 	ldr	r1, [pc, #20]	; 9c7c <query_decode+0x90>
    9c64:	e1a00006 	mov	r0, r6
    9c68:	1affffe3 	bne	9bfc <query_decode+0x10>
    9c6c:	e28dd004 	add	sp, sp, #4
    9c70:	e8bd4070 	pop	{r4, r5, r6, lr}
    9c74:	e12fff1e 	bx	lr
    9c78:	000142c4 	andeq	r4, r1, r4, asr #5
    9c7c:	000142c8 	andeq	r4, r1, r8, asr #5

00009c80 <get_query>:
    9c80:	e92d41f0 	push	{r4, r5, r6, r7, r8, lr}
    9c84:	e1a08000 	mov	r8, r0
    9c88:	e59f0128 	ldr	r0, [pc, #296]	; 9db8 <get_query+0x138>
    9c8c:	ebfffe55 	bl	95e8 <getenv@plt>
    9c90:	e3a04000 	mov	r4, #0
    9c94:	e1500004 	cmp	r0, r4
    9c98:	e1a05004 	mov	r5, r4
    9c9c:	e1a07004 	mov	r7, r4
    9ca0:	e1a06004 	mov	r6, r4
    9ca4:	0a000003 	beq	9cb8 <get_query+0x38>
    9ca8:	e59f0108 	ldr	r0, [pc, #264]	; 9db8 <get_query+0x138>
    9cac:	ebfffe4d 	bl	95e8 <getenv@plt>
    9cb0:	ebffff42 	bl	99c0 <strlen@plt>
    9cb4:	e1a07000 	mov	r7, r0
    9cb8:	e59f00fc 	ldr	r0, [pc, #252]	; 9dbc <get_query+0x13c>
    9cbc:	ebfffe49 	bl	95e8 <getenv@plt>
    9cc0:	e3500000 	cmp	r0, #0
    9cc4:	0a00001c 	beq	9d3c <get_query+0xbc>
    9cc8:	e59f00ec 	ldr	r0, [pc, #236]	; 9dbc <get_query+0x13c>
    9ccc:	ebfffe45 	bl	95e8 <getenv@plt>
    9cd0:	e59f10e8 	ldr	r1, [pc, #232]	; 9dc0 <get_query+0x140>
    9cd4:	e3a0201e 	mov	r2, #30
    9cd8:	ebfffe87 	bl	96fc <strncasecmp@plt>
    9cdc:	e3500000 	cmp	r0, #0
    9ce0:	0a000015 	beq	9d3c <get_query+0xbc>
    9ce4:	e59f00d8 	ldr	r0, [pc, #216]	; 9dc4 <get_query+0x144>
    9ce8:	ebfffe3e 	bl	95e8 <getenv@plt>
    9cec:	e3500000 	cmp	r0, #0
    9cf0:	0a000011 	beq	9d3c <get_query+0xbc>
    9cf4:	e59f00c8 	ldr	r0, [pc, #200]	; 9dc4 <get_query+0x144>
    9cf8:	ebfffe3a 	bl	95e8 <getenv@plt>
    9cfc:	ebffff26 	bl	999c <atoi@plt>
    9d00:	e2804001 	add	r4, r0, #1
    9d04:	e1a06000 	mov	r6, r0
    9d08:	e1a01004 	mov	r1, r4
    9d0c:	e3a00001 	mov	r0, #1
    9d10:	ebfffe91 	bl	975c <calloc@plt>
    9d14:	e2505000 	subs	r5, r0, #0
    9d18:	059f00a8 	ldreq	r0, [pc, #168]	; 9dc8 <get_query+0x148>
    9d1c:	059f10a8 	ldreq	r1, [pc, #168]	; 9dcc <get_query+0x14c>
    9d20:	03a0205a 	moveq	r2, #90	; 0x5a
    9d24:	059f30a4 	ldreq	r3, [pc, #164]	; 9dd0 <get_query+0x150>
    9d28:	0bffff2a 	bleq	99d8 <__assert@plt>
    9d2c:	e1a01004 	mov	r1, r4
    9d30:	e1a02008 	mov	r2, r8
    9d34:	e1a00005 	mov	r0, r5
    9d38:	ebfffe39 	bl	9624 <fgets@plt>
    9d3c:	e0870006 	add	r0, r7, r6
    9d40:	e2800002 	add	r0, r0, #2
    9d44:	ebfffe4e 	bl	9684 <malloc@plt>
    9d48:	e2504000 	subs	r4, r0, #0
    9d4c:	059f0080 	ldreq	r0, [pc, #128]	; 9dd4 <get_query+0x154>
    9d50:	059f1074 	ldreq	r1, [pc, #116]	; 9dcc <get_query+0x14c>
    9d54:	03a02061 	moveq	r2, #97	; 0x61
    9d58:	059f3070 	ldreq	r3, [pc, #112]	; 9dd0 <get_query+0x150>
    9d5c:	0bffff1d 	bleq	99d8 <__assert@plt>
    9d60:	e3570000 	cmp	r7, #0
    9d64:	0a000004 	beq	9d7c <get_query+0xfc>
    9d68:	e59f0048 	ldr	r0, [pc, #72]	; 9db8 <get_query+0x138>
    9d6c:	ebfffe1d 	bl	95e8 <getenv@plt>
    9d70:	e1a01000 	mov	r1, r0
    9d74:	e1a00004 	mov	r0, r4
    9d78:	ebfffe83 	bl	978c <strcat@plt>
    9d7c:	e3570000 	cmp	r7, #0
    9d80:	13560000 	cmpne	r6, #0
    9d84:	11a00004 	movne	r0, r4
    9d88:	159f1048 	ldrne	r1, [pc, #72]	; 9dd8 <get_query+0x158>
    9d8c:	1bfffe7e 	blne	978c <strcat@plt>
    9d90:	e3560000 	cmp	r6, #0
    9d94:	11a00004 	movne	r0, r4
    9d98:	11a01005 	movne	r1, r5
    9d9c:	1bfffe7a 	blne	978c <strcat@plt>
    9da0:	e3550000 	cmp	r5, #0
    9da4:	11a00005 	movne	r0, r5
    9da8:	1bffff22 	blne	9a38 <free@plt>
    9dac:	e1a00004 	mov	r0, r4
    9db0:	e8bd41f0 	pop	{r4, r5, r6, r7, r8, lr}
    9db4:	e12fff1e 	bx	lr
    9db8:	000142d0 	ldrdeq	r4, [r1], -r0
    9dbc:	000142e0 	andeq	r4, r1, r0, ror #5
    9dc0:	000142f0 	strdeq	r4, [r1], -r0
    9dc4:	00014310 	andeq	r4, r1, r0, lsl r3
    9dc8:	00014320 	andeq	r4, r1, r0, lsr #6
    9dcc:	00014328 	andeq	r4, r1, r8, lsr #6
    9dd0:	0001438c 	andeq	r4, r1, ip, lsl #7
    9dd4:	00014334 	andeq	r4, r1, r4, lsr r3
    9dd8:	00016574 	andeq	r6, r1, r4, ror r5

00009ddc <set_cgi>:
    9ddc:	e92d4070 	push	{r4, r5, r6, lr}
    9de0:	e3a02000 	mov	r2, #0
    9de4:	e24dd010 	sub	sp, sp, #16
    9de8:	e58d200c 	str	r2, [sp, #12]
    9dec:	e58d0008 	str	r0, [sp, #8]
    9df0:	e28d4004 	add	r4, sp, #4
    9df4:	e28d3010 	add	r3, sp, #16
    9df8:	e59f6044 	ldr	r6, [pc, #68]	; 9e44 <set_cgi+0x68>
    9dfc:	e1a05001 	mov	r5, r1
    9e00:	e9130003 	ldmdb	r3, {r0, r1}
    9e04:	e1a03004 	mov	r3, r4
    9e08:	e58d6000 	str	r6, [sp]
    9e0c:	ebfffe01 	bl	9618 <hsearch_r@plt>
    9e10:	e59d1004 	ldr	r1, [sp, #4]
    9e14:	e3510000 	cmp	r1, #0
    9e18:	e1a03004 	mov	r3, r4
    9e1c:	e3a02001 	mov	r2, #1
    9e20:	15815004 	strne	r5, [r1, #4]
    9e24:	058d500c 	streq	r5, [sp, #12]
    9e28:	028dc010 	addeq	ip, sp, #16
    9e2c:	091c0003 	ldmdbeq	ip, {r0, r1}
    9e30:	058d6000 	streq	r6, [sp]
    9e34:	0bfffdf7 	bleq	9618 <hsearch_r@plt>
    9e38:	e28dd010 	add	sp, sp, #16
    9e3c:	e8bd4070 	pop	{r4, r5, r6, lr}
    9e40:	e12fff1e 	bx	lr
    9e44:	00021858 	andeq	r1, r2, r8, asr r8

00009e48 <get_cgi>:
    9e48:	e92d4010 	push	{r4, lr}
    9e4c:	e59fc040 	ldr	ip, [pc, #64]	; 9e94 <get_cgi+0x4c>
    9e50:	e24dd008 	sub	sp, sp, #8
    9e54:	e3a04000 	mov	r4, #0
    9e58:	e3a03000 	mov	r3, #0
    9e5c:	e1a03000 	mov	r3, r0
    9e60:	e1a01004 	mov	r1, r4
    9e64:	e1a00003 	mov	r0, r3
    9e68:	e3a02000 	mov	r2, #0
    9e6c:	e28d3004 	add	r3, sp, #4
    9e70:	e58dc000 	str	ip, [sp]
    9e74:	ebfffde7 	bl	9618 <hsearch_r@plt>
    9e78:	e59d0004 	ldr	r0, [sp, #4]
    9e7c:	e3500000 	cmp	r0, #0
    9e80:	15900004 	ldrne	r0, [r0, #4]
    9e84:	059f000c 	ldreq	r0, [pc, #12]	; 9e98 <get_cgi+0x50>
    9e88:	e28dd008 	add	sp, sp, #8
    9e8c:	e8bd4010 	pop	{r4, lr}
    9e90:	e12fff1e 	bx	lr
    9e94:	00021858 	andeq	r1, r2, r8, asr r8
    9e98:	000143d8 	ldrdeq	r4, [r1], -r8

00009e9c <init_cgi>:
    9e9c:	e92d4070 	push	{r4, r5, r6, lr}
    9ea0:	e2505000 	subs	r5, r0, #0
    9ea4:	e24dd008 	sub	sp, sp, #8
    9ea8:	1a000002 	bne	9eb8 <init_cgi+0x1c>
    9eac:	e59f00c8 	ldr	r0, [pc, #200]	; 9f7c <init_cgi+0xe0>
    9eb0:	ebfffe1d 	bl	972c <hdestroy_r@plt>
    9eb4:	ea00002d 	b	9f70 <init_cgi+0xd4>
    9eb8:	ebfffec0 	bl	99c0 <strlen@plt>
    9ebc:	e3a04001 	mov	r4, #1
    9ec0:	e1a06000 	mov	r6, r0
    9ec4:	e58d5004 	str	r5, [sp, #4]
    9ec8:	ea000000 	b	9ed0 <init_cgi+0x34>
    9ecc:	e2844001 	add	r4, r4, #1
    9ed0:	e28d0004 	add	r0, sp, #4
    9ed4:	e59f10a4 	ldr	r1, [pc, #164]	; 9f80 <init_cgi+0xe4>
    9ed8:	ebfffe97 	bl	993c <strsep@plt>
    9edc:	e3500000 	cmp	r0, #0
    9ee0:	1afffff9 	bne	9ecc <init_cgi+0x30>
    9ee4:	e1a00004 	mov	r0, r4
    9ee8:	e59f108c 	ldr	r1, [pc, #140]	; 9f7c <init_cgi+0xe0>
    9eec:	ebfffdf9 	bl	96d8 <hcreate_r@plt>
    9ef0:	e3500000 	cmp	r0, #0
    9ef4:	0a00001d 	beq	9f70 <init_cgi+0xd4>
    9ef8:	e0856006 	add	r6, r5, r6
    9efc:	e58d5004 	str	r5, [sp, #4]
    9f00:	e1a04005 	mov	r4, r5
    9f04:	e1550006 	cmp	r5, r6
    9f08:	2a000018 	bcs	9f70 <init_cgi+0xd4>
    9f0c:	e58d4000 	str	r4, [sp]
    9f10:	e1a00004 	mov	r0, r4
    9f14:	ebfffea9 	bl	99c0 <strlen@plt>
    9f18:	e0843000 	add	r3, r4, r0
    9f1c:	e2833001 	add	r3, r3, #1
    9f20:	e1a00004 	mov	r0, r4
    9f24:	e58d3004 	str	r3, [sp, #4]
    9f28:	ebffff2f 	bl	9bec <query_decode>
    9f2c:	e59f1050 	ldr	r1, [pc, #80]	; 9f84 <init_cgi+0xe8>
    9f30:	e1a0000d 	mov	r0, sp
    9f34:	ebfffe80 	bl	993c <strsep@plt>
    9f38:	e2504000 	subs	r4, r0, #0
    9f3c:	0a000008 	beq	9f64 <init_cgi+0xc8>
    9f40:	e59d3000 	ldr	r3, [sp]
    9f44:	e3530000 	cmp	r3, #0
    9f48:	0a000005 	beq	9f64 <init_cgi+0xc8>
    9f4c:	ebfffef4 	bl	9b24 <trim>
    9f50:	e59d0000 	ldr	r0, [sp]
    9f54:	ebfffef2 	bl	9b24 <trim>
    9f58:	e1a00004 	mov	r0, r4
    9f5c:	e59d1000 	ldr	r1, [sp]
    9f60:	ebffff9d 	bl	9ddc <set_cgi>
    9f64:	e59d4004 	ldr	r4, [sp, #4]
    9f68:	e1540006 	cmp	r4, r6
    9f6c:	eaffffe5 	b	9f08 <init_cgi+0x6c>
    9f70:	e28dd008 	add	sp, sp, #8
    9f74:	e8bd4070 	pop	{r4, r5, r6, lr}
    9f78:	e12fff1e 	bx	lr
    9f7c:	00021858 	andeq	r1, r2, r8, asr r8
    9f80:	00016574 	andeq	r6, r1, r4, ror r5
    9f84:	0001433c 	andeq	r4, r1, ip, lsr r3

00009f88 <set_obj>:
    9f88:	e92d41f0 	push	{r4, r5, r6, r7, r8, lr}
    9f8c:	e24dd008 	sub	sp, sp, #8
    9f90:	e3a05000 	mov	r5, #0
    9f94:	e3a04000 	mov	r4, #0
    9f98:	e28d6004 	add	r6, sp, #4
    9f9c:	e1a04000 	mov	r4, r0
    9fa0:	e59f804c 	ldr	r8, [pc, #76]	; 9ff4 <set_obj+0x6c>
    9fa4:	e1a07001 	mov	r7, r1
    9fa8:	e3a02000 	mov	r2, #0
    9fac:	e1a01005 	mov	r1, r5
    9fb0:	e1a00004 	mov	r0, r4
    9fb4:	e1a03006 	mov	r3, r6
    9fb8:	e58d8000 	str	r8, [sp]
    9fbc:	ebfffd95 	bl	9618 <hsearch_r@plt>
    9fc0:	e59dc004 	ldr	ip, [sp, #4]
    9fc4:	e1a05007 	mov	r5, r7
    9fc8:	e35c0000 	cmp	ip, #0
    9fcc:	e1a01005 	mov	r1, r5
    9fd0:	e1a00004 	mov	r0, r4
    9fd4:	e1a03006 	mov	r3, r6
    9fd8:	e3a02001 	mov	r2, #1
    9fdc:	158c7004 	strne	r7, [ip, #4]
    9fe0:	058d8000 	streq	r8, [sp]
    9fe4:	0bfffd8b 	bleq	9618 <hsearch_r@plt>
    9fe8:	e28dd008 	add	sp, sp, #8
    9fec:	e8bd41f0 	pop	{r4, r5, r6, r7, r8, lr}
    9ff0:	e12fff1e 	bx	lr
    9ff4:	00021864 	andeq	r1, r2, r4, ror #16

00009ff8 <get_obj>:
    9ff8:	e92d4010 	push	{r4, lr}
    9ffc:	e59fc040 	ldr	ip, [pc, #64]	; a044 <get_obj+0x4c>
    a000:	e24dd008 	sub	sp, sp, #8
    a004:	e3a04000 	mov	r4, #0
    a008:	e3a03000 	mov	r3, #0
    a00c:	e1a03000 	mov	r3, r0
    a010:	e1a01004 	mov	r1, r4
    a014:	e1a00003 	mov	r0, r3
    a018:	e3a02000 	mov	r2, #0
    a01c:	e28d3004 	add	r3, sp, #4
    a020:	e58dc000 	str	ip, [sp]
    a024:	ebfffd7b 	bl	9618 <hsearch_r@plt>
    a028:	e59d0004 	ldr	r0, [sp, #4]
    a02c:	e3500000 	cmp	r0, #0
    a030:	15900004 	ldrne	r0, [r0, #4]
    a034:	059f000c 	ldreq	r0, [pc, #12]	; a048 <get_obj+0x50>
    a038:	e28dd008 	add	sp, sp, #8
    a03c:	e8bd4010 	pop	{r4, lr}
    a040:	e12fff1e 	bx	lr
    a044:	00021864 	andeq	r1, r2, r4, ror #16
    a048:	000143d8 	ldrdeq	r4, [r1], -r8

0000a04c <init_obj>:
    a04c:	e92d45f0 	push	{r4, r5, r6, r7, r8, sl, lr}
    a050:	e3510000 	cmp	r1, #0
    a054:	13500000 	cmpne	r0, #0
    a058:	e24ddf7d 	sub	sp, sp, #500	; 0x1f4
    a05c:	e1a0a000 	mov	sl, r0
    a060:	e1a04001 	mov	r4, r1
    a064:	1a000002 	bne	a074 <init_obj+0x28>
    a068:	e59f015c 	ldr	r0, [pc, #348]	; a1cc <init_obj+0x180>
    a06c:	ebfffdae 	bl	972c <hdestroy_r@plt>
    a070:	ea000052 	b	a1c0 <init_obj+0x174>
    a074:	e1a00001 	mov	r0, r1
    a078:	e59f1150 	ldr	r1, [pc, #336]	; a1d0 <init_obj+0x184>
    a07c:	ebfffe22 	bl	990c <strcmp@plt>
    a080:	e3500000 	cmp	r0, #0
    a084:	059f0148 	ldreq	r0, [pc, #328]	; a1d4 <init_obj+0x188>
    a088:	0a000005 	beq	a0a4 <init_obj+0x58>
    a08c:	e1a00004 	mov	r0, r4
    a090:	e59f1140 	ldr	r1, [pc, #320]	; a1d8 <init_obj+0x18c>
    a094:	ebfffe1c 	bl	990c <strcmp@plt>
    a098:	e3500000 	cmp	r0, #0
    a09c:	059f0138 	ldreq	r0, [pc, #312]	; a1dc <init_obj+0x190>
    a0a0:	159f0138 	ldrne	r0, [pc, #312]	; a1e0 <init_obj+0x194>
    a0a4:	e59f1138 	ldr	r1, [pc, #312]	; a1e4 <init_obj+0x198>
    a0a8:	ebfffdff 	bl	98ac <fopen@plt>
    a0ac:	e3500000 	cmp	r0, #0
    a0b0:	e1a06000 	mov	r6, r0
    a0b4:	e3a04001 	mov	r4, #1
    a0b8:	0a000040 	beq	a1c0 <init_obj+0x174>
    a0bc:	ea000007 	b	a0e0 <init_obj+0x94>
    a0c0:	ebfffd57 	bl	9624 <fgets@plt>
    a0c4:	e3500000 	cmp	r0, #0
    a0c8:	e1a0100a 	mov	r1, sl
    a0cc:	e1a00005 	mov	r0, r5
    a0d0:	0a000002 	beq	a0e0 <init_obj+0x94>
    a0d4:	ebfffdbe 	bl	97d4 <strstr@plt>
    a0d8:	e3500000 	cmp	r0, #0
    a0dc:	12844001 	addne	r4, r4, #1
    a0e0:	e1a00006 	mov	r0, r6
    a0e4:	ebfffd60 	bl	966c <feof@plt>
    a0e8:	e3500000 	cmp	r0, #0
    a0ec:	e1a0500d 	mov	r5, sp
    a0f0:	e3a01f7d 	mov	r1, #500	; 0x1f4
    a0f4:	e1a02006 	mov	r2, r6
    a0f8:	e1a0000d 	mov	r0, sp
    a0fc:	0affffef 	beq	a0c0 <init_obj+0x74>
    a100:	e1a00004 	mov	r0, r4
    a104:	e59f10c0 	ldr	r1, [pc, #192]	; a1cc <init_obj+0x180>
    a108:	ebfffd72 	bl	96d8 <hcreate_r@plt>
    a10c:	e3500000 	cmp	r0, #0
    a110:	0a00002a 	beq	a1c0 <init_obj+0x174>
    a114:	e1a00006 	mov	r0, r6
    a118:	ebfffe13 	bl	996c <rewind@plt>
    a11c:	ea00001f 	b	a1a0 <init_obj+0x154>
    a120:	ebfffd3f 	bl	9624 <fgets@plt>
    a124:	e3500000 	cmp	r0, #0
    a128:	e1a0100a 	mov	r1, sl
    a12c:	e1a00007 	mov	r0, r7
    a130:	0a00001a 	beq	a1a0 <init_obj+0x154>
    a134:	ebfffda6 	bl	97d4 <strstr@plt>
    a138:	e3500000 	cmp	r0, #0
    a13c:	e3a00032 	mov	r0, #50	; 0x32
    a140:	0a000016 	beq	a1a0 <init_obj+0x154>
    a144:	ebfffd4e 	bl	9684 <malloc@plt>
    a148:	e1a05000 	mov	r5, r0
    a14c:	e3a000c8 	mov	r0, #200	; 0xc8
    a150:	ebfffd4b 	bl	9684 <malloc@plt>
    a154:	e59f108c 	ldr	r1, [pc, #140]	; a1e8 <init_obj+0x19c>
    a158:	e1a04000 	mov	r4, r0
    a15c:	e1a00007 	mov	r0, r7
    a160:	ebfffdbc 	bl	9858 <strtok@plt>
    a164:	e59f107c 	ldr	r1, [pc, #124]	; a1e8 <init_obj+0x19c>
    a168:	e1a00008 	mov	r0, r8
    a16c:	ebfffdb9 	bl	9858 <strtok@plt>
    a170:	e1a01000 	mov	r1, r0
    a174:	e1a00005 	mov	r0, r5
    a178:	ebfffcf3 	bl	954c <strcpy@plt>
    a17c:	e59f1068 	ldr	r1, [pc, #104]	; a1ec <init_obj+0x1a0>
    a180:	e1a00008 	mov	r0, r8
    a184:	ebfffdb3 	bl	9858 <strtok@plt>
    a188:	e1a01000 	mov	r1, r0
    a18c:	e1a00004 	mov	r0, r4
    a190:	ebfffced 	bl	954c <strcpy@plt>
    a194:	e1a00005 	mov	r0, r5
    a198:	e1a01004 	mov	r1, r4
    a19c:	ebffff79 	bl	9f88 <set_obj>
    a1a0:	e1a00006 	mov	r0, r6
    a1a4:	ebfffd30 	bl	966c <feof@plt>
    a1a8:	e2508000 	subs	r8, r0, #0
    a1ac:	e1a0700d 	mov	r7, sp
    a1b0:	e1a02006 	mov	r2, r6
    a1b4:	e3a01f7d 	mov	r1, #500	; 0x1f4
    a1b8:	e1a0000d 	mov	r0, sp
    a1bc:	0affffd7 	beq	a120 <init_obj+0xd4>
    a1c0:	e28ddf7d 	add	sp, sp, #500	; 0x1f4
    a1c4:	e8bd45f0 	pop	{r4, r5, r6, r7, r8, sl, lr}
    a1c8:	e12fff1e 	bx	lr
    a1cc:	00021864 	andeq	r1, r2, r4, ror #16
    a1d0:	0001586c 	andeq	r5, r1, ip, ror #16
    a1d4:	00014340 	andeq	r4, r1, r0, asr #6
    a1d8:	00015778 	andeq	r5, r1, r8, ror r7
    a1dc:	00014358 	andeq	r4, r1, r8, asr r3
    a1e0:	00014370 	andeq	r4, r1, r0, ror r3
    a1e4:	000187ac 	andeq	r8, r1, ip, lsr #15
    a1e8:	00014388 	andeq	r4, r1, r8, lsl #7
    a1ec:	00018704 	andeq	r8, r1, r4, lsl #14

0000a1f0 <do_usr_copy>:
    a1f0:	e92d4070 	push	{r4, r5, r6, lr}
    a1f4:	e1a04001 	mov	r4, r1
    a1f8:	e24ddb01 	sub	sp, sp, #1024	; 0x400
    a1fc:	e59f1070 	ldr	r1, [pc, #112]	; a274 <do_usr_copy+0x84>
    a200:	ebfffda9 	bl	98ac <fopen@plt>
    a204:	e2506000 	subs	r6, r0, #0
    a208:	0a000016 	beq	a268 <do_usr_copy+0x78>
    a20c:	e1a00004 	mov	r0, r4
    a210:	e59f1060 	ldr	r1, [pc, #96]	; a278 <do_usr_copy+0x88>
    a214:	ebfffda4 	bl	98ac <fopen@plt>
    a218:	e1a05000 	mov	r5, r0
    a21c:	e3a01000 	mov	r1, #0
    a220:	e3a02b01 	mov	r2, #1024	; 0x400
    a224:	e1a0000d 	mov	r0, sp
    a228:	ebfffda5 	bl	98c4 <memset@plt>
    a22c:	e3a01b01 	mov	r1, #1024	; 0x400
    a230:	e1a0000d 	mov	r0, sp
    a234:	e1a02006 	mov	r2, r6
    a238:	ebfffcf9 	bl	9624 <fgets@plt>
    a23c:	e3500000 	cmp	r0, #0
    a240:	e1a0400d 	mov	r4, sp
    a244:	e1a01005 	mov	r1, r5
    a248:	e1a0000d 	mov	r0, sp
    a24c:	0a000001 	beq	a258 <do_usr_copy+0x68>
    a250:	ebfffde9 	bl	99fc <fputs@plt>
    a254:	eafffff0 	b	a21c <do_usr_copy+0x2c>
    a258:	e1a00006 	mov	r0, r6
    a25c:	ebfffda1 	bl	98e8 <fclose@plt>
    a260:	e1a00005 	mov	r0, r5
    a264:	ebfffd9f 	bl	98e8 <fclose@plt>
    a268:	e28ddb01 	add	sp, sp, #1024	; 0x400
    a26c:	e8bd4070 	pop	{r4, r5, r6, lr}
    a270:	e12fff1e 	bx	lr
    a274:	000143b8 			; <UNDEFINED> instruction: 0x000143b8
    a278:	000143bc 			; <UNDEFINED> instruction: 0x000143bc

0000a27c <rm_blank>:
    a27c:	e92d4010 	push	{r4, lr}
    a280:	e1a04000 	mov	r4, r0
    a284:	ebfffdcd 	bl	99c0 <strlen@plt>
    a288:	e3540000 	cmp	r4, #0
    a28c:	e0840000 	add	r0, r4, r0
    a290:	e2400001 	sub	r0, r0, #1
    a294:	0a000023 	beq	a328 <rm_blank+0xac>
    a298:	e1500004 	cmp	r0, r4
    a29c:	3a000005 	bcc	a2b8 <rm_blank+0x3c>
    a2a0:	e5d03000 	ldrb	r3, [r0]
    a2a4:	e3530009 	cmp	r3, #9
    a2a8:	13530020 	cmpne	r3, #32
    a2ac:	03a03000 	moveq	r3, #0
    a2b0:	04403001 	strbeq	r3, [r0], #-1
    a2b4:	0afffff7 	beq	a298 <rm_blank+0x1c>
    a2b8:	e5d43000 	ldrb	r3, [r4]
    a2bc:	e1a02004 	mov	r2, r4
    a2c0:	e3530009 	cmp	r3, #9
    a2c4:	13530020 	cmpne	r3, #32
    a2c8:	e1a00004 	mov	r0, r4
    a2cc:	1a000003 	bne	a2e0 <rm_blank+0x64>
    a2d0:	e5f03001 	ldrb	r3, [r0, #1]!
    a2d4:	e3530009 	cmp	r3, #9
    a2d8:	13530020 	cmpne	r3, #32
    a2dc:	eafffffa 	b	a2cc <rm_blank+0x50>
    a2e0:	e5d03000 	ldrb	r3, [r0]
    a2e4:	e3530000 	cmp	r3, #0
    a2e8:	0a00000c 	beq	a320 <rm_blank+0xa4>
    a2ec:	e3530009 	cmp	r3, #9
    a2f0:	13530020 	cmpne	r3, #32
    a2f4:	e2800001 	add	r0, r0, #1
    a2f8:	14c23001 	strbne	r3, [r2], #1
    a2fc:	1afffff7 	bne	a2e0 <rm_blank+0x64>
    a300:	e5c23000 	strb	r3, [r2]
    a304:	e5d03000 	ldrb	r3, [r0]
    a308:	e3530009 	cmp	r3, #9
    a30c:	13530020 	cmpne	r3, #32
    a310:	05f03001 	ldrbeq	r3, [r0, #1]!
    a314:	0afffffb 	beq	a308 <rm_blank+0x8c>
    a318:	e2822001 	add	r2, r2, #1
    a31c:	eaffffef 	b	a2e0 <rm_blank+0x64>
    a320:	e3a03000 	mov	r3, #0
    a324:	e5c23000 	strb	r3, [r2]
    a328:	e8bd4010 	pop	{r4, lr}
    a32c:	e12fff1e 	bx	lr

0000a330 <get_conf_field_string>:
    a330:	e92d40f0 	push	{r4, r5, r6, r7, lr}
    a334:	e1a07001 	mov	r7, r1
    a338:	e59f10b0 	ldr	r1, [pc, #176]	; a3f0 <get_conf_field_string+0xc0>
    a33c:	ebffffab 	bl	a1f0 <do_usr_copy>
    a340:	e59f00a8 	ldr	r0, [pc, #168]	; a3f0 <get_conf_field_string+0xc0>
    a344:	e59f10a8 	ldr	r1, [pc, #168]	; a3f4 <get_conf_field_string+0xc4>
    a348:	ebfffd57 	bl	98ac <fopen@plt>
    a34c:	e2505000 	subs	r5, r0, #0
    a350:	01a00005 	moveq	r0, r5
    a354:	0a000023 	beq	a3e8 <get_conf_field_string+0xb8>
    a358:	ea000003 	b	a36c <get_conf_field_string+0x3c>
    a35c:	e59f1094 	ldr	r1, [pc, #148]	; a3f8 <get_conf_field_string+0xc8>
    a360:	ebfffd3c 	bl	9858 <strtok@plt>
    a364:	e1a06000 	mov	r6, r0
    a368:	ea00001b 	b	a3dc <get_conf_field_string+0xac>
    a36c:	e3a06000 	mov	r6, #0
    a370:	ea000012 	b	a3c0 <get_conf_field_string+0x90>
    a374:	ebfffd52 	bl	98c4 <memset@plt>
    a378:	e3a010fa 	mov	r1, #250	; 0xfa
    a37c:	e1a02005 	mov	r2, r5
    a380:	e1a00004 	mov	r0, r4
    a384:	ebfffca6 	bl	9624 <fgets@plt>
    a388:	e1a00004 	mov	r0, r4
    a38c:	ebffffba 	bl	a27c <rm_blank>
    a390:	e5d43000 	ldrb	r3, [r4]
    a394:	e3530000 	cmp	r3, #0
    a398:	e1a00004 	mov	r0, r4
    a39c:	e59f1058 	ldr	r1, [pc, #88]	; a3fc <get_conf_field_string+0xcc>
    a3a0:	0a000006 	beq	a3c0 <get_conf_field_string+0x90>
    a3a4:	ebfffd2b 	bl	9858 <strtok@plt>
    a3a8:	e3500000 	cmp	r0, #0
    a3ac:	e1a01007 	mov	r1, r7
    a3b0:	0a000002 	beq	a3c0 <get_conf_field_string+0x90>
    a3b4:	ebfffd54 	bl	990c <strcmp@plt>
    a3b8:	e3500000 	cmp	r0, #0
    a3bc:	0affffe6 	beq	a35c <get_conf_field_string+0x2c>
    a3c0:	e1a00005 	mov	r0, r5
    a3c4:	ebfffca8 	bl	966c <feof@plt>
    a3c8:	e59f4030 	ldr	r4, [pc, #48]	; a400 <get_conf_field_string+0xd0>
    a3cc:	e2501000 	subs	r1, r0, #0
    a3d0:	e3a020fa 	mov	r2, #250	; 0xfa
    a3d4:	e1a00004 	mov	r0, r4
    a3d8:	0affffe5 	beq	a374 <get_conf_field_string+0x44>
    a3dc:	e1a00005 	mov	r0, r5
    a3e0:	ebfffd40 	bl	98e8 <fclose@plt>
    a3e4:	e1a00006 	mov	r0, r6
    a3e8:	e8bd40f0 	pop	{r4, r5, r6, r7, lr}
    a3ec:	e12fff1e 	bx	lr
    a3f0:	000143c0 	andeq	r4, r1, r0, asr #7
    a3f4:	000187ac 	andeq	r8, r1, ip, lsr #15
    a3f8:	000143dc 	ldrdeq	r4, [r1], -ip
    a3fc:	000143d4 	ldrdeq	r4, [r1], -r4	; <UNPREDICTABLE>
    a400:	00021870 	andeq	r1, r2, r0, ror r8

0000a404 <set_conf_field_string>:
    a404:	e92d4ff0 	push	{r4, r5, r6, r7, r8, r9, sl, fp, lr}
    a408:	e24ddc05 	sub	sp, sp, #1280	; 0x500
    a40c:	e24dd004 	sub	sp, sp, #4
    a410:	e58d1000 	str	r1, [sp]
    a414:	e1a09002 	mov	r9, r2
    a418:	e58d0004 	str	r0, [sp, #4]
    a41c:	ebffffc3 	bl	a330 <get_conf_field_string>
    a420:	e28dab01 	add	sl, sp, #1024	; 0x400
    a424:	e59f31ec 	ldr	r3, [pc, #492]	; a618 <set_conf_field_string+0x214>
    a428:	e3500000 	cmp	r0, #0
    a42c:	e28aa008 	add	sl, sl, #8
    a430:	11a01000 	movne	r1, r0
    a434:	01a01003 	moveq	r1, r3
    a438:	e1a0000a 	mov	r0, sl
    a43c:	ebfffc42 	bl	954c <strcpy@plt>
    a440:	e1a0000a 	mov	r0, sl
    a444:	e1a01009 	mov	r1, r9
    a448:	ebfffd2f 	bl	990c <strcmp@plt>
    a44c:	e3500000 	cmp	r0, #0
    a450:	0a00006c 	beq	a608 <set_conf_field_string+0x204>
    a454:	e59f11c0 	ldr	r1, [pc, #448]	; a61c <set_conf_field_string+0x218>
    a458:	e59d0004 	ldr	r0, [sp, #4]
    a45c:	ebfffd12 	bl	98ac <fopen@plt>
    a460:	e59f11b8 	ldr	r1, [pc, #440]	; a620 <set_conf_field_string+0x21c>
    a464:	e1a08000 	mov	r8, r0
    a468:	e59f01b4 	ldr	r0, [pc, #436]	; a624 <set_conf_field_string+0x220>
    a46c:	ebfffd0e 	bl	98ac <fopen@plt>
    a470:	e3580000 	cmp	r8, #0
    a474:	e1a07000 	mov	r7, r0
    a478:	01a00008 	moveq	r0, r8
    a47c:	0a000061 	beq	a608 <set_conf_field_string+0x204>
    a480:	e3570000 	cmp	r7, #0
    a484:	01a00007 	moveq	r0, r7
    a488:	0a00005e 	beq	a608 <set_conf_field_string+0x204>
    a48c:	ea00004d 	b	a5c8 <set_conf_field_string+0x1c4>
    a490:	ebfffd0b 	bl	98c4 <memset@plt>
    a494:	e1a01004 	mov	r1, r4
    a498:	e3a020fa 	mov	r2, #250	; 0xfa
    a49c:	e1a0000a 	mov	r0, sl
    a4a0:	ebfffd07 	bl	98c4 <memset@plt>
    a4a4:	e1a02008 	mov	r2, r8
    a4a8:	e3a010fa 	mov	r1, #250	; 0xfa
    a4ac:	e1a00005 	mov	r0, r5
    a4b0:	ebfffc5b 	bl	9624 <fgets@plt>
    a4b4:	e1a00005 	mov	r0, r5
    a4b8:	ebffff6f 	bl	a27c <rm_blank>
    a4bc:	e1a01005 	mov	r1, r5
    a4c0:	e1a0000a 	mov	r0, sl
    a4c4:	ebfffc20 	bl	954c <strcpy@plt>
    a4c8:	e59d1000 	ldr	r1, [sp]
    a4cc:	e1a00005 	mov	r0, r5
    a4d0:	ebfffcbf 	bl	97d4 <strstr@plt>
    a4d4:	e3500000 	cmp	r0, #0
    a4d8:	e59f1148 	ldr	r1, [pc, #328]	; a628 <set_conf_field_string+0x224>
    a4dc:	e1a0000a 	mov	r0, sl
    a4e0:	01a00005 	moveq	r0, r5
    a4e4:	0a000035 	beq	a5c0 <set_conf_field_string+0x1bc>
    a4e8:	ebfffcda 	bl	9858 <strtok@plt>
    a4ec:	e59d1000 	ldr	r1, [sp]
    a4f0:	ebfffd05 	bl	990c <strcmp@plt>
    a4f4:	e28d6014 	add	r6, sp, #20
    a4f8:	e250b000 	subs	fp, r0, #0
    a4fc:	e246600c 	sub	r6, r6, #12
    a500:	e59f1120 	ldr	r1, [pc, #288]	; a628 <set_conf_field_string+0x224>
    a504:	e1a00005 	mov	r0, r5
    a508:	1a000011 	bne	a554 <set_conf_field_string+0x150>
    a50c:	ebfffd07 	bl	9930 <strcspn@plt>
    a510:	e1a02009 	mov	r2, r9
    a514:	e0804005 	add	r4, r0, r5
    a518:	e59f110c 	ldr	r1, [pc, #268]	; a62c <set_conf_field_string+0x228>
    a51c:	e1a00006 	mov	r0, r6
    a520:	ebfffcff 	bl	9924 <sprintf@plt>
    a524:	e1a01006 	mov	r1, r6
    a528:	e1a00004 	mov	r0, r4
    a52c:	ebfffc06 	bl	954c <strcpy@plt>
    a530:	e1a00006 	mov	r0, r6
    a534:	ebfffd21 	bl	99c0 <strlen@plt>
    a538:	e3a0300a 	mov	r3, #10
    a53c:	e7c43000 	strb	r3, [r4, r0]
    a540:	e1a00006 	mov	r0, r6
    a544:	ebfffd1d 	bl	99c0 <strlen@plt>
    a548:	e0840000 	add	r0, r4, r0
    a54c:	e5c0b001 	strb	fp, [r0, #1]
    a550:	ea000019 	b	a5bc <set_conf_field_string+0x1b8>
    a554:	e1a01005 	mov	r1, r5
    a558:	e1a0000a 	mov	r0, sl
    a55c:	ebfffbfa 	bl	954c <strcpy@plt>
    a560:	e59f10c8 	ldr	r1, [pc, #200]	; a630 <set_conf_field_string+0x22c>
    a564:	e1a0000a 	mov	r0, sl
    a568:	ebfffcba 	bl	9858 <strtok@plt>
    a56c:	e59d1000 	ldr	r1, [sp]
    a570:	ebfffce5 	bl	990c <strcmp@plt>
    a574:	e2506000 	subs	r6, r0, #0
    a578:	e59f10b0 	ldr	r1, [pc, #176]	; a630 <set_conf_field_string+0x22c>
    a57c:	e1a00005 	mov	r0, r5
    a580:	1a00000d 	bne	a5bc <set_conf_field_string+0x1b8>
    a584:	ebfffce9 	bl	9930 <strcspn@plt>
    a588:	e2853001 	add	r3, r5, #1
    a58c:	e0804003 	add	r4, r0, r3
    a590:	e1a01009 	mov	r1, r9
    a594:	e1a00004 	mov	r0, r4
    a598:	ebfffbeb 	bl	954c <strcpy@plt>
    a59c:	e1a00009 	mov	r0, r9
    a5a0:	ebfffd06 	bl	99c0 <strlen@plt>
    a5a4:	e3a0300a 	mov	r3, #10
    a5a8:	e7c43000 	strb	r3, [r4, r0]
    a5ac:	e1a00009 	mov	r0, r9
    a5b0:	ebfffd02 	bl	99c0 <strlen@plt>
    a5b4:	e0840000 	add	r0, r4, r0
    a5b8:	e5c06001 	strb	r6, [r0, #1]
    a5bc:	e59f0070 	ldr	r0, [pc, #112]	; a634 <set_conf_field_string+0x230>
    a5c0:	e1a01007 	mov	r1, r7
    a5c4:	ebfffd0c 	bl	99fc <fputs@plt>
    a5c8:	e1a00008 	mov	r0, r8
    a5cc:	ebfffc26 	bl	966c <feof@plt>
    a5d0:	e59f505c 	ldr	r5, [pc, #92]	; a634 <set_conf_field_string+0x230>
    a5d4:	e2504000 	subs	r4, r0, #0
    a5d8:	e3a020fa 	mov	r2, #250	; 0xfa
    a5dc:	e1a01004 	mov	r1, r4
    a5e0:	e1a00005 	mov	r0, r5
    a5e4:	0affffa9 	beq	a490 <set_conf_field_string+0x8c>
    a5e8:	e1a00008 	mov	r0, r8
    a5ec:	ebfffcbd 	bl	98e8 <fclose@plt>
    a5f0:	e1a00007 	mov	r0, r7
    a5f4:	ebfffcbb 	bl	98e8 <fclose@plt>
    a5f8:	e59f0024 	ldr	r0, [pc, #36]	; a624 <set_conf_field_string+0x220>
    a5fc:	e59d1004 	ldr	r1, [sp, #4]
    a600:	ebfffefa 	bl	a1f0 <do_usr_copy>
    a604:	e3a00001 	mov	r0, #1
    a608:	e28ddf41 	add	sp, sp, #260	; 0x104
    a60c:	e28ddb01 	add	sp, sp, #1024	; 0x400
    a610:	e8bd4ff0 	pop	{r4, r5, r6, r7, r8, r9, sl, fp, lr}
    a614:	e12fff1e 	bx	lr
    a618:	000143d8 	ldrdeq	r4, [r1], -r8
    a61c:	000187ac 	andeq	r8, r1, ip, lsr #15
    a620:	00014398 	muleq	r1, r8, r3
    a624:	0001439c 	muleq	r1, ip, r3
    a628:	00018704 	andeq	r8, r1, r4, lsl #14
    a62c:	000143b0 			; <UNDEFINED> instruction: 0x000143b0
    a630:	000143b4 			; <UNDEFINED> instruction: 0x000143b4
    a634:	00021870 	andeq	r1, r2, r0, ror r8

0000a638 <safe_fwrite>:
    a638:	e92d45f0 	push	{r4, r5, r6, r7, r8, sl, lr}
    a63c:	e3a04000 	mov	r4, #0
    a640:	e1a0a000 	mov	sl, r0
    a644:	e1a08001 	mov	r8, r1
    a648:	e1a07002 	mov	r7, r2
    a64c:	e1a05003 	mov	r5, r3
    a650:	e1a06004 	mov	r6, r4
    a654:	e1a00005 	mov	r0, r5
    a658:	ebfffc9f 	bl	98dc <clearerr@plt>
    a65c:	e0642007 	rsb	r2, r4, r7
    a660:	e1a01008 	mov	r1, r8
    a664:	e1a03005 	mov	r3, r5
    a668:	e020a498 	mla	r0, r8, r4, sl
    a66c:	ebfffcbb 	bl	9960 <fwrite@plt>
    a670:	e0844000 	add	r4, r4, r0
    a674:	e1a00005 	mov	r0, r5
    a678:	ebfffc52 	bl	97c8 <ferror@plt>
    a67c:	e3500000 	cmp	r0, #0
    a680:	0a000006 	beq	a6a0 <safe_fwrite+0x68>
    a684:	ebfffcc1 	bl	9990 <__errno_location@plt>
    a688:	e5903000 	ldr	r3, [r0]
    a68c:	e3530004 	cmp	r3, #4
    a690:	e3a00064 	mov	r0, #100	; 0x64
    a694:	1a000001 	bne	a6a0 <safe_fwrite+0x68>
    a698:	ebfffbdb 	bl	960c <usleep@plt>
    a69c:	e2866001 	add	r6, r6, #1
    a6a0:	e1540007 	cmp	r4, r7
    a6a4:	e1a00005 	mov	r0, r5
    a6a8:	2a000008 	bcs	a6d0 <safe_fwrite+0x98>
    a6ac:	ebfffc45 	bl	97c8 <ferror@plt>
    a6b0:	e3500000 	cmp	r0, #0
    a6b4:	0a000005 	beq	a6d0 <safe_fwrite+0x98>
    a6b8:	ebfffcb4 	bl	9990 <__errno_location@plt>
    a6bc:	e5903000 	ldr	r3, [r0]
    a6c0:	e3530004 	cmp	r3, #4
    a6c4:	1a000001 	bne	a6d0 <safe_fwrite+0x98>
    a6c8:	e3560004 	cmp	r6, #4
    a6cc:	daffffe0 	ble	a654 <safe_fwrite+0x1c>
    a6d0:	e1a00004 	mov	r0, r4
    a6d4:	e8bd45f0 	pop	{r4, r5, r6, r7, r8, sl, lr}
    a6d8:	e12fff1e 	bx	lr

0000a6dc <safe_fread>:
    a6dc:	e92d45f0 	push	{r4, r5, r6, r7, r8, sl, lr}
    a6e0:	e3a04000 	mov	r4, #0
    a6e4:	e1a0a000 	mov	sl, r0
    a6e8:	e1a08001 	mov	r8, r1
    a6ec:	e1a07002 	mov	r7, r2
    a6f0:	e1a05003 	mov	r5, r3
    a6f4:	e1a06004 	mov	r6, r4
    a6f8:	e1a00005 	mov	r0, r5
    a6fc:	ebfffc76 	bl	98dc <clearerr@plt>
    a700:	e0642007 	rsb	r2, r4, r7
    a704:	e1a01008 	mov	r1, r8
    a708:	e1a03005 	mov	r3, r5
    a70c:	e020a498 	mla	r0, r8, r4, sl
    a710:	ebfffc5c 	bl	9888 <fread@plt>
    a714:	e0844000 	add	r4, r4, r0
    a718:	e1a00005 	mov	r0, r5
    a71c:	ebfffc29 	bl	97c8 <ferror@plt>
    a720:	e3500000 	cmp	r0, #0
    a724:	0a000006 	beq	a744 <safe_fread+0x68>
    a728:	ebfffc98 	bl	9990 <__errno_location@plt>
    a72c:	e5903000 	ldr	r3, [r0]
    a730:	e3530004 	cmp	r3, #4
    a734:	e3a00064 	mov	r0, #100	; 0x64
    a738:	1a000001 	bne	a744 <safe_fread+0x68>
    a73c:	ebfffbb2 	bl	960c <usleep@plt>
    a740:	e2866001 	add	r6, r6, #1
    a744:	e1540007 	cmp	r4, r7
    a748:	e1a00005 	mov	r0, r5
    a74c:	2a000008 	bcs	a774 <safe_fread+0x98>
    a750:	ebfffc1c 	bl	97c8 <ferror@plt>
    a754:	e3500000 	cmp	r0, #0
    a758:	0a000005 	beq	a774 <safe_fread+0x98>
    a75c:	ebfffc8b 	bl	9990 <__errno_location@plt>
    a760:	e5903000 	ldr	r3, [r0]
    a764:	e3530004 	cmp	r3, #4
    a768:	1a000001 	bne	a774 <safe_fread+0x98>
    a76c:	e3560004 	cmp	r6, #4
    a770:	daffffe0 	ble	a6f8 <safe_fread+0x1c>
    a774:	e1a00004 	mov	r0, r4
    a778:	e8bd45f0 	pop	{r4, r5, r6, r7, r8, sl, lr}
    a77c:	e12fff1e 	bx	lr

0000a780 <found_boundary>:
    a780:	e92d41f0 	push	{r4, r5, r6, r7, r8, lr}
    a784:	e1a08000 	mov	r8, r0
    a788:	e1a00001 	mov	r0, r1
    a78c:	e1a06002 	mov	r6, r2
    a790:	e1a07001 	mov	r7, r1
    a794:	ebfffc89 	bl	99c0 <strlen@plt>
    a798:	e3a05000 	mov	r5, #0
    a79c:	e1a04000 	mov	r4, r0
    a7a0:	e1500006 	cmp	r0, r6
    a7a4:	aa00000a 	bge	a7d4 <found_boundary+0x54>
    a7a8:	e0880005 	add	r0, r8, r5
    a7ac:	e1a01007 	mov	r1, r7
    a7b0:	e1a02004 	mov	r2, r4
    a7b4:	ebfffc2a 	bl	9864 <memcmp@plt>
    a7b8:	e3500000 	cmp	r0, #0
    a7bc:	01a00005 	moveq	r0, r5
    a7c0:	0a000004 	beq	a7d8 <found_boundary+0x58>
    a7c4:	e2855001 	add	r5, r5, #1
    a7c8:	e0853004 	add	r3, r5, r4
    a7cc:	e1530006 	cmp	r3, r6
    a7d0:	eafffff3 	b	a7a4 <found_boundary+0x24>
    a7d4:	e3a00000 	mov	r0, #0
    a7d8:	e8bd41f0 	pop	{r4, r5, r6, r7, r8, lr}
    a7dc:	e12fff1e 	bx	lr

0000a7e0 <file_upload>:
    a7e0:	e92d4ff0 	push	{r4, r5, r6, r7, r8, r9, sl, fp, lr}
    a7e4:	e1a04000 	mov	r4, r0
    a7e8:	e24ddfc1 	sub	sp, sp, #772	; 0x304
    a7ec:	e58d1000 	str	r1, [sp]
    a7f0:	e1a05002 	mov	r5, r2
    a7f4:	e1a07003 	mov	r7, r3
    a7f8:	ebfffc0a 	bl	9828 <unlink@plt>
    a7fc:	e1a00004 	mov	r0, r4
    a800:	e59f1184 	ldr	r1, [pc, #388]	; a98c <file_upload+0x1ac>
    a804:	ebfffc28 	bl	98ac <fopen@plt>
    a808:	e3a0b000 	mov	fp, #0
    a80c:	e250a000 	subs	sl, r0, #0
    a810:	e1a0900b 	mov	r9, fp
    a814:	0a000058 	beq	a97c <file_upload+0x19c>
    a818:	e28d0004 	add	r0, sp, #4
    a81c:	e1a0100b 	mov	r1, fp
    a820:	e3a02c02 	mov	r2, #512	; 0x200
    a824:	ebfffc26 	bl	98c4 <memset@plt>
    a828:	e155000b 	cmp	r5, fp
    a82c:	0a00004e 	beq	a96c <file_upload+0x18c>
    a830:	e28d8f81 	add	r8, sp, #516	; 0x204
    a834:	e3550c01 	cmp	r5, #256	; 0x100
    a838:	31a04005 	movcc	r4, r5
    a83c:	23a04c01 	movcs	r4, #256	; 0x100
    a840:	e3a01000 	mov	r1, #0
    a844:	e3a02c01 	mov	r2, #256	; 0x100
    a848:	e1a00008 	mov	r0, r8
    a84c:	ebfffc1c 	bl	98c4 <memset@plt>
    a850:	e1a03007 	mov	r3, r7
    a854:	e1a02004 	mov	r2, r4
    a858:	e3a01001 	mov	r1, #1
    a85c:	e1a00008 	mov	r0, r8
    a860:	ebffff9d 	bl	a6dc <safe_fread>
    a864:	e1540000 	cmp	r4, r0
    a868:	e3a01001 	mov	r1, #1
    a86c:	e1a02004 	mov	r2, r4
    a870:	e1a0300a 	mov	r3, sl
    a874:	e1a00008 	mov	r0, r8
    a878:	1a00003c 	bne	a970 <file_upload+0x190>
    a87c:	e59dc000 	ldr	ip, [sp]
    a880:	e35c0000 	cmp	ip, #0
    a884:	0a00001e 	beq	a904 <file_upload+0x124>
    a888:	e3550c02 	cmp	r5, #512	; 0x200
    a88c:	e1a00008 	mov	r0, r8
    a890:	e3a01001 	mov	r1, #1
    a894:	e1a02004 	mov	r2, r4
    a898:	e1a0300a 	mov	r3, sl
    a89c:	2a000018 	bcs	a904 <file_upload+0x124>
    a8a0:	e28d3fc1 	add	r3, sp, #772	; 0x304
    a8a4:	e0830009 	add	r0, r3, r9
    a8a8:	e0646005 	rsb	r6, r4, r5
    a8ac:	e3590000 	cmp	r9, #0
    a8b0:	e1a01008 	mov	r1, r8
    a8b4:	e2400c03 	sub	r0, r0, #768	; 0x300
    a8b8:	e1a05006 	mov	r5, r6
    a8bc:	1a000004 	bne	a8d4 <file_upload+0xf4>
    a8c0:	e28d0004 	add	r0, sp, #4
    a8c4:	ebfffb5c 	bl	963c <memcpy@plt>
    a8c8:	e1a09004 	mov	r9, r4
    a8cc:	e3a04000 	mov	r4, #0
    a8d0:	ea000003 	b	a8e4 <file_upload+0x104>
    a8d4:	e1a01008 	mov	r1, r8
    a8d8:	e1a02004 	mov	r2, r4
    a8dc:	ebfffb56 	bl	963c <memcpy@plt>
    a8e0:	e1a05006 	mov	r5, r6
    a8e4:	e28d6004 	add	r6, sp, #4
    a8e8:	e0892004 	add	r2, r9, r4
    a8ec:	e59d1000 	ldr	r1, [sp]
    a8f0:	e1a00006 	mov	r0, r6
    a8f4:	ebffffa1 	bl	a780 <found_boundary>
    a8f8:	e2502000 	subs	r2, r0, #0
    a8fc:	0a000002 	beq	a90c <file_upload+0x12c>
    a900:	ea000003 	b	a914 <file_upload+0x134>
    a904:	ebffff4b 	bl	a638 <safe_fwrite>
    a908:	e0645005 	rsb	r5, r4, r5
    a90c:	e3550000 	cmp	r5, #0
    a910:	eaffffc5 	b	a82c <file_upload+0x4c>
    a914:	e1a00006 	mov	r0, r6
    a918:	e2422002 	sub	r2, r2, #2
    a91c:	e3a01001 	mov	r1, #1
    a920:	e1a0300a 	mov	r3, sl
    a924:	ebffff43 	bl	a638 <safe_fwrite>
    a928:	e3550000 	cmp	r5, #0
    a92c:	0a00000e 	beq	a96c <file_upload+0x18c>
    a930:	e5973048 	ldr	r3, [r7, #72]	; 0x48
    a934:	e3530000 	cmp	r3, #0
    a938:	e1a00007 	mov	r0, r7
    a93c:	0a000007 	beq	a960 <file_upload+0x180>
    a940:	e5972010 	ldr	r2, [r7, #16]
    a944:	e5973018 	ldr	r3, [r7, #24]
    a948:	e1520003 	cmp	r2, r3
    a94c:	e2822001 	add	r2, r2, #1
    a950:	35872010 	strcc	r2, [r7, #16]
    a954:	3a000002 	bcc	a964 <file_upload+0x184>
    a958:	ebfffb6a 	bl	9708 <__fgetc_unlocked@plt>
    a95c:	ea000000 	b	a964 <file_upload+0x184>
    a960:	ebfffbec 	bl	9918 <fgetc@plt>
    a964:	e2555001 	subs	r5, r5, #1
    a968:	1afffff0 	bne	a930 <file_upload+0x150>
    a96c:	e3a0b001 	mov	fp, #1
    a970:	e35a0000 	cmp	sl, #0
    a974:	11a0000a 	movne	r0, sl
    a978:	1bfffbda 	blne	98e8 <fclose@plt>
    a97c:	e1a0000b 	mov	r0, fp
    a980:	e28ddfc1 	add	sp, sp, #772	; 0x304
    a984:	e8bd4ff0 	pop	{r4, r5, r6, r7, r8, r9, sl, fp, lr}
    a988:	e12fff1e 	bx	lr
    a98c:	000143bc 			; <UNDEFINED> instruction: 0x000143bc

0000a990 <check_stream>:
    a990:	e92d45f0 	push	{r4, r5, r6, r7, r8, sl, lr}
    a994:	e1a07000 	mov	r7, r0
    a998:	e24dda01 	sub	sp, sp, #4096	; 0x1000
    a99c:	e59f01ec 	ldr	r0, [pc, #492]	; ab90 <check_stream+0x200>
    a9a0:	e1a06001 	mov	r6, r1
    a9a4:	e1a0a002 	mov	sl, r2
    a9a8:	e1a08003 	mov	r8, r3
    a9ac:	ebfffb0d 	bl	95e8 <getenv@plt>
    a9b0:	e59f11dc 	ldr	r1, [pc, #476]	; ab94 <check_stream+0x204>
    a9b4:	e3a02004 	mov	r2, #4
    a9b8:	ebfffb4f 	bl	96fc <strncasecmp@plt>
    a9bc:	e2505000 	subs	r5, r0, #0
    a9c0:	13a00000 	movne	r0, #0
    a9c4:	1a00006e 	bne	ab84 <check_stream+0x1f4>
    a9c8:	e3560000 	cmp	r6, #0
    a9cc:	0a00000c 	beq	aa04 <check_stream+0x74>
    a9d0:	e59f01c0 	ldr	r0, [pc, #448]	; ab98 <check_stream+0x208>
    a9d4:	ebfffb03 	bl	95e8 <getenv@plt>
    a9d8:	e59f11bc 	ldr	r1, [pc, #444]	; ab9c <check_stream+0x20c>
    a9dc:	e3a0201e 	mov	r2, #30
    a9e0:	e1a04000 	mov	r4, r0
    a9e4:	ebfffb44 	bl	96fc <strncasecmp@plt>
    a9e8:	e3500000 	cmp	r0, #0
    a9ec:	11a00005 	movne	r0, r5
    a9f0:	1a000063 	bne	ab84 <check_stream+0x1f4>
    a9f4:	e1a00006 	mov	r0, r6
    a9f8:	e284201e 	add	r2, r4, #30
    a9fc:	e59f119c 	ldr	r1, [pc, #412]	; aba0 <check_stream+0x210>
    aa00:	ebfffbc7 	bl	9924 <sprintf@plt>
    aa04:	e59f0198 	ldr	r0, [pc, #408]	; aba4 <check_stream+0x214>
    aa08:	ebfffaf6 	bl	95e8 <getenv@plt>
    aa0c:	e3500000 	cmp	r0, #0
    aa10:	1a000002 	bne	aa20 <check_stream+0x90>
    aa14:	ea00005a 	b	ab84 <check_stream+0x1f4>
    aa18:	e1a00003 	mov	r0, r3
    aa1c:	ea000058 	b	ab84 <check_stream+0x1f4>
    aa20:	e59f017c 	ldr	r0, [pc, #380]	; aba4 <check_stream+0x214>
    aa24:	ebfffaef 	bl	95e8 <getenv@plt>
    aa28:	e3a01000 	mov	r1, #0
    aa2c:	e1a02001 	mov	r2, r1
    aa30:	ebfffb1f 	bl	96b4 <strtoul@plt>
    aa34:	e3570000 	cmp	r7, #0
    aa38:	e1a05000 	mov	r5, r0
    aa3c:	0a000037 	beq	ab20 <check_stream+0x190>
    aa40:	e1a00007 	mov	r0, r7
    aa44:	e59f115c 	ldr	r1, [pc, #348]	; aba8 <check_stream+0x218>
    aa48:	e3a02006 	mov	r2, #6
    aa4c:	ebfffafa 	bl	963c <memcpy@plt>
    aa50:	e3550000 	cmp	r5, #0
    aa54:	0a000047 	beq	ab78 <check_stream+0x1e8>
    aa58:	e3a01000 	mov	r1, #0
    aa5c:	e3a02a01 	mov	r2, #4096	; 0x1000
    aa60:	e1a0000d 	mov	r0, sp
    aa64:	ebfffb96 	bl	98c4 <memset@plt>
    aa68:	e1a0000d 	mov	r0, sp
    aa6c:	e3a01a01 	mov	r1, #4096	; 0x1000
    aa70:	e1a02008 	mov	r2, r8
    aa74:	ebfffaea 	bl	9624 <fgets@plt>
    aa78:	e2503000 	subs	r3, r0, #0
    aa7c:	e1a0400d 	mov	r4, sp
    aa80:	e1a0000d 	mov	r0, sp
    aa84:	0affffe3 	beq	aa18 <check_stream+0x88>
    aa88:	ebfffbcc 	bl	99c0 <strlen@plt>
    aa8c:	e59f1118 	ldr	r1, [pc, #280]	; abac <check_stream+0x21c>
    aa90:	e0605005 	rsb	r5, r0, r5
    aa94:	e3a02014 	mov	r2, #20
    aa98:	e1a0000d 	mov	r0, sp
    aa9c:	ebfffb16 	bl	96fc <strncasecmp@plt>
    aaa0:	e3500000 	cmp	r0, #0
    aaa4:	e59f1104 	ldr	r1, [pc, #260]	; abb0 <check_stream+0x220>
    aaa8:	e1a0000d 	mov	r0, sp
    aaac:	1affffe7 	bne	aa50 <check_stream+0xc0>
    aab0:	ebfffb41 	bl	97bc <strcasestr@plt>
    aab4:	e3500000 	cmp	r0, #0
    aab8:	e59f10f4 	ldr	r1, [pc, #244]	; abb4 <check_stream+0x224>
    aabc:	e1a0000d 	mov	r0, sp
    aac0:	0affffe2 	beq	aa50 <check_stream+0xc0>
    aac4:	ebfffb42 	bl	97d4 <strstr@plt>
    aac8:	e2504000 	subs	r4, r0, #0
    aacc:	0affffdf 	beq	aa50 <check_stream+0xc0>
    aad0:	e1a00004 	mov	r0, r4
    aad4:	e3a0105c 	mov	r1, #92	; 0x5c
    aad8:	ebfffb16 	bl	9738 <strrchr@plt>
    aadc:	e3500000 	cmp	r0, #0
    aae0:	1a000005 	bne	aafc <check_stream+0x16c>
    aae4:	e1a00004 	mov	r0, r4
    aae8:	e3a0102f 	mov	r1, #47	; 0x2f
    aaec:	ebfffb11 	bl	9738 <strrchr@plt>
    aaf0:	e3500000 	cmp	r0, #0
    aaf4:	0284400a 	addeq	r4, r4, #10
    aaf8:	0a000000 	beq	ab00 <check_stream+0x170>
    aafc:	e2804001 	add	r4, r0, #1
    ab00:	e3a01022 	mov	r1, #34	; 0x22
    ab04:	e1a00004 	mov	r0, r4
    ab08:	ebfffbb8 	bl	99f0 <strchr@plt>
    ab0c:	e3a03000 	mov	r3, #0
    ab10:	e5c03000 	strb	r3, [r0]
    ab14:	e1a01004 	mov	r1, r4
    ab18:	e1a00007 	mov	r0, r7
    ab1c:	ebfffb1a 	bl	978c <strcat@plt>
    ab20:	e3550000 	cmp	r5, #0
    ab24:	0a000013 	beq	ab78 <check_stream+0x1e8>
    ab28:	e1a02008 	mov	r2, r8
    ab2c:	e3a01a01 	mov	r1, #4096	; 0x1000
    ab30:	e1a0000d 	mov	r0, sp
    ab34:	ebfffaba 	bl	9624 <fgets@plt>
    ab38:	e2503000 	subs	r3, r0, #0
    ab3c:	e1a0400d 	mov	r4, sp
    ab40:	e1a0000d 	mov	r0, sp
    ab44:	0affffb3 	beq	aa18 <check_stream+0x88>
    ab48:	ebfffb9c 	bl	99c0 <strlen@plt>
    ab4c:	e59f1064 	ldr	r1, [pc, #100]	; abb8 <check_stream+0x228>
    ab50:	e0605005 	rsb	r5, r0, r5
    ab54:	e1a0000d 	mov	r0, sp
    ab58:	ebfffb6b 	bl	990c <strcmp@plt>
    ab5c:	e3500000 	cmp	r0, #0
    ab60:	e59f1054 	ldr	r1, [pc, #84]	; abbc <check_stream+0x22c>
    ab64:	e1a0000d 	mov	r0, sp
    ab68:	0a000002 	beq	ab78 <check_stream+0x1e8>
    ab6c:	ebfffb66 	bl	990c <strcmp@plt>
    ab70:	e3500000 	cmp	r0, #0
    ab74:	1affffe9 	bne	ab20 <check_stream+0x190>
    ab78:	e35a0000 	cmp	sl, #0
    ab7c:	158a5000 	strne	r5, [sl]
    ab80:	e3a00001 	mov	r0, #1
    ab84:	e28dda01 	add	sp, sp, #4096	; 0x1000
    ab88:	e8bd45f0 	pop	{r4, r5, r6, r7, r8, sl, lr}
    ab8c:	e12fff1e 	bx	lr
    ab90:	000143e4 	andeq	r4, r1, r4, ror #7
    ab94:	000143f4 	strdeq	r4, [r1], -r4	; <UNPREDICTABLE>
    ab98:	000142e0 	andeq	r4, r1, r0, ror #5
    ab9c:	000142f0 	strdeq	r4, [r1], -r0
    aba0:	000143fc 	strdeq	r4, [r1], -ip
    aba4:	00014310 	andeq	r4, r1, r0, lsl r3
    aba8:	00014404 	andeq	r4, r1, r4, lsl #8
    abac:	0001440c 	andeq	r4, r1, ip, lsl #8
    abb0:	00014424 	andeq	r4, r1, r4, lsr #8
    abb4:	00014430 	andeq	r4, r1, r0, lsr r4
    abb8:	00018704 	andeq	r8, r1, r4, lsl #14
    abbc:	000142bc 			; <UNDEFINED> instruction: 0x000142bc

0000abc0 <upload_bin>:
    abc0:	e92d4070 	push	{r4, r5, r6, lr}
    abc4:	e24dd084 	sub	sp, sp, #132	; 0x84
    abc8:	e1a05001 	mov	r5, r1
    abcc:	e28d4004 	add	r4, sp, #4
    abd0:	e1a01004 	mov	r1, r4
    abd4:	e1a03005 	mov	r3, r5
    abd8:	e1a0200d 	mov	r2, sp
    abdc:	e1a06000 	mov	r6, r0
    abe0:	ebffff6a 	bl	a990 <check_stream>
    abe4:	e3500000 	cmp	r0, #0
    abe8:	e1a01004 	mov	r1, r4
    abec:	e1a03005 	mov	r3, r5
    abf0:	e1a00006 	mov	r0, r6
    abf4:	e3a04000 	mov	r4, #0
    abf8:	0a000004 	beq	ac10 <upload_bin+0x50>
    abfc:	e59d2000 	ldr	r2, [sp]
    ac00:	ebfffef6 	bl	a7e0 <file_upload>
    ac04:	e1500004 	cmp	r0, r4
    ac08:	12844001 	addne	r4, r4, #1
    ac0c:	1a000001 	bne	ac18 <upload_bin+0x58>
    ac10:	e1a00006 	mov	r0, r6
    ac14:	ebfffb03 	bl	9828 <unlink@plt>
    ac18:	e1a00004 	mov	r0, r4
    ac1c:	e28dd084 	add	sp, sp, #132	; 0x84
    ac20:	e8bd4070 	pop	{r4, r5, r6, lr}
    ac24:	e12fff1e 	bx	lr

0000ac28 <print_signal>:
    ac28:	e92d4030 	push	{r4, r5, lr}
    ac2c:	e24dd020 	sub	sp, sp, #32
    ac30:	e3a05000 	mov	r5, #0
    ac34:	e1a0000d 	mov	r0, sp
    ac38:	e58d5000 	str	r5, [sp]
    ac3c:	ebfffa5a 	bl	95ac <wmxapi_get_dev_state@plt>
    ac40:	e3700001 	cmn	r0, #1
    ac44:	0a00000c 	beq	ac7c <print_signal+0x54>
    ac48:	e59d3000 	ldr	r3, [sp]
    ac4c:	e3530005 	cmp	r3, #5
    ac50:	13a00030 	movne	r0, #48	; 0x30
    ac54:	1a000009 	bne	ac80 <print_signal+0x58>
    ac58:	e28d4004 	add	r4, sp, #4
    ac5c:	e1a01005 	mov	r1, r5
    ac60:	e3a0201c 	mov	r2, #28
    ac64:	e1a00004 	mov	r0, r4
    ac68:	ebfffb15 	bl	98c4 <memset@plt>
    ac6c:	e1a00004 	mov	r0, r4
    ac70:	ebfffa47 	bl	9594 <wmxapi_get_bs_info@plt>
    ac74:	e3700001 	cmn	r0, #1
    ac78:	1a000002 	bne	ac88 <print_signal+0x60>
    ac7c:	e2800031 	add	r0, r0, #49	; 0x31
    ac80:	ebfffa2e 	bl	9540 <putchar@plt>
    ac84:	ea00003b 	b	ad78 <print_signal+0x150>
    ac88:	e59d0018 	ldr	r0, [sp, #24]
    ac8c:	eb0023b4 	bl	13b64 <__floatsidf>
    ac90:	e28f20ec 	add	r2, pc, #236	; 0xec
    ac94:	e892000c 	ldm	r2, {r2, r3}
    ac98:	eb0023cf 	bl	13bdc <__muldf3>
    ac9c:	eb002509 	bl	140c8 <__truncdfsf2>
    aca0:	e3a01000 	mov	r1, #0
    aca4:	e1a04000 	mov	r4, r0
    aca8:	eb002546 	bl	141c8 <__lesf2>
    acac:	e3500000 	cmp	r0, #0
    acb0:	ba000004 	blt	acc8 <print_signal+0xa0>
    acb4:	e1a00004 	mov	r0, r4
    acb8:	e59f10cc 	ldr	r1, [pc, #204]	; ad8c <print_signal+0x164>
    acbc:	eb00253f 	bl	141c0 <__gesf2>
    acc0:	e3500000 	cmp	r0, #0
    acc4:	da000000 	ble	accc <print_signal+0xa4>
    acc8:	e3a04000 	mov	r4, #0
    accc:	e1a00004 	mov	r0, r4
    acd0:	e59f10b8 	ldr	r1, [pc, #184]	; ad90 <print_signal+0x168>
    acd4:	eb002539 	bl	141c0 <__gesf2>
    acd8:	e3500000 	cmp	r0, #0
    acdc:	a3a05004 	movge	r5, #4
    ace0:	aa000021 	bge	ad6c <print_signal+0x144>
    ace4:	e1a00004 	mov	r0, r4
    ace8:	e59f10a4 	ldr	r1, [pc, #164]	; ad94 <print_signal+0x16c>
    acec:	eb002533 	bl	141c0 <__gesf2>
    acf0:	e3500000 	cmp	r0, #0
    acf4:	ba000005 	blt	ad10 <print_signal+0xe8>
    acf8:	e1a00004 	mov	r0, r4
    acfc:	e59f108c 	ldr	r1, [pc, #140]	; ad90 <print_signal+0x168>
    ad00:	eb002530 	bl	141c8 <__lesf2>
    ad04:	e3500000 	cmp	r0, #0
    ad08:	b3a05003 	movlt	r5, #3
    ad0c:	ba000016 	blt	ad6c <print_signal+0x144>
    ad10:	e1a00004 	mov	r0, r4
    ad14:	e59f107c 	ldr	r1, [pc, #124]	; ad98 <print_signal+0x170>
    ad18:	eb002528 	bl	141c0 <__gesf2>
    ad1c:	e3500000 	cmp	r0, #0
    ad20:	ba000005 	blt	ad3c <print_signal+0x114>
    ad24:	e1a00004 	mov	r0, r4
    ad28:	e59f1064 	ldr	r1, [pc, #100]	; ad94 <print_signal+0x16c>
    ad2c:	eb002525 	bl	141c8 <__lesf2>
    ad30:	e3500000 	cmp	r0, #0
    ad34:	b3a05002 	movlt	r5, #2
    ad38:	ba00000b 	blt	ad6c <print_signal+0x144>
    ad3c:	e1a00004 	mov	r0, r4
    ad40:	e59f1054 	ldr	r1, [pc, #84]	; ad9c <print_signal+0x174>
    ad44:	eb00251d 	bl	141c0 <__gesf2>
    ad48:	e3500000 	cmp	r0, #0
    ad4c:	ba000005 	blt	ad68 <print_signal+0x140>
    ad50:	e1a00004 	mov	r0, r4
    ad54:	e59f103c 	ldr	r1, [pc, #60]	; ad98 <print_signal+0x170>
    ad58:	eb00251a 	bl	141c8 <__lesf2>
    ad5c:	e3500000 	cmp	r0, #0
    ad60:	b3a05001 	movlt	r5, #1
    ad64:	ba000000 	blt	ad6c <print_signal+0x144>
    ad68:	e3a05000 	mov	r5, #0
    ad6c:	e1a01005 	mov	r1, r5
    ad70:	e59f0028 	ldr	r0, [pc, #40]	; ada0 <print_signal+0x178>
    ad74:	ebfff9fd 	bl	9570 <printf@plt>
    ad78:	e28dd020 	add	sp, sp, #32
    ad7c:	e8bd4030 	pop	{r4, r5, lr}
    ad80:	e12fff1e 	bx	lr
    ad84:	3f800000 	svccc	0x00800000
    ad88:	00000000 	andeq	r0, r0, r0
    ad8c:	42c80000 	sbcmi	r0, r8, #0
    ad90:	41c80000 	bicmi	r0, r8, r0
    ad94:	41700000 	cmnmi	r0, r0
    ad98:	41200000 	teqmi	r0, r0
    ad9c:	40a00000 	adcmi	r0, r0, r0
    ada0:	0001444c 	andeq	r4, r1, ip, asr #8

0000ada4 <Sncfg_set>:
    ada4:	e92d4030 	push	{r4, r5, lr}
    ada8:	e1a05001 	mov	r5, r1
    adac:	e1a04000 	mov	r4, r0
    adb0:	ebfffc90 	bl	9ff8 <get_obj>
    adb4:	e59f1038 	ldr	r1, [pc, #56]	; adf4 <Sncfg_set+0x50>
    adb8:	ebfffad3 	bl	990c <strcmp@plt>
    adbc:	e3500000 	cmp	r0, #0
    adc0:	e1a01005 	mov	r1, r5
    adc4:	e1a00004 	mov	r0, r4
    adc8:	0a000006 	beq	ade8 <Sncfg_set+0x44>
    adcc:	ebfffc89 	bl	9ff8 <get_obj>
    add0:	e59f1020 	ldr	r1, [pc, #32]	; adf8 <Sncfg_set+0x54>
    add4:	ebfffacc 	bl	990c <strcmp@plt>
    add8:	e3500000 	cmp	r0, #0
    addc:	e1a01005 	mov	r1, r5
    ade0:	e1a00004 	mov	r0, r4
    ade4:	1a000000 	bne	adec <Sncfg_set+0x48>
    ade8:	ebfffa4c 	bl	9720 <sncfg_set@plt>
    adec:	e8bd4030 	pop	{r4, r5, lr}
    adf0:	e12fff1e 	bx	lr
    adf4:	000156f0 	strdeq	r5, [r1], -r0
    adf8:	00014450 	andeq	r4, r1, r0, asr r4

0000adfc <check_pin_code>:
    adfc:	e92d4030 	push	{r4, r5, lr}
    ae00:	e1a04000 	mov	r4, r0
    ae04:	ebfffaed 	bl	99c0 <strlen@plt>
    ae08:	e3500008 	cmp	r0, #8
    ae0c:	e3a03000 	mov	r3, #0
    ae10:	e1a00004 	mov	r0, r4
    ae14:	1a000035 	bne	aef0 <check_pin_code+0xf4>
    ae18:	ebfffadf 	bl	999c <atoi@plt>
    ae1c:	e59f10d8 	ldr	r1, [pc, #216]	; aefc <check_pin_code+0x100>
    ae20:	e1a05000 	mov	r5, r0
    ae24:	eb002189 	bl	13450 <__udivsi3>
    ae28:	e3a0100a 	mov	r1, #10
    ae2c:	eb002211 	bl	13678 <__umodsi3>
    ae30:	e59f10c8 	ldr	r1, [pc, #200]	; af00 <check_pin_code+0x104>
    ae34:	e0804080 	add	r4, r0, r0, lsl #1
    ae38:	e1a00005 	mov	r0, r5
    ae3c:	eb002183 	bl	13450 <__udivsi3>
    ae40:	e3a0100a 	mov	r1, #10
    ae44:	eb00220b 	bl	13678 <__umodsi3>
    ae48:	e59f10b4 	ldr	r1, [pc, #180]	; af04 <check_pin_code+0x108>
    ae4c:	e0844000 	add	r4, r4, r0
    ae50:	e1a00005 	mov	r0, r5
    ae54:	eb00217d 	bl	13450 <__udivsi3>
    ae58:	e3a0100a 	mov	r1, #10
    ae5c:	eb002205 	bl	13678 <__umodsi3>
    ae60:	e59f10a0 	ldr	r1, [pc, #160]	; af08 <check_pin_code+0x10c>
    ae64:	e0803080 	add	r3, r0, r0, lsl #1
    ae68:	e1a00005 	mov	r0, r5
    ae6c:	e0844003 	add	r4, r4, r3
    ae70:	eb002176 	bl	13450 <__udivsi3>
    ae74:	e3a0100a 	mov	r1, #10
    ae78:	eb0021fe 	bl	13678 <__umodsi3>
    ae7c:	e3a01ffa 	mov	r1, #1000	; 0x3e8
    ae80:	e0844000 	add	r4, r4, r0
    ae84:	e1a00005 	mov	r0, r5
    ae88:	eb002170 	bl	13450 <__udivsi3>
    ae8c:	e3a0100a 	mov	r1, #10
    ae90:	eb0021f8 	bl	13678 <__umodsi3>
    ae94:	e3a01064 	mov	r1, #100	; 0x64
    ae98:	e0803080 	add	r3, r0, r0, lsl #1
    ae9c:	e1a00005 	mov	r0, r5
    aea0:	e0844003 	add	r4, r4, r3
    aea4:	eb002169 	bl	13450 <__udivsi3>
    aea8:	e3a0100a 	mov	r1, #10
    aeac:	eb0021f1 	bl	13678 <__umodsi3>
    aeb0:	e3a0100a 	mov	r1, #10
    aeb4:	e0844000 	add	r4, r4, r0
    aeb8:	e1a00005 	mov	r0, r5
    aebc:	eb002163 	bl	13450 <__udivsi3>
    aec0:	e3a0100a 	mov	r1, #10
    aec4:	eb0021eb 	bl	13678 <__umodsi3>
    aec8:	e3a0100a 	mov	r1, #10
    aecc:	e0803080 	add	r3, r0, r0, lsl #1
    aed0:	e1a00005 	mov	r0, r5
    aed4:	e0844003 	add	r4, r4, r3
    aed8:	eb0021e6 	bl	13678 <__umodsi3>
    aedc:	e3a0100a 	mov	r1, #10
    aee0:	e0840000 	add	r0, r4, r0
    aee4:	eb0021e3 	bl	13678 <__umodsi3>
    aee8:	e2703001 	rsbs	r3, r0, #1
    aeec:	33a03000 	movcc	r3, #0
    aef0:	e1a00003 	mov	r0, r3
    aef4:	e8bd4030 	pop	{r4, r5, lr}
    aef8:	e12fff1e 	bx	lr
    aefc:	00989680 	addseq	r9, r8, r0, lsl #13
    af00:	000f4240 	andeq	r4, pc, r0, asr #4
    af04:	000186a0 	andeq	r8, r1, r0, lsr #13
    af08:	00002710 	andeq	r2, r0, r0, lsl r7

0000af0c <print_init_value>:
    af0c:	e92d4030 	push	{r4, r5, lr}
    af10:	e5903000 	ldr	r3, [r0]
    af14:	e24dd004 	sub	sp, sp, #4
    af18:	e1a04000 	mov	r4, r0
    af1c:	e3530000 	cmp	r3, #0
    af20:	e3a05000 	mov	r5, #0
    af24:	0a00000f 	beq	af68 <print_init_value+0x5c>
    af28:	e3550000 	cmp	r5, #0
    af2c:	e3a0003b 	mov	r0, #59	; 0x3b
    af30:	cbfff982 	blgt	9540 <putchar@plt>
    af34:	e7940105 	ldr	r0, [r4, r5, lsl #2]
    af38:	e1a0100d 	mov	r1, sp
    af3c:	ebfff9af 	bl	9600 <sncfg_get@plt>
    af40:	e3500001 	cmp	r0, #1
    af44:	e2855001 	add	r5, r5, #1
    af48:	0a000003 	beq	af5c <print_init_value+0x50>
    af4c:	e59d1000 	ldr	r1, [sp]
    af50:	e3510000 	cmp	r1, #0
    af54:	e59f0018 	ldr	r0, [pc, #24]	; af74 <print_init_value+0x68>
    af58:	1bfff984 	blne	9570 <printf@plt>
    af5c:	e7943105 	ldr	r3, [r4, r5, lsl #2]
    af60:	e3530000 	cmp	r3, #0
    af64:	eaffffee 	b	af24 <print_init_value+0x18>
    af68:	e28dd004 	add	sp, sp, #4
    af6c:	e8bd4030 	pop	{r4, r5, lr}
    af70:	e12fff1e 	bx	lr
    af74:	0001908c 	andeq	r9, r1, ip, lsl #1

0000af78 <tag_visible_network_list>:
    af78:	e92d4070 	push	{r4, r5, r6, lr}
    af7c:	e24ddefa 	sub	sp, sp, #4000	; 0xfa0
    af80:	e24dd004 	sub	sp, sp, #4
    af84:	e28d4004 	add	r4, sp, #4
    af88:	e2444004 	sub	r4, r4, #4
    af8c:	e3a01000 	mov	r1, #0
    af90:	e59f213c 	ldr	r2, [pc, #316]	; b0d4 <tag_visible_network_list+0x15c>
    af94:	e1a00004 	mov	r0, r4
    af98:	ebfffa49 	bl	98c4 <memset@plt>
    af9c:	e3a0005b 	mov	r0, #91	; 0x5b
    afa0:	ebfff966 	bl	9540 <putchar@plt>
    afa4:	e1a00004 	mov	r0, r4
    afa8:	ebfff9e8 	bl	9750 <wmxapi_get_visible_network@plt>
    afac:	e3500000 	cmp	r0, #0
    afb0:	1a00003f 	bne	b0b4 <tag_visible_network_list+0x13c>
    afb4:	e59d6000 	ldr	r6, [sp]
    afb8:	e1500006 	cmp	r0, r6
    afbc:	e1a05000 	mov	r5, r0
    afc0:	aa00003b 	bge	b0b4 <tag_visible_network_list+0x13c>
    afc4:	e28d4efa 	add	r4, sp, #4000	; 0xfa0
    afc8:	e2844004 	add	r4, r4, #4
    afcc:	e3550000 	cmp	r5, #0
    afd0:	e3a0002c 	mov	r0, #44	; 0x2c
    afd4:	cbfff959 	blgt	9540 <putchar@plt>
    afd8:	e3a0007b 	mov	r0, #123	; 0x7b
    afdc:	ebfff957 	bl	9540 <putchar@plt>
    afe0:	e5141fa0 	ldr	r1, [r4, #-4000]	; 0xfffff060
    afe4:	e59f00ec 	ldr	r0, [pc, #236]	; b0d8 <tag_visible_network_list+0x160>
    afe8:	ebfff960 	bl	9570 <printf@plt>
    afec:	e5141f9c 	ldr	r1, [r4, #-3996]	; 0xfffff064
    aff0:	e59f00e4 	ldr	r0, [pc, #228]	; b0dc <tag_visible_network_list+0x164>
    aff4:	ebfff95d 	bl	9570 <printf@plt>
    aff8:	e5140f90 	ldr	r0, [r4, #-3984]	; 0xfffff070
    affc:	eb0022d8 	bl	13b64 <__floatsidf>
    b000:	e28f20c4 	add	r2, pc, #196	; 0xc4
    b004:	e892000c 	ldm	r2, {r2, r3}
    b008:	eb0022f3 	bl	13bdc <__muldf3>
    b00c:	e1a02001 	mov	r2, r1
    b010:	e1a01000 	mov	r1, r0
    b014:	e59f00c4 	ldr	r0, [pc, #196]	; b0e0 <tag_visible_network_list+0x168>
    b018:	ebfff954 	bl	9570 <printf@plt>
    b01c:	e59f00c0 	ldr	r0, [pc, #192]	; b0e4 <tag_visible_network_list+0x16c>
    b020:	ebfff952 	bl	9570 <printf@plt>
    b024:	e5143f88 	ldr	r3, [r4, #-3976]	; 0xfffff078
    b028:	e35304ff 	cmp	r3, #-16777216	; 0xff000000
    b02c:	e59f00b4 	ldr	r0, [pc, #180]	; b0e8 <tag_visible_network_list+0x170>
    b030:	1a000001 	bne	b03c <tag_visible_network_list+0xc4>
    b034:	ebfff94d 	bl	9570 <printf@plt>
    b038:	ea000008 	b	b060 <tag_visible_network_list+0xe8>
    b03c:	e1a00003 	mov	r0, r3
    b040:	eb0022c7 	bl	13b64 <__floatsidf>
    b044:	e28f2080 	add	r2, pc, #128	; 0x80
    b048:	e892000c 	ldm	r2, {r2, r3}
    b04c:	eb0022e2 	bl	13bdc <__muldf3>
    b050:	e1a02001 	mov	r2, r1
    b054:	e1a01000 	mov	r1, r0
    b058:	e59f008c 	ldr	r0, [pc, #140]	; b0ec <tag_visible_network_list+0x174>
    b05c:	ebfff943 	bl	9570 <printf@plt>
    b060:	e5143f8c 	ldr	r3, [r4, #-3980]	; 0xfffff074
    b064:	e35304ff 	cmp	r3, #-16777216	; 0xff000000
    b068:	e59f0080 	ldr	r0, [pc, #128]	; b0f0 <tag_visible_network_list+0x178>
    b06c:	1a000001 	bne	b078 <tag_visible_network_list+0x100>
    b070:	ebfff93e 	bl	9570 <printf@plt>
    b074:	ea000008 	b	b09c <tag_visible_network_list+0x124>
    b078:	e1a00003 	mov	r0, r3
    b07c:	eb0022b8 	bl	13b64 <__floatsidf>
    b080:	e28f2044 	add	r2, pc, #68	; 0x44
    b084:	e892000c 	ldm	r2, {r2, r3}
    b088:	eb0022d3 	bl	13bdc <__muldf3>
    b08c:	e1a02001 	mov	r2, r1
    b090:	e1a01000 	mov	r1, r0
    b094:	e59f0058 	ldr	r0, [pc, #88]	; b0f4 <tag_visible_network_list+0x17c>
    b098:	ebfff934 	bl	9570 <printf@plt>
    b09c:	e2855001 	add	r5, r5, #1
    b0a0:	e3a0007d 	mov	r0, #125	; 0x7d
    b0a4:	ebfff925 	bl	9540 <putchar@plt>
    b0a8:	e1550006 	cmp	r5, r6
    b0ac:	e284401c 	add	r4, r4, #28
    b0b0:	baffffc5 	blt	afcc <tag_visible_network_list+0x54>
    b0b4:	e3a0005d 	mov	r0, #93	; 0x5d
    b0b8:	ebfff920 	bl	9540 <putchar@plt>
    b0bc:	e28ddfe9 	add	sp, sp, #932	; 0x3a4
    b0c0:	e28ddb03 	add	sp, sp, #3072	; 0xc00
    b0c4:	e8bd4070 	pop	{r4, r5, r6, lr}
    b0c8:	e12fff1e 	bx	lr
    b0cc:	3f800000 	svccc	0x00800000
    b0d0:	00000000 	andeq	r0, r0, r0
    b0d4:	00000fa4 	andeq	r0, r0, r4, lsr #31
    b0d8:	00014454 	andeq	r4, r1, r4, asr r4
    b0dc:	00014464 	andeq	r4, r1, r4, ror #8
    b0e0:	00014470 	andeq	r4, r1, r0, ror r4
    b0e4:	00014480 	andeq	r4, r1, r0, lsl #9
    b0e8:	0001448c 	andeq	r4, r1, ip, lsl #9
    b0ec:	00014494 	muleq	r1, r4, r4
    b0f0:	0001449c 	muleq	r1, ip, r4
    b0f4:	000144a4 	andeq	r4, r1, r4, lsr #9

0000b0f8 <print_init_wifi>:
    b0f8:	e92d4030 	push	{r4, r5, lr}
    b0fc:	e5903000 	ldr	r3, [r0]
    b100:	e24dd004 	sub	sp, sp, #4
    b104:	e1a04000 	mov	r4, r0
    b108:	e3530000 	cmp	r3, #0
    b10c:	e3a05000 	mov	r5, #0
    b110:	0a00000f 	beq	b154 <print_init_wifi+0x5c>
    b114:	e3550000 	cmp	r5, #0
    b118:	e3a00023 	mov	r0, #35	; 0x23
    b11c:	cbfff907 	blgt	9540 <putchar@plt>
    b120:	e7940105 	ldr	r0, [r4, r5, lsl #2]
    b124:	e1a0100d 	mov	r1, sp
    b128:	ebfff934 	bl	9600 <sncfg_get@plt>
    b12c:	e3500001 	cmp	r0, #1
    b130:	e2855001 	add	r5, r5, #1
    b134:	0a000003 	beq	b148 <print_init_wifi+0x50>
    b138:	e59d1000 	ldr	r1, [sp]
    b13c:	e3510000 	cmp	r1, #0
    b140:	e59f0018 	ldr	r0, [pc, #24]	; b160 <print_init_wifi+0x68>
    b144:	1bfff909 	blne	9570 <printf@plt>
    b148:	e7943105 	ldr	r3, [r4, r5, lsl #2]
    b14c:	e3530000 	cmp	r3, #0
    b150:	eaffffee 	b	b110 <print_init_wifi+0x18>
    b154:	e28dd004 	add	sp, sp, #4
    b158:	e8bd4030 	pop	{r4, r5, lr}
    b15c:	e12fff1e 	bx	lr
    b160:	0001908c 	andeq	r9, r1, ip, lsl #1

0000b164 <tag_scanner_config>:
    b164:	e92d4070 	push	{r4, r5, r6, lr}
    b168:	e24ddb01 	sub	sp, sp, #1024	; 0x400
    b16c:	e24dd008 	sub	sp, sp, #8
    b170:	e28d4008 	add	r4, sp, #8
    b174:	e2444008 	sub	r4, r4, #8
    b178:	e3a01000 	mov	r1, #0
    b17c:	e59f2090 	ldr	r2, [pc, #144]	; b214 <tag_scanner_config+0xb0>
    b180:	e1a00004 	mov	r0, r4
    b184:	ebfff9ce 	bl	98c4 <memset@plt>
    b188:	e3a0005b 	mov	r0, #91	; 0x5b
    b18c:	ebfff8eb 	bl	9540 <putchar@plt>
    b190:	e1a00004 	mov	r0, r4
    b194:	ebfff9a9 	bl	9840 <wmxapi_get_freqlist@plt>
    b198:	e3500000 	cmp	r0, #0
    b19c:	1a000016 	bne	b1fc <tag_scanner_config+0x98>
    b1a0:	e59d6004 	ldr	r6, [sp, #4]
    b1a4:	e1500006 	cmp	r0, r6
    b1a8:	e1a04000 	mov	r4, r0
    b1ac:	aa000012 	bge	b1fc <tag_scanner_config+0x98>
    b1b0:	e28d5b01 	add	r5, sp, #1024	; 0x400
    b1b4:	e2855008 	add	r5, r5, #8
    b1b8:	e3540000 	cmp	r4, #0
    b1bc:	e3a0002c 	mov	r0, #44	; 0x2c
    b1c0:	e2844001 	add	r4, r4, #1
    b1c4:	cbfff8dd 	blgt	9540 <putchar@plt>
    b1c8:	e3a0007b 	mov	r0, #123	; 0x7b
    b1cc:	ebfff8db 	bl	9540 <putchar@plt>
    b1d0:	e5151400 	ldr	r1, [r5, #-1024]	; 0xfffffc00
    b1d4:	e59f003c 	ldr	r0, [pc, #60]	; b218 <tag_scanner_config+0xb4>
    b1d8:	ebfff8e4 	bl	9570 <printf@plt>
    b1dc:	e51513fc 	ldr	r1, [r5, #-1020]	; 0xfffffc04
    b1e0:	e59f0034 	ldr	r0, [pc, #52]	; b21c <tag_scanner_config+0xb8>
    b1e4:	ebfff8e1 	bl	9570 <printf@plt>
    b1e8:	e3a0007d 	mov	r0, #125	; 0x7d
    b1ec:	ebfff8d3 	bl	9540 <putchar@plt>
    b1f0:	e1540006 	cmp	r4, r6
    b1f4:	e2855008 	add	r5, r5, #8
    b1f8:	baffffee 	blt	b1b8 <tag_scanner_config+0x54>
    b1fc:	e3a0005d 	mov	r0, #93	; 0x5d
    b200:	ebfff8ce 	bl	9540 <putchar@plt>
    b204:	e28dd008 	add	sp, sp, #8
    b208:	e28ddb01 	add	sp, sp, #1024	; 0x400
    b20c:	e8bd4070 	pop	{r4, r5, r6, lr}
    b210:	e12fff1e 	bx	lr
    b214:	00000408 	andeq	r0, r0, r8, lsl #8
    b218:	000144ac 	andeq	r4, r1, ip, lsr #9
    b21c:	000144bc 			; <UNDEFINED> instruction: 0x000144bc

0000b220 <tag_SS_state>:
    b220:	e52de004 	push	{lr}		; (str lr, [sp, #-4]!)
    b224:	e24dd004 	sub	sp, sp, #4
    b228:	e28d0004 	add	r0, sp, #4
    b22c:	e3a03000 	mov	r3, #0
    b230:	e5203004 	str	r3, [r0, #-4]!
    b234:	ebfff8dc 	bl	95ac <wmxapi_get_dev_state@plt>
    b238:	e3700001 	cmn	r0, #1
    b23c:	0a000004 	beq	b254 <tag_SS_state+0x34>
    b240:	e59d3000 	ldr	r3, [sp]
    b244:	e2433004 	sub	r3, r3, #4
    b248:	e3530001 	cmp	r3, #1
    b24c:	959f3014 	ldrls	r3, [pc, #20]	; b268 <tag_SS_state+0x48>
    b250:	9a000000 	bls	b258 <tag_SS_state+0x38>
    b254:	e59f3010 	ldr	r3, [pc, #16]	; b26c <tag_SS_state+0x4c>
    b258:	e5930000 	ldr	r0, [r3]
    b25c:	e28dd004 	add	sp, sp, #4
    b260:	e49de004 	pop	{lr}		; (ldr lr, [sp], #4)
    b264:	e12fff1e 	bx	lr
    b268:	00021818 	andeq	r1, r2, r8, lsl r8
    b26c:	00021814 	andeq	r1, r2, r4, lsl r8

0000b270 <session_create>:
    b270:	e92d47f0 	push	{r4, r5, r6, r7, r8, r9, sl, lr}
    b274:	e59f90d8 	ldr	r9, [pc, #216]	; b354 <session_create+0xe4>
    b278:	e24dd044 	sub	sp, sp, #68	; 0x44
    b27c:	e1a06000 	mov	r6, r0
    b280:	e1a00009 	mov	r0, r9
    b284:	e1a08001 	mov	r8, r1
    b288:	e1a05002 	mov	r5, r2
    b28c:	e1a0a003 	mov	sl, r3
    b290:	ebfff9ca 	bl	99c0 <strlen@plt>
    b294:	e1a07000 	mov	r7, r0
    b298:	e59f00b8 	ldr	r0, [pc, #184]	; b358 <session_create+0xe8>
    b29c:	eb001ea5 	bl	12d38 <confInit>
    b2a0:	e3a00000 	mov	r0, #0
    b2a4:	ebfff995 	bl	9900 <time@plt>
    b2a8:	ebfff988 	bl	98d0 <srand@plt>
    b2ac:	e3a04000 	mov	r4, #0
    b2b0:	e1540005 	cmp	r4, r5
    b2b4:	aa000006 	bge	b2d4 <session_create+0x64>
    b2b8:	ebfff94b 	bl	97ec <rand@plt>
    b2bc:	e1a01007 	mov	r1, r7
    b2c0:	eb0020ec 	bl	13678 <__umodsi3>
    b2c4:	e7d93000 	ldrb	r3, [r9, r0]
    b2c8:	e7c63004 	strb	r3, [r6, r4]
    b2cc:	e2844001 	add	r4, r4, #1
    b2d0:	eafffff6 	b	b2b0 <session_create+0x40>
    b2d4:	e3a04000 	mov	r4, #0
    b2d8:	e7c64005 	strb	r4, [r6, r5]
    b2dc:	e59f0074 	ldr	r0, [pc, #116]	; b358 <session_create+0xe8>
    b2e0:	e1a01006 	mov	r1, r6
    b2e4:	e59f2070 	ldr	r2, [pc, #112]	; b35c <session_create+0xec>
    b2e8:	eb001f1c 	bl	12f60 <confMatch>
    b2ec:	e1500004 	cmp	r0, r4
    b2f0:	0affffed 	beq	b2ac <session_create+0x3c>
    b2f4:	e1a01004 	mov	r1, r4
    b2f8:	e3a02c01 	mov	r2, #256	; 0x100
    b2fc:	e59f005c 	ldr	r0, [pc, #92]	; b360 <session_create+0xf0>
    b300:	ebfff96f 	bl	98c4 <memset@plt>
    b304:	e28d0004 	add	r0, sp, #4
    b308:	ebfff8e3 	bl	969c <sysinfo@plt>
    b30c:	e59d3004 	ldr	r3, [sp, #4]
    b310:	e1a02008 	mov	r2, r8
    b314:	e59f1048 	ldr	r1, [pc, #72]	; b364 <session_create+0xf4>
    b318:	e59f0040 	ldr	r0, [pc, #64]	; b360 <session_create+0xf0>
    b31c:	e58da000 	str	sl, [sp]
    b320:	ebfff97f 	bl	9924 <sprintf@plt>
    b324:	e1a01006 	mov	r1, r6
    b328:	e59f2030 	ldr	r2, [pc, #48]	; b360 <session_create+0xf0>
    b32c:	e59f0024 	ldr	r0, [pc, #36]	; b358 <session_create+0xe8>
    b330:	eb001ed0 	bl	12e78 <confSetValue>
    b334:	e59f001c 	ldr	r0, [pc, #28]	; b358 <session_create+0xe8>
    b338:	eb001fed 	bl	132f4 <confCommit>
    b33c:	e59f0014 	ldr	r0, [pc, #20]	; b358 <session_create+0xe8>
    b340:	eb002026 	bl	133e0 <confFree>
    b344:	e1a00006 	mov	r0, r6
    b348:	e28dd044 	add	sp, sp, #68	; 0x44
    b34c:	e8bd47f0 	pop	{r4, r5, r6, r7, r8, r9, sl, lr}
    b350:	e12fff1e 	bx	lr
    b354:	000144c8 	andeq	r4, r1, r8, asr #9
    b358:	00014508 	andeq	r4, r1, r8, lsl #10
    b35c:	000143d8 	ldrdeq	r4, [r1], -r8
    b360:	0002390a 	andeq	r3, r2, sl, lsl #18
    b364:	00014440 	andeq	r4, r1, r0, asr #8

0000b368 <session_manage>:
    b368:	e92d4030 	push	{r4, r5, lr}
    b36c:	e2505000 	subs	r5, r0, #0
    b370:	e24dd040 	sub	sp, sp, #64	; 0x40
    b374:	0a000016 	beq	b3d4 <session_manage+0x6c>
    b378:	e3a01000 	mov	r1, #0
    b37c:	e3a02c01 	mov	r2, #256	; 0x100
    b380:	e59f0058 	ldr	r0, [pc, #88]	; b3e0 <session_manage+0x78>
    b384:	ebfff94e 	bl	98c4 <memset@plt>
    b388:	e3a03001 	mov	r3, #1
    b38c:	e5951000 	ldr	r1, [r5]
    b390:	e59f2048 	ldr	r2, [pc, #72]	; b3e0 <session_manage+0x78>
    b394:	e59f0048 	ldr	r0, [pc, #72]	; b3e4 <session_manage+0x7c>
    b398:	eb001ef9 	bl	12f84 <confGetSeg>
    b39c:	e59f003c 	ldr	r0, [pc, #60]	; b3e0 <session_manage+0x78>
    b3a0:	ebfff88a 	bl	95d0 <atol@plt>
    b3a4:	e1a04000 	mov	r4, r0
    b3a8:	e1a0000d 	mov	r0, sp
    b3ac:	ebfff8ba 	bl	969c <sysinfo@plt>
    b3b0:	e59d3000 	ldr	r3, [sp]
    b3b4:	e0643003 	rsb	r3, r4, r3
    b3b8:	e3530f96 	cmp	r3, #600	; 0x258
    b3bc:	e59f0020 	ldr	r0, [pc, #32]	; b3e4 <session_manage+0x7c>
    b3c0:	c5951000 	ldrgt	r1, [r5]
    b3c4:	cb001ebd 	blgt	12ec0 <confDelEntry>
    b3c8:	e5955008 	ldr	r5, [r5, #8]
    b3cc:	e3550000 	cmp	r5, #0
    b3d0:	eaffffe7 	b	b374 <session_manage+0xc>
    b3d4:	e28dd040 	add	sp, sp, #64	; 0x40
    b3d8:	e8bd4030 	pop	{r4, r5, lr}
    b3dc:	e12fff1e 	bx	lr
    b3e0:	0002390a 	andeq	r3, r2, sl, lsl #18
    b3e4:	00014508 	andeq	r4, r1, r8, lsl #10

0000b3e8 <session_check>:
    b3e8:	e92d4030 	push	{r4, r5, lr}
    b3ec:	e1a05000 	mov	r5, r0
    b3f0:	e24dd040 	sub	sp, sp, #64	; 0x40
    b3f4:	e59f0088 	ldr	r0, [pc, #136]	; b484 <session_check+0x9c>
    b3f8:	e1a04001 	mov	r4, r1
    b3fc:	eb001e4d 	bl	12d38 <confInit>
    b400:	ebffffd8 	bl	b368 <session_manage>
    b404:	e1a02004 	mov	r2, r4
    b408:	e3a03000 	mov	r3, #0
    b40c:	e1a01005 	mov	r1, r5
    b410:	e59f006c 	ldr	r0, [pc, #108]	; b484 <session_check+0x9c>
    b414:	eb001f72 	bl	131e4 <confMatchSeg>
    b418:	e2503000 	subs	r3, r0, #0
    b41c:	e1a04005 	mov	r4, r5
    b420:	e3a01000 	mov	r1, #0
    b424:	e3a02c01 	mov	r2, #256	; 0x100
    b428:	e59f0058 	ldr	r0, [pc, #88]	; b488 <session_check+0xa0>
    b42c:	01a04003 	moveq	r4, r3
    b430:	0a00000b 	beq	b464 <session_check+0x7c>
    b434:	ebfff922 	bl	98c4 <memset@plt>
    b438:	e1a0000d 	mov	r0, sp
    b43c:	ebfff896 	bl	969c <sysinfo@plt>
    b440:	e59f1044 	ldr	r1, [pc, #68]	; b48c <session_check+0xa4>
    b444:	e59d2000 	ldr	r2, [sp]
    b448:	e59f0038 	ldr	r0, [pc, #56]	; b488 <session_check+0xa0>
    b44c:	ebfff934 	bl	9924 <sprintf@plt>
    b450:	e59f002c 	ldr	r0, [pc, #44]	; b484 <session_check+0x9c>
    b454:	e1a01005 	mov	r1, r5
    b458:	e59f2028 	ldr	r2, [pc, #40]	; b488 <session_check+0xa0>
    b45c:	e3a03001 	mov	r3, #1
    b460:	eb001f08 	bl	13088 <confSetSeg>
    b464:	e59f0018 	ldr	r0, [pc, #24]	; b484 <session_check+0x9c>
    b468:	eb001fa1 	bl	132f4 <confCommit>
    b46c:	e59f0010 	ldr	r0, [pc, #16]	; b484 <session_check+0x9c>
    b470:	eb001fda 	bl	133e0 <confFree>
    b474:	e1a00004 	mov	r0, r4
    b478:	e28dd040 	add	sp, sp, #64	; 0x40
    b47c:	e8bd4030 	pop	{r4, r5, lr}
    b480:	e12fff1e 	bx	lr
    b484:	00014508 	andeq	r4, r1, r8, lsl #10
    b488:	0002390a 	andeq	r3, r2, sl, lsl #18
    b48c:	00014518 	andeq	r4, r1, r8, lsl r5

0000b490 <Set_conf_field_string>:
    b490:	e92d4070 	push	{r4, r5, r6, lr}
    b494:	e1a06000 	mov	r6, r0
    b498:	e1a00001 	mov	r0, r1
    b49c:	e1a04001 	mov	r4, r1
    b4a0:	e1a05002 	mov	r5, r2
    b4a4:	ebfffad3 	bl	9ff8 <get_obj>
    b4a8:	e59f1048 	ldr	r1, [pc, #72]	; b4f8 <Set_conf_field_string+0x68>
    b4ac:	ebfff916 	bl	990c <strcmp@plt>
    b4b0:	e3500000 	cmp	r0, #0
    b4b4:	e1a01004 	mov	r1, r4
    b4b8:	e1a00004 	mov	r0, r4
    b4bc:	e1a02005 	mov	r2, r5
    b4c0:	01a00006 	moveq	r0, r6
    b4c4:	0a000008 	beq	b4ec <Set_conf_field_string+0x5c>
    b4c8:	ebfffaca 	bl	9ff8 <get_obj>
    b4cc:	e59f1028 	ldr	r1, [pc, #40]	; b4fc <Set_conf_field_string+0x6c>
    b4d0:	ebfff90d 	bl	990c <strcmp@plt>
    b4d4:	e3500000 	cmp	r0, #0
    b4d8:	e1a01004 	mov	r1, r4
    b4dc:	e1a00006 	mov	r0, r6
    b4e0:	e1a02005 	mov	r2, r5
    b4e4:	13a00000 	movne	r0, #0
    b4e8:	1a000000 	bne	b4f0 <Set_conf_field_string+0x60>
    b4ec:	ebfffbc4 	bl	a404 <set_conf_field_string>
    b4f0:	e8bd4070 	pop	{r4, r5, r6, lr}
    b4f4:	e12fff1e 	bx	lr
    b4f8:	000156f0 	strdeq	r5, [r1], -r0
    b4fc:	00014450 	andeq	r4, r1, r0, asr r4

0000b500 <get_checkbox>:
    b500:	e52de004 	push	{lr}		; (str lr, [sp, #-4]!)
    b504:	ebfffa4f 	bl	9e48 <get_cgi>
    b508:	e59f1018 	ldr	r1, [pc, #24]	; b528 <get_checkbox+0x28>
    b50c:	ebfff8c8 	bl	9834 <strcasecmp@plt>
    b510:	e3500000 	cmp	r0, #0
    b514:	059f3010 	ldreq	r3, [pc, #16]	; b52c <get_checkbox+0x2c>
    b518:	159f3010 	ldrne	r3, [pc, #16]	; b530 <get_checkbox+0x30>
    b51c:	e5930000 	ldr	r0, [r3]
    b520:	e49de004 	pop	{lr}		; (ldr lr, [sp], #4)
    b524:	e12fff1e 	bx	lr
    b528:	00014520 	andeq	r4, r1, r0, lsr #10
    b52c:	00021818 	andeq	r1, r2, r8, lsl r8
    b530:	00021814 	andeq	r1, r2, r4, lsl r8

0000b534 <main>:
    b534:	e92d4ff0 	push	{r4, r5, r6, r7, r8, r9, sl, fp, lr}
    b538:	e59f84e8 	ldr	r8, [pc, #1256]	; ba28 <main+0x4f4>
    b53c:	e24ddc8b 	sub	sp, sp, #35584	; 0x8b00
    b540:	e24dd020 	sub	sp, sp, #32
    b544:	e5980000 	ldr	r0, [r8]
    b548:	ebfff9cc 	bl	9c80 <get_query>
    b54c:	ebfffa52 	bl	9e9c <init_cgi>
    b550:	e59f04d4 	ldr	r0, [pc, #1236]	; ba2c <main+0x4f8>
    b554:	ebfffa3b 	bl	9e48 <get_cgi>
    b558:	e1a05000 	mov	r5, r0
    b55c:	e59f05d4 	ldr	r0, [pc, #1492]	; bb38 <main+0x604>
    b560:	ebfffa38 	bl	9e48 <get_cgi>
    b564:	e28d7c8a 	add	r7, sp, #35328	; 0x8a00
    b568:	e1a04000 	mov	r4, r0
    b56c:	e2877020 	add	r7, r7, #32
    b570:	e59f04b8 	ldr	r0, [pc, #1208]	; ba30 <main+0x4fc>
    b574:	eb001def 	bl	12d38 <confInit>
    b578:	e3a01000 	mov	r1, #0
    b57c:	e3a02c01 	mov	r2, #256	; 0x100
    b580:	e1a00007 	mov	r0, r7
    b584:	ebfff8ce 	bl	98c4 <memset@plt>
    b588:	e1a01004 	mov	r1, r4
    b58c:	e3a03002 	mov	r3, #2
    b590:	e1a02007 	mov	r2, r7
    b594:	e59f0494 	ldr	r0, [pc, #1172]	; ba30 <main+0x4fc>
    b598:	eb001e79 	bl	12f84 <confGetSeg>
    b59c:	e59f048c 	ldr	r0, [pc, #1164]	; ba30 <main+0x4fc>
    b5a0:	eb001f8e 	bl	133e0 <confFree>
    b5a4:	e3a01000 	mov	r1, #0
    b5a8:	e59f26d8 	ldr	r2, [pc, #1752]	; bc88 <main+0x754>
    b5ac:	e59f06c4 	ldr	r0, [pc, #1732]	; bc78 <main+0x744>
    b5b0:	ebfff8c3 	bl	98c4 <memset@plt>
    b5b4:	e1a00005 	mov	r0, r5
    b5b8:	e59f1474 	ldr	r1, [pc, #1140]	; ba34 <main+0x500>
    b5bc:	ebfff8d2 	bl	990c <strcmp@plt>
    b5c0:	e2504000 	subs	r4, r0, #0
    b5c4:	1a0002e6 	bne	c164 <main+0xc30>
    b5c8:	e59f074c 	ldr	r0, [pc, #1868]	; bd1c <main+0x7e8>
    b5cc:	e28d6e12 	add	r6, sp, #288	; 0x120
    b5d0:	e28d5e12 	add	r5, sp, #288	; 0x120
    b5d4:	ebfff81e 	bl	9654 <puts@plt>
    b5d8:	e2466010 	sub	r6, r6, #16
    b5dc:	ebfffd91 	bl	ac28 <print_signal>
    b5e0:	e2455014 	sub	r5, r5, #20
    b5e4:	e3a0003b 	mov	r0, #59	; 0x3b
    b5e8:	ebfff7d4 	bl	9540 <putchar@plt>
    b5ec:	e1a00006 	mov	r0, r6
    b5f0:	e5854000 	str	r4, [r5]
    b5f4:	e5864000 	str	r4, [r6]
    b5f8:	ebfff7eb 	bl	95ac <wmxapi_get_dev_state@plt>
    b5fc:	e3700001 	cmn	r0, #1
    b600:	0a001cb2 	beq	128d0 <main+0x739c>
    b604:	e1a00005 	mov	r0, r5
    b608:	ebfff81a 	bl	9678 <wmxapi_get_mac_state@plt>
    b60c:	e3700001 	cmn	r0, #1
    b610:	0a001cae 	beq	128d0 <main+0x739c>
    b614:	ebfff8a1 	bl	98a0 <wmxapi_get_ul_mcs@plt>
    b618:	e1a0b000 	mov	fp, r0
    b61c:	ebfff7d0 	bl	9564 <wmxapi_get_dl_mcs@plt>
    b620:	e28d1e12 	add	r1, sp, #288	; 0x120
    b624:	e2411018 	sub	r1, r1, #24
    b628:	e58d003c 	str	r0, [sp, #60]	; 0x3c
    b62c:	e1a00001 	mov	r0, r1
    b630:	e58d1038 	str	r1, [sp, #56]	; 0x38
    b634:	ebfff7fd 	bl	9630 <wmxapi_get_rf_temperature@plt>
    b638:	e5963000 	ldr	r3, [r6]
    b63c:	e3530000 	cmp	r3, #0
    b640:	1a000006 	bne	b660 <main+0x12c>
    b644:	e59f33ec 	ldr	r3, [pc, #1004]	; ba38 <main+0x504>
    b648:	e28dcc89 	add	ip, sp, #35072	; 0x8900
    b64c:	e893000f 	ldm	r3, {r0, r1, r2, r3}
    b650:	e28cc0ec 	add	ip, ip, #236	; 0xec
    b654:	e8ac0007 	stmia	ip!, {r0, r1, r2}
    b658:	e1cc30b0 	strh	r3, [ip]
    b65c:	ea000029 	b	b708 <main+0x1d4>
    b660:	e3530001 	cmp	r3, #1
    b664:	1a000006 	bne	b684 <main+0x150>
    b668:	e59f33cc 	ldr	r3, [pc, #972]	; ba3c <main+0x508>
    b66c:	e8930007 	ldm	r3, {r0, r1, r2}
    b670:	e28d3c89 	add	r3, sp, #35072	; 0x8900
    b674:	e28330ec 	add	r3, r3, #236	; 0xec
    b678:	e8a30003 	stmia	r3!, {r0, r1}
    b67c:	e1c320b0 	strh	r2, [r3]
    b680:	ea000020 	b	b708 <main+0x1d4>
    b684:	e3530002 	cmp	r3, #2
    b688:	1a000007 	bne	b6ac <main+0x178>
    b68c:	e59f33ac 	ldr	r3, [pc, #940]	; ba40 <main+0x50c>
    b690:	e8930003 	ldm	r3, {r0, r1}
    b694:	e28d3c89 	add	r3, sp, #35072	; 0x8900
    b698:	e28330f0 	add	r3, r3, #240	; 0xf0
    b69c:	e28d2902 	add	r2, sp, #32768	; 0x8000
    b6a0:	e1c310b0 	strh	r1, [r3]
    b6a4:	e58209ec 	str	r0, [r2, #2540]	; 0x9ec
    b6a8:	ea000016 	b	b708 <main+0x1d4>
    b6ac:	e3530003 	cmp	r3, #3
    b6b0:	1a000006 	bne	b6d0 <main+0x19c>
    b6b4:	e59f3388 	ldr	r3, [pc, #904]	; ba44 <main+0x510>
    b6b8:	e8930007 	ldm	r3, {r0, r1, r2}
    b6bc:	e28d3c89 	add	r3, sp, #35072	; 0x8900
    b6c0:	e28330ec 	add	r3, r3, #236	; 0xec
    b6c4:	e8a30003 	stmia	r3!, {r0, r1}
    b6c8:	e5c32000 	strb	r2, [r3]
    b6cc:	ea00000d 	b	b708 <main+0x1d4>
    b6d0:	e3530004 	cmp	r3, #4
    b6d4:	059f336c 	ldreq	r3, [pc, #876]	; ba48 <main+0x514>
    b6d8:	e28dcc89 	add	ip, sp, #35072	; 0x8900
    b6dc:	e28cc0ec 	add	ip, ip, #236	; 0xec
    b6e0:	08930007 	ldmeq	r3, {r0, r1, r2}
    b6e4:	159f3360 	ldrne	r3, [pc, #864]	; ba4c <main+0x518>
    b6e8:	01a0300c 	moveq	r3, ip
    b6ec:	08a30003 	stmiaeq	r3!, {r0, r1}
    b6f0:	18930007 	ldmne	r3, {r0, r1, r2}
    b6f4:	01a03822 	lsreq	r3, r2, #16
    b6f8:	11a0300c 	movne	r3, ip
    b6fc:	18a30003 	stmiane	r3!, {r0, r1}
    b700:	05cc300a 	strbeq	r3, [ip, #10]
    b704:	e1cc20b8 	strh	r2, [ip, #8]
    b708:	e5950000 	ldr	r0, [r5]
    b70c:	e3500000 	cmp	r0, #0
    b710:	059f3338 	ldreq	r3, [pc, #824]	; ba50 <main+0x51c>
    b714:	0a00001e 	beq	b794 <main+0x260>
    b718:	e3500001 	cmp	r0, #1
    b71c:	1a000009 	bne	b748 <main+0x214>
    b720:	e59f332c 	ldr	r3, [pc, #812]	; ba54 <main+0x520>
    b724:	e8930003 	ldm	r3, {r0, r1}
    b728:	e28d3c89 	add	r3, sp, #35072	; 0x8900
    b72c:	e28330bc 	add	r3, r3, #188	; 0xbc
    b730:	e28d4902 	add	r4, sp, #32768	; 0x8000
    b734:	e58409b8 	str	r0, [r4, #2488]	; 0x9b8
    b738:	e0c310b2 	strh	r1, [r3], #2
    b73c:	e1a01821 	lsr	r1, r1, #16
    b740:	e5c31000 	strb	r1, [r3]
    b744:	ea00008a 	b	b974 <main+0x440>
    b748:	e3500002 	cmp	r0, #2
    b74c:	059fe304 	ldreq	lr, [pc, #772]	; ba58 <main+0x524>
    b750:	0a000020 	beq	b7d8 <main+0x2a4>
    b754:	e3500003 	cmp	r0, #3
    b758:	059f32fc 	ldreq	r3, [pc, #764]	; ba5c <main+0x528>
    b75c:	0a000028 	beq	b804 <main+0x2d0>
    b760:	e3500004 	cmp	r0, #4
    b764:	1a000007 	bne	b788 <main+0x254>
    b768:	e59f32f0 	ldr	r3, [pc, #752]	; ba60 <main+0x52c>
    b76c:	e8930007 	ldm	r3, {r0, r1, r2}
    b770:	e28d3c89 	add	r3, sp, #35072	; 0x8900
    b774:	e28330b8 	add	r3, r3, #184	; 0xb8
    b778:	e8a30003 	stmia	r3!, {r0, r1}
    b77c:	e0c320b2 	strh	r2, [r3], #2
    b780:	e1a02822 	lsr	r2, r2, #16
    b784:	ea000022 	b	b814 <main+0x2e0>
    b788:	e3500005 	cmp	r0, #5
    b78c:	1a000005 	bne	b7a8 <main+0x274>
    b790:	e59f32cc 	ldr	r3, [pc, #716]	; ba64 <main+0x530>
    b794:	e893000f 	ldm	r3, {r0, r1, r2, r3}
    b798:	e28dcc89 	add	ip, sp, #35072	; 0x8900
    b79c:	e28cc0b8 	add	ip, ip, #184	; 0xb8
    b7a0:	e8ac0007 	stmia	ip!, {r0, r1, r2}
    b7a4:	ea000011 	b	b7f0 <main+0x2bc>
    b7a8:	e3500006 	cmp	r0, #6
    b7ac:	1a000006 	bne	b7cc <main+0x298>
    b7b0:	e59f32b0 	ldr	r3, [pc, #688]	; ba68 <main+0x534>
    b7b4:	e8930007 	ldm	r3, {r0, r1, r2}
    b7b8:	e28d3c89 	add	r3, sp, #35072	; 0x8900
    b7bc:	e28330b8 	add	r3, r3, #184	; 0xb8
    b7c0:	e8a30003 	stmia	r3!, {r0, r1}
    b7c4:	e1c320b0 	strh	r2, [r3]
    b7c8:	ea000069 	b	b974 <main+0x440>
    b7cc:	e3500007 	cmp	r0, #7
    b7d0:	1a000008 	bne	b7f8 <main+0x2c4>
    b7d4:	e59fe290 	ldr	lr, [pc, #656]	; ba6c <main+0x538>
    b7d8:	e1a0c00e 	mov	ip, lr
    b7dc:	e8bc000f 	ldm	ip!, {r0, r1, r2, r3}
    b7e0:	e28dcc89 	add	ip, sp, #35072	; 0x8900
    b7e4:	e28cc0b8 	add	ip, ip, #184	; 0xb8
    b7e8:	e8ac000f 	stmia	ip!, {r0, r1, r2, r3}
    b7ec:	e59e3010 	ldr	r3, [lr, #16]
    b7f0:	e5cc3000 	strb	r3, [ip]
    b7f4:	ea00005e 	b	b974 <main+0x440>
    b7f8:	e3500008 	cmp	r0, #8
    b7fc:	1a000006 	bne	b81c <main+0x2e8>
    b800:	e59f323c 	ldr	r3, [pc, #572]	; ba44 <main+0x510>
    b804:	e8930007 	ldm	r3, {r0, r1, r2}
    b808:	e28d3c89 	add	r3, sp, #35072	; 0x8900
    b80c:	e28330b8 	add	r3, r3, #184	; 0xb8
    b810:	e8a30003 	stmia	r3!, {r0, r1}
    b814:	e5c32000 	strb	r2, [r3]
    b818:	ea000055 	b	b974 <main+0x440>
    b81c:	e28dcc89 	add	ip, sp, #35072	; 0x8900
    b820:	e3500009 	cmp	r0, #9
    b824:	e28cc0b8 	add	ip, ip, #184	; 0xb8
    b828:	1a00004a 	bne	b958 <main+0x424>
    b82c:	e59f323c 	ldr	r3, [pc, #572]	; ba70 <main+0x53c>
    b830:	e893000f 	ldm	r3, {r0, r1, r2, r3}
    b834:	e1a0500c 	mov	r5, ip
    b838:	e8a50007 	stmia	r5!, {r0, r1, r2}
    b83c:	e1cc30bc 	strh	r3, [ip, #12]
    b840:	ea00004b 	b	b974 <main+0x440>
    b844:	e5d8e010 	ldrb	lr, [r8, #16]
    b848:	e5d8c00f 	ldrb	ip, [r8, #15]
    b84c:	e2443c11 	sub	r3, r4, #4352	; 0x1100
    b850:	e5d84011 	ldrb	r4, [r8, #17]
    b854:	e5d8200d 	ldrb	r2, [r8, #13]
    b858:	e5d31000 	ldrb	r1, [r3]
    b85c:	e59f022c 	ldr	r0, [pc, #556]	; ba90 <main+0x55c>
    b860:	e5d8300e 	ldrb	r3, [r8, #14]
    b864:	e88d5000 	stm	sp, {ip, lr}
    b868:	e58d4008 	str	r4, [sp, #8]
    b86c:	ebfff73f 	bl	9570 <printf@plt>
    b870:	e5981004 	ldr	r1, [r8, #4]
    b874:	e59f022c 	ldr	r0, [pc, #556]	; baa8 <main+0x574>
    b878:	ebfff73c 	bl	9570 <printf@plt>
    b87c:	e5980014 	ldr	r0, [r8, #20]
    b880:	eb0020b7 	bl	13b64 <__floatsidf>
    b884:	e28f2e3e 	add	r2, pc, #992	; 0x3e0
    b888:	e892000c 	ldm	r2, {r2, r3}
    b88c:	eb0020d2 	bl	13bdc <__muldf3>
    b890:	e1a02001 	mov	r2, r1
    b894:	e1a01000 	mov	r1, r0
    b898:	e59f01f8 	ldr	r0, [pc, #504]	; ba98 <main+0x564>
    b89c:	ebfff733 	bl	9570 <printf@plt>
    b8a0:	e598001c 	ldr	r0, [r8, #28]
    b8a4:	eb0020ae 	bl	13b64 <__floatsidf>
    b8a8:	e28f2fef 	add	r2, pc, #956	; 0x3bc
    b8ac:	e892000c 	ldm	r2, {r2, r3}
    b8b0:	eb0020c9 	bl	13bdc <__muldf3>
    b8b4:	e1a07001 	mov	r7, r1
    b8b8:	e1a06000 	mov	r6, r0
    b8bc:	e5980018 	ldr	r0, [r8, #24]
    b8c0:	eb0020a7 	bl	13b64 <__floatsidf>
    b8c4:	e28f2e3a 	add	r2, pc, #928	; 0x3a0
    b8c8:	e892000c 	ldm	r2, {r2, r3}
    b8cc:	eb0020c2 	bl	13bdc <__muldf3>
    b8d0:	e1a03000 	mov	r3, r0
    b8d4:	e1a05001 	mov	r5, r1
    b8d8:	e1a04000 	mov	r4, r0
    b8dc:	e1a02007 	mov	r2, r7
    b8e0:	e1a01006 	mov	r1, r6
    b8e4:	e59f01b0 	ldr	r0, [pc, #432]	; ba9c <main+0x568>
    b8e8:	e58d5000 	str	r5, [sp]
    b8ec:	ebfff71f 	bl	9570 <printf@plt>
    b8f0:	e59f017c 	ldr	r0, [pc, #380]	; ba74 <main+0x540>
    b8f4:	ebfff71d 	bl	9570 <printf@plt>
    b8f8:	e5981008 	ldr	r1, [r8, #8]
    b8fc:	e59f01a4 	ldr	r0, [pc, #420]	; baa8 <main+0x574>
    b900:	ebfff71a 	bl	9570 <printf@plt>
    b904:	e28d1c89 	add	r1, sp, #35072	; 0x8900
    b908:	e28110ec 	add	r1, r1, #236	; 0xec
    b90c:	e59f0210 	ldr	r0, [pc, #528]	; bb24 <main+0x5f0>
    b910:	ebfff716 	bl	9570 <printf@plt>
    b914:	e28d1c89 	add	r1, sp, #35072	; 0x8900
    b918:	e28110b8 	add	r1, r1, #184	; 0xb8
    b91c:	e59f0200 	ldr	r0, [pc, #512]	; bb24 <main+0x5f0>
    b920:	ebfff712 	bl	9570 <printf@plt>
    b924:	e1a0100b 	mov	r1, fp
    b928:	e59f01f4 	ldr	r0, [pc, #500]	; bb24 <main+0x5f0>
    b92c:	ebfff70f 	bl	9570 <printf@plt>
    b930:	e59d103c 	ldr	r1, [sp, #60]	; 0x3c
    b934:	e59f01e8 	ldr	r0, [pc, #488]	; bb24 <main+0x5f0>
    b938:	ebfff70c 	bl	9570 <printf@plt>
    b93c:	e59f0134 	ldr	r0, [pc, #308]	; ba78 <main+0x544>
    b940:	ebfff70a 	bl	9570 <printf@plt>
    b944:	e59f012c 	ldr	r0, [pc, #300]	; ba78 <main+0x544>
    b948:	ebfff708 	bl	9570 <printf@plt>
    b94c:	e59de038 	ldr	lr, [sp, #56]	; 0x38
    b950:	e59e1000 	ldr	r1, [lr]
    b954:	ea00017a 	b	bf44 <main+0xa10>
    b958:	e59f311c 	ldr	r3, [pc, #284]	; ba7c <main+0x548>
    b95c:	e8930007 	ldm	r3, {r0, r1, r2}
    b960:	e1a0300c 	mov	r3, ip
    b964:	e8a30003 	stmia	r3!, {r0, r1}
    b968:	e1a03822 	lsr	r3, r2, #16
    b96c:	e5cc300a 	strb	r3, [ip, #10]
    b970:	e1cc20b8 	strh	r2, [ip, #8]
    b974:	e5963000 	ldr	r3, [r6]
    b978:	e3530005 	cmp	r3, #5
    b97c:	0a0000fa 	beq	bd6c <main+0x838>
    b980:	e59f00f8 	ldr	r0, [pc, #248]	; ba80 <main+0x54c>
    b984:	ebfff92f 	bl	9e48 <get_cgi>
    b988:	e1a0a000 	mov	sl, r0
    b98c:	e59f00f0 	ldr	r0, [pc, #240]	; ba84 <main+0x550>
    b990:	ebfff92c 	bl	9e48 <get_cgi>
    b994:	e28d4c7a 	add	r4, sp, #31232	; 0x7a00
    b998:	e2844020 	add	r4, r4, #32
    b99c:	e244400c 	sub	r4, r4, #12
    b9a0:	e3a05000 	mov	r5, #0
    b9a4:	e1a01005 	mov	r1, r5
    b9a8:	e59f20d8 	ldr	r2, [pc, #216]	; ba88 <main+0x554>
    b9ac:	e1a07000 	mov	r7, r0
    b9b0:	e1a00004 	mov	r0, r4
    b9b4:	ebfff7c2 	bl	98c4 <memset@plt>
    b9b8:	e1a00004 	mov	r0, r4
    b9bc:	ebfff763 	bl	9750 <wmxapi_get_visible_network@plt>
    b9c0:	e3700001 	cmn	r0, #1
    b9c4:	0a001bc1 	beq	128d0 <main+0x739c>
    b9c8:	e59f30bc 	ldr	r3, [pc, #188]	; ba8c <main+0x558>
    b9cc:	e28d1c8b 	add	r1, sp, #35584	; 0x8b00
    b9d0:	e2811020 	add	r1, r1, #32
    b9d4:	e7916003 	ldr	r6, [r1, r3]
    b9d8:	e1550006 	cmp	r5, r6
    b9dc:	aa001bbb 	bge	128d0 <main+0x739c>
    b9e0:	e1a08004 	mov	r8, r4
    b9e4:	e1a04001 	mov	r4, r1
    b9e8:	e1a0000a 	mov	r0, sl
    b9ec:	ebfff7ea 	bl	999c <atoi@plt>
    b9f0:	e5983004 	ldr	r3, [r8, #4]
    b9f4:	e1500003 	cmp	r0, r3
    b9f8:	e2855001 	add	r5, r5, #1
    b9fc:	e1a00007 	mov	r0, r7
    ba00:	1a000003 	bne	ba14 <main+0x4e0>
    ba04:	ebfff7e4 	bl	999c <atoi@plt>
    ba08:	e5983008 	ldr	r3, [r8, #8]
    ba0c:	e1500003 	cmp	r0, r3
    ba10:	0affff8b 	beq	b844 <main+0x310>
    ba14:	e1550006 	cmp	r5, r6
    ba18:	e284401c 	add	r4, r4, #28
    ba1c:	e288801c 	add	r8, r8, #28
    ba20:	bafffff0 	blt	b9e8 <main+0x4b4>
    ba24:	ea001ba9 	b	128d0 <main+0x739c>
    ba28:	00021850 	andeq	r1, r2, r0, asr r8
    ba2c:	0001451c 	andeq	r4, r1, ip, lsl r5
    ba30:	00014508 	andeq	r4, r1, r8, lsl #10
    ba34:	00014524 	andeq	r4, r1, r4, lsr #10
    ba38:	00014530 	andeq	r4, r1, r0, lsr r5
    ba3c:	00014540 	andeq	r4, r1, r0, asr #10
    ba40:	0001454c 	andeq	r4, r1, ip, asr #10
    ba44:	00014554 	andeq	r4, r1, r4, asr r5
    ba48:	00014560 	andeq	r4, r1, r0, ror #10
    ba4c:	0001456c 	andeq	r4, r1, ip, ror #10
    ba50:	00014578 	andeq	r4, r1, r8, ror r5
    ba54:	00014588 	andeq	r4, r1, r8, lsl #11
    ba58:	00014590 	muleq	r1, r0, r5
    ba5c:	000145a4 	andeq	r4, r1, r4, lsr #11
    ba60:	000145b0 			; <UNDEFINED> instruction: 0x000145b0
    ba64:	000145bc 			; <UNDEFINED> instruction: 0x000145bc
    ba68:	000145cc 	andeq	r4, r1, ip, asr #11
    ba6c:	000145d8 	ldrdeq	r4, [r1], -r8
    ba70:	000145ec 	andeq	r4, r1, ip, ror #11
    ba74:	000145fc 	strdeq	r4, [r1], -ip
    ba78:	00014608 	andeq	r4, r1, r8, lsl #12
    ba7c:	0001460c 	andeq	r4, r1, ip, lsl #12
    ba80:	00014618 	andeq	r4, r1, r8, lsl r6
    ba84:	00014620 	andeq	r4, r1, r0, lsr #12
    ba88:	00000fa4 	andeq	r0, r0, r4, lsr #31
    ba8c:	ffffeef4 			; <UNDEFINED> instruction: 0xffffeef4
    ba90:	00014624 	andeq	r4, r1, r4, lsr #12
    ba94:	ffffeeb8 			; <UNDEFINED> instruction: 0xffffeeb8
    ba98:	00014644 	andeq	r4, r1, r4, asr #12
    ba9c:	0001464c 	andeq	r4, r1, ip, asr #12
    baa0:	00014660 	andeq	r4, r1, r0, ror #12
    baa4:	00014664 	andeq	r4, r1, r4, ror #12
    baa8:	0001466c 	andeq	r4, r1, ip, ror #12
    baac:	0001444c 	andeq	r4, r1, ip, asr #8
    bab0:	00014670 	andeq	r4, r1, r0, ror r6
    bab4:	00014678 	andeq	r4, r1, r8, ror r6
    bab8:	00014770 	andeq	r4, r1, r0, ror r7
    babc:	00014778 	andeq	r4, r1, r8, ror r7
    bac0:	00014790 	muleq	r1, r0, r7
    bac4:	000147a4 	andeq	r4, r1, r4, lsr #15
    bac8:	000147b4 			; <UNDEFINED> instruction: 0x000147b4
    bacc:	000147c8 	andeq	r4, r1, r8, asr #15
    bad0:	000147d8 	ldrdeq	r4, [r1], -r8
    bad4:	000147ec 	andeq	r4, r1, ip, ror #15
    bad8:	000147fc 	strdeq	r4, [r1], -ip
    badc:	00014808 	andeq	r4, r1, r8, lsl #16
    bae0:	00014818 	andeq	r4, r1, r8, lsl r8
    bae4:	00014828 	andeq	r4, r1, r8, lsr #16
    bae8:	00014838 	andeq	r4, r1, r8, lsr r8
    baec:	00014848 	andeq	r4, r1, r8, asr #16
    baf0:	00000152 	andeq	r0, r0, r2, asr r1
    baf4:	00014858 	andeq	r4, r1, r8, asr r8
    baf8:	00014864 	andeq	r4, r1, r4, ror #16
    bafc:	ffffecfc 			; <UNDEFINED> instruction: 0xffffecfc
    bb00:	0001486c 	andeq	r4, r1, ip, ror #16
    bb04:	00014878 	andeq	r4, r1, r8, ror r8
    bb08:	00014884 	andeq	r4, r1, r4, lsl #17
    bb0c:	00019090 	muleq	r1, r0, r0
    bb10:	ffffeb74 			; <UNDEFINED> instruction: 0xffffeb74
    bb14:	ffffeb84 			; <UNDEFINED> instruction: 0xffffeb84
    bb18:	000148dc 	ldrdeq	r4, [r1], -ip
    bb1c:	000190a0 	andeq	r9, r1, r0, lsr #1
    bb20:	ffffeaf8 			; <UNDEFINED> instruction: 0xffffeaf8
    bb24:	00014940 	andeq	r4, r1, r0, asr #18
    bb28:	ffffeb24 			; <UNDEFINED> instruction: 0xffffeb24
    bb2c:	00017cb4 			; <UNDEFINED> instruction: 0x00017cb4
    bb30:	00014944 	andeq	r4, r1, r4, asr #18
    bb34:	00014950 	andeq	r4, r1, r0, asr r9
    bb38:	0001495c 	andeq	r4, r1, ip, asr r9
    bb3c:	00014960 	andeq	r4, r1, r0, ror #18
    bb40:	00014968 	andeq	r4, r1, r8, ror #18
    bb44:	00014978 	andeq	r4, r1, r8, ror r9
    bb48:	000149a4 	andeq	r4, r1, r4, lsr #19
    bb4c:	000149b4 			; <UNDEFINED> instruction: 0x000149b4
    bb50:	000149e4 	andeq	r4, r1, r4, ror #19
    bb54:	000149f8 	strdeq	r4, [r1], -r8
    bb58:	00014a30 	andeq	r4, r1, r0, lsr sl
    bb5c:	00014a40 	andeq	r4, r1, r0, asr #20
    bb60:	00014a70 	andeq	r4, r1, r0, ror sl
    bb64:	00014a7c 	andeq	r4, r1, ip, ror sl
    bb68:	00014aa4 	andeq	r4, r1, r4, lsr #21
    bb6c:	00014ab0 			; <UNDEFINED> instruction: 0x00014ab0
    bb70:	00014ac0 	andeq	r4, r1, r0, asr #21
    bb74:	00014af8 	strdeq	r4, [r1], -r8
    bb78:	00014b0c 	andeq	r4, r1, ip, lsl #22
    bb7c:	00014b3c 	andeq	r4, r1, ip, lsr fp
    bb80:	00014b4c 	andeq	r4, r1, ip, asr #22
    bb84:	00014b74 	andeq	r4, r1, r4, ror fp
    bb88:	00014b7c 	andeq	r4, r1, ip, ror fp
    bb8c:	00014b88 	andeq	r4, r1, r8, lsl #23
    bb90:	000187a0 	andeq	r8, r1, r0, lsr #15
    bb94:	00014bb0 			; <UNDEFINED> instruction: 0x00014bb0
    bb98:	00014bdc 	ldrdeq	r4, [r1], -ip
    bb9c:	00014be8 	andeq	r4, r1, r8, ror #23
    bba0:	00014c18 	andeq	r4, r1, r8, lsl ip
    bba4:	00014c1c 	andeq	r4, r1, ip, lsl ip
    bba8:	00014c28 	andeq	r4, r1, r8, lsr #24
    bbac:	00014c54 	andeq	r4, r1, r4, asr ip
    bbb0:	00014c60 	andeq	r4, r1, r0, ror #24
    bbb4:	00014c84 	andeq	r4, r1, r4, lsl #25
    bbb8:	00014cb0 			; <UNDEFINED> instruction: 0x00014cb0
    bbbc:	00014cc4 	andeq	r4, r1, r4, asr #25
    bbc0:	00014cf8 	strdeq	r4, [r1], -r8
    bbc4:	00014d00 	andeq	r4, r1, r0, lsl #26
    bbc8:	00014d20 	andeq	r4, r1, r0, lsr #26
    bbcc:	00014d30 	andeq	r4, r1, r0, lsr sp
    bbd0:	00014d5c 	andeq	r4, r1, ip, asr sp
    bbd4:	00014d68 	andeq	r4, r1, r8, ror #26
    bbd8:	00014d94 	muleq	r1, r4, sp
    bbdc:	00014d9c 	muleq	r1, ip, sp
    bbe0:	00014dc0 	andeq	r4, r1, r0, asr #27
    bbe4:	00014dd4 	ldrdeq	r4, [r1], -r4	; <UNPREDICTABLE>
    bbe8:	00014e08 	andeq	r4, r1, r8, lsl #28
    bbec:	00014e1c 	andeq	r4, r1, ip, lsl lr
    bbf0:	00014e4c 	andeq	r4, r1, ip, asr #28
    bbf4:	00014e58 	andeq	r4, r1, r8, asr lr
    bbf8:	00014e7c 	andeq	r4, r1, ip, ror lr
    bbfc:	00014e88 	andeq	r4, r1, r8, lsl #29
    bc00:	00014eac 	andeq	r4, r1, ip, lsr #29
    bc04:	00014eb4 			; <UNDEFINED> instruction: 0x00014eb4
    bc08:	00014ec4 	andeq	r4, r1, r4, asr #29
    bc0c:	00014ef4 	strdeq	r4, [r1], -r4	; <UNPREDICTABLE>
    bc10:	00014f04 	andeq	r4, r1, r4, lsl #30
    bc14:	00014f2c 	andeq	r4, r1, ip, lsr #30
    bc18:	00014f3c 	andeq	r4, r1, ip, lsr pc
    bc1c:	00014f64 	andeq	r4, r1, r4, ror #30
    bc20:	00014f70 	andeq	r4, r1, r0, ror pc
    bc24:	00014f98 	muleq	r1, r8, pc	; <UNPREDICTABLE>
    bc28:	00014fa4 	andeq	r4, r1, r4, lsr #31
    bc2c:	00014fc8 	andeq	r4, r1, r8, asr #31
    bc30:	00014fd8 	ldrdeq	r4, [r1], -r8
    bc34:	00015004 	andeq	r5, r1, r4
    bc38:	00015014 	andeq	r5, r1, r4, lsl r0
    bc3c:	00015044 	andeq	r5, r1, r4, asr #32
    bc40:	00015054 	andeq	r5, r1, r4, asr r0
    bc44:	0001507c 	andeq	r5, r1, ip, ror r0
    bc48:	00015084 	andeq	r5, r1, r4, lsl #1
    bc4c:	00015094 	muleq	r1, r4, r0
    bc50:	000150c0 	andeq	r5, r1, r0, asr #1
    bc54:	000150d0 	ldrdeq	r5, [r1], -r0
    bc58:	00015104 	andeq	r5, r1, r4, lsl #2
    bc5c:	00015108 	andeq	r5, r1, r8, lsl #2
    bc60:	00015114 	andeq	r5, r1, r4, lsl r1
    bc64:	0001512c 	andeq	r5, r1, ip, lsr #2
    bc68:	0001908c 	andeq	r9, r1, ip, lsl #1
    bc6c:	3f800000 	svccc	0x00800000
    bc70:	00000000 	andeq	r0, r0, r0
    bc74:	00015144 	andeq	r5, r1, r4, asr #2
    bc78:	0002196a 	andeq	r1, r2, sl, ror #18
    bc7c:	000187ac 	andeq	r8, r1, ip, lsr #15
    bc80:	0001514c 	andeq	r5, r1, ip, asr #2
    bc84:	00015164 	andeq	r5, r1, r4, ror #2
    bc88:	00001fa0 	andeq	r1, r0, r0, lsr #31
    bc8c:	00015178 	andeq	r5, r1, r8, ror r1
    bc90:	00015180 	andeq	r5, r1, r0, lsl #3
    bc94:	00015198 	muleq	r1, r8, r1
    bc98:	000151a0 	andeq	r5, r1, r0, lsr #3
    bc9c:	000151a8 	andeq	r5, r1, r8, lsr #3
    bca0:	000151d4 	ldrdeq	r5, [r1], -r4
    bca4:	000151e4 	andeq	r5, r1, r4, ror #3
    bca8:	00015218 	andeq	r5, r1, r8, lsl r2
    bcac:	00015228 	andeq	r5, r1, r8, lsr #4
    bcb0:	0001525c 	andeq	r5, r1, ip, asr r2
    bcb4:	0001526c 	andeq	r5, r1, ip, ror #4
    bcb8:	000152a0 	andeq	r5, r1, r0, lsr #5
    bcbc:	000152b0 			; <UNDEFINED> instruction: 0x000152b0
    bcc0:	000190cc 	andeq	r9, r1, ip, asr #1
    bcc4:	000152cc 	andeq	r5, r1, ip, asr #5
    bcc8:	ffffeac4 			; <UNDEFINED> instruction: 0xffffeac4
    bccc:	000152dc 	ldrdeq	r5, [r1], -ip
    bcd0:	000152ec 	andeq	r5, r1, ip, ror #5
    bcd4:	000152f4 	strdeq	r5, [r1], -r4
    bcd8:	00015778 	andeq	r5, r1, r8, ror r7
    bcdc:	000152fc 	strdeq	r5, [r1], -ip
    bce0:	00015314 	andeq	r5, r1, r4, lsl r3
    bce4:	00015324 	andeq	r5, r1, r4, lsr #6
    bce8:	0001532c 	andeq	r5, r1, ip, lsr #6
    bcec:	00015340 	andeq	r5, r1, r0, asr #6
    bcf0:	00015348 	andeq	r5, r1, r8, asr #6
    bcf4:	00015358 	andeq	r5, r1, r8, asr r3
    bcf8:	00015368 	andeq	r5, r1, r8, ror #6
    bcfc:	0001537c 	andeq	r5, r1, ip, ror r3
    bd00:	00015388 	andeq	r5, r1, r8, lsl #7
    bd04:	0001586c 	andeq	r5, r1, ip, ror #16
    bd08:	00015398 	muleq	r1, r8, r3
    bd0c:	000153b0 			; <UNDEFINED> instruction: 0x000153b0
    bd10:	000153cc 	andeq	r5, r1, ip, asr #7
    bd14:	000156f0 	strdeq	r5, [r1], -r0
    bd18:	000153d4 	ldrdeq	r5, [r1], -r4
    bd1c:	000153f8 	strdeq	r5, [r1], -r8
    bd20:	00015410 	andeq	r5, r1, r0, lsl r4
    bd24:	00015430 	andeq	r5, r1, r0, lsr r4
    bd28:	00015450 	andeq	r5, r1, r0, asr r4
    bd2c:	0001545c 	andeq	r5, r1, ip, asr r4
    bd30:	00015484 	andeq	r5, r1, r4, lsl #9
    bd34:	00015494 	muleq	r1, r4, r4
    bd38:	0001549c 	muleq	r1, ip, r4
    bd3c:	000154b0 			; <UNDEFINED> instruction: 0x000154b0
    bd40:	000154c4 	andeq	r5, r1, r4, asr #9
    bd44:	000154d4 	ldrdeq	r5, [r1], -r4
    bd48:	000154e0 	andeq	r5, r1, r0, ror #9
    bd4c:	000154f0 	strdeq	r5, [r1], -r0
    bd50:	000154fc 	strdeq	r5, [r1], -ip
    bd54:	0001574c 	andeq	r5, r1, ip, asr #14
    bd58:	0001550c 	andeq	r5, r1, ip, lsl #10
    bd5c:	0001551c 	andeq	r5, r1, ip, lsl r5
    bd60:	0001552c 	andeq	r5, r1, ip, lsr #10
    bd64:	00015540 	andeq	r5, r1, r0, asr #10
    bd68:	0001554c 	andeq	r5, r1, ip, asr #10
    bd6c:	e28dac7a 	add	sl, sp, #31232	; 0x7a00
    bd70:	e28aa020 	add	sl, sl, #32
    bd74:	e28d8c79 	add	r8, sp, #30976	; 0x7900
    bd78:	e24aa02c 	sub	sl, sl, #44	; 0x2c
    bd7c:	e28880e0 	add	r8, r8, #224	; 0xe0
    bd80:	e3a01000 	mov	r1, #0
    bd84:	e3a02020 	mov	r2, #32
    bd88:	e2488008 	sub	r8, r8, #8
    bd8c:	e1a0000a 	mov	r0, sl
    bd90:	e28d9c79 	add	r9, sp, #30976	; 0x7900
    bd94:	ebfff6ca 	bl	98c4 <memset@plt>
    bd98:	e28990a0 	add	r9, r9, #160	; 0xa0
    bd9c:	e3a01000 	mov	r1, #0
    bda0:	e3a0201c 	mov	r2, #28
    bda4:	e1a00008 	mov	r0, r8
    bda8:	ebfff6c5 	bl	98c4 <memset@plt>
    bdac:	e3a01000 	mov	r1, #0
    bdb0:	e3a02038 	mov	r2, #56	; 0x38
    bdb4:	e1a00009 	mov	r0, r9
    bdb8:	ebfff6c1 	bl	98c4 <memset@plt>
    bdbc:	e1a0000a 	mov	r0, sl
    bdc0:	ebfff707 	bl	99e4 <wmxapi_get_link_status@plt>
    bdc4:	e3700001 	cmn	r0, #1
    bdc8:	0a001ac0 	beq	128d0 <main+0x739c>
    bdcc:	e1a00008 	mov	r0, r8
    bdd0:	ebfff5ef 	bl	9594 <wmxapi_get_bs_info@plt>
    bdd4:	e3700001 	cmn	r0, #1
    bdd8:	0a001abc 	beq	128d0 <main+0x739c>
    bddc:	e1a00009 	mov	r0, r9
    bde0:	ebfff67e 	bl	97e0 <wmxapi_get_link_statistics@plt>
    bde4:	e3700001 	cmn	r0, #1
    bde8:	0a001ab8 	beq	128d0 <main+0x739c>
    bdec:	e28d3c79 	add	r3, sp, #30976	; 0x7900
    bdf0:	e5d8c00b 	ldrb	ip, [r8, #11]
    bdf4:	e5d8e00c 	ldrb	lr, [r8, #12]
    bdf8:	e5d8400d 	ldrb	r4, [r8, #13]
    bdfc:	e28330e0 	add	r3, r3, #224	; 0xe0
    be00:	e5d31000 	ldrb	r1, [r3]
    be04:	e5d82009 	ldrb	r2, [r8, #9]
    be08:	e5d8300a 	ldrb	r3, [r8, #10]
    be0c:	e51f0384 	ldr	r0, [pc, #-900]	; ba90 <main+0x55c>
    be10:	e88d5000 	stm	sp, {ip, lr}
    be14:	e58d4008 	str	r4, [sp, #8]
    be18:	ebfff5d4 	bl	9570 <printf@plt>
    be1c:	e51f3390 	ldr	r3, [pc, #-912]	; ba94 <main+0x560>
    be20:	e28d2c8b 	add	r2, sp, #35584	; 0x8b00
    be24:	e2822020 	add	r2, r2, #32
    be28:	e7921003 	ldr	r1, [r2, r3]
    be2c:	e51f038c 	ldr	r0, [pc, #-908]	; baa8 <main+0x574>
    be30:	ebfff5ce 	bl	9570 <printf@plt>
    be34:	e5980010 	ldr	r0, [r8, #16]
    be38:	eb001f49 	bl	13b64 <__floatsidf>
    be3c:	e24f2f76 	sub	r2, pc, #472	; 0x1d8
    be40:	e892000c 	ldm	r2, {r2, r3}
    be44:	eb001f64 	bl	13bdc <__muldf3>
    be48:	e1a02001 	mov	r2, r1
    be4c:	e1a01000 	mov	r1, r0
    be50:	e51f03c0 	ldr	r0, [pc, #-960]	; ba98 <main+0x564>
    be54:	ebfff5c5 	bl	9570 <printf@plt>
    be58:	e59a0004 	ldr	r0, [sl, #4]
    be5c:	eb001f40 	bl	13b64 <__floatsidf>
    be60:	e24f2f7f 	sub	r2, pc, #508	; 0x1fc
    be64:	e892000c 	ldm	r2, {r2, r3}
    be68:	eb001f5b 	bl	13bdc <__muldf3>
    be6c:	e1a07001 	mov	r7, r1
    be70:	e1a06000 	mov	r6, r0
    be74:	e59a001c 	ldr	r0, [sl, #28]
    be78:	eb001f39 	bl	13b64 <__floatsidf>
    be7c:	e24f2f86 	sub	r2, pc, #536	; 0x218
    be80:	e892000c 	ldm	r2, {r2, r3}
    be84:	eb001f54 	bl	13bdc <__muldf3>
    be88:	e1a03000 	mov	r3, r0
    be8c:	e1a05001 	mov	r5, r1
    be90:	e1a04000 	mov	r4, r0
    be94:	e1a02007 	mov	r2, r7
    be98:	e1a01006 	mov	r1, r6
    be9c:	e51f0408 	ldr	r0, [pc, #-1032]	; ba9c <main+0x568>
    bea0:	e58d5000 	str	r5, [sp]
    bea4:	ebfff5b1 	bl	9570 <printf@plt>
    bea8:	e5981018 	ldr	r1, [r8, #24]
    beac:	e51f0414 	ldr	r0, [pc, #-1044]	; baa0 <main+0x56c>
    beb0:	ebfff5ae 	bl	9570 <printf@plt>
    beb4:	e2893008 	add	r3, r9, #8
    beb8:	e8930006 	ldm	r3, {r1, r2}
    bebc:	e51f0420 	ldr	r0, [pc, #-1056]	; baa4 <main+0x570>
    bec0:	ebfff5aa 	bl	9570 <printf@plt>
    bec4:	e2893010 	add	r3, r9, #16
    bec8:	e8930006 	ldm	r3, {r1, r2}
    becc:	e51f0430 	ldr	r0, [pc, #-1072]	; baa4 <main+0x570>
    bed0:	ebfff5a6 	bl	9570 <printf@plt>
    bed4:	e59a100c 	ldr	r1, [sl, #12]
    bed8:	e51f0438 	ldr	r0, [pc, #-1080]	; baa8 <main+0x574>
    bedc:	ebfff5a3 	bl	9570 <printf@plt>
    bee0:	e5981004 	ldr	r1, [r8, #4]
    bee4:	e51f0444 	ldr	r0, [pc, #-1092]	; baa8 <main+0x574>
    bee8:	ebfff5a0 	bl	9570 <printf@plt>
    beec:	e28d1c89 	add	r1, sp, #35072	; 0x8900
    bef0:	e28110ec 	add	r1, r1, #236	; 0xec
    bef4:	e51f03d8 	ldr	r0, [pc, #-984]	; bb24 <main+0x5f0>
    bef8:	ebfff59c 	bl	9570 <printf@plt>
    befc:	e28d1c89 	add	r1, sp, #35072	; 0x8900
    bf00:	e28110b8 	add	r1, r1, #184	; 0xb8
    bf04:	e51f03e8 	ldr	r0, [pc, #-1000]	; bb24 <main+0x5f0>
    bf08:	ebfff598 	bl	9570 <printf@plt>
    bf0c:	e1a0100b 	mov	r1, fp
    bf10:	e51f03f4 	ldr	r0, [pc, #-1012]	; bb24 <main+0x5f0>
    bf14:	ebfff595 	bl	9570 <printf@plt>
    bf18:	e59d103c 	ldr	r1, [sp, #60]	; 0x3c
    bf1c:	e51f0400 	ldr	r0, [pc, #-1024]	; bb24 <main+0x5f0>
    bf20:	ebfff592 	bl	9570 <printf@plt>
    bf24:	e5991018 	ldr	r1, [r9, #24]
    bf28:	e51f0488 	ldr	r0, [pc, #-1160]	; baa8 <main+0x574>
    bf2c:	ebfff58f 	bl	9570 <printf@plt>
    bf30:	e599101c 	ldr	r1, [r9, #28]
    bf34:	e51f0494 	ldr	r0, [pc, #-1172]	; baa8 <main+0x574>
    bf38:	ebfff58c 	bl	9570 <printf@plt>
    bf3c:	e59d3038 	ldr	r3, [sp, #56]	; 0x38
    bf40:	e5931000 	ldr	r1, [r3]
    bf44:	e51f04a0 	ldr	r0, [pc, #-1184]	; baac <main+0x578>
    bf48:	e28d4b1e 	add	r4, sp, #30720	; 0x7800
    bf4c:	ebfff587 	bl	9570 <printf@plt>
    bf50:	e2844020 	add	r4, r4, #32
    bf54:	e1a0000b 	mov	r0, fp
    bf58:	ebfff6b6 	bl	9a38 <free@plt>
    bf5c:	e2444004 	sub	r4, r4, #4
    bf60:	e59d003c 	ldr	r0, [sp, #60]	; 0x3c
    bf64:	ebfff6b3 	bl	9a38 <free@plt>
    bf68:	e3a01000 	mov	r1, #0
    bf6c:	e3a02f61 	mov	r2, #388	; 0x184
    bf70:	e1a00004 	mov	r0, r4
    bf74:	ebfff652 	bl	98c4 <memset@plt>
    bf78:	e1a00004 	mov	r0, r4
    bf7c:	ebfff596 	bl	95dc <wmxapi_get_sf_list@plt>
    bf80:	e3700001 	cmn	r0, #1
    bf84:	051f04dc 	ldreq	r0, [pc, #-1244]	; bab0 <main+0x57c>
    bf88:	0a00005d 	beq	c104 <main+0xbd0>
    bf8c:	e51f04e0 	ldr	r0, [pc, #-1248]	; bab4 <main+0x580>
    bf90:	ebfff5af 	bl	9654 <puts@plt>
    bf94:	e28d4c8b 	add	r4, sp, #35584	; 0x8b00
    bf98:	e51f34a4 	ldr	r3, [pc, #-1188]	; bafc <main+0x5c8>
    bf9c:	e2844020 	add	r4, r4, #32
    bfa0:	e7943003 	ldr	r3, [r4, r3]
    bfa4:	e3a05000 	mov	r5, #0
    bfa8:	e1550003 	cmp	r5, r3
    bfac:	2a000053 	bcs	c100 <main+0xbcc>
    bfb0:	e28d6b1e 	add	r6, sp, #30720	; 0x7800
    bfb4:	e2866020 	add	r6, r6, #32
    bfb8:	e28d4c76 	add	r4, sp, #30208	; 0x7600
    bfbc:	e28440e0 	add	r4, r4, #224	; 0xe0
    bfc0:	e2444030 	sub	r4, r4, #48	; 0x30
    bfc4:	e3a01000 	mov	r1, #0
    bfc8:	e3a02f5b 	mov	r2, #364	; 0x16c
    bfcc:	e1a00004 	mov	r0, r4
    bfd0:	ebfff63b 	bl	98c4 <memset@plt>
    bfd4:	e496000c 	ldr	r0, [r6], #12
    bfd8:	e1a01004 	mov	r1, r4
    bfdc:	ebfff5ba 	bl	96cc <wmxapi_get_sf_info@plt>
    bfe0:	e3500000 	cmp	r0, #0
    bfe4:	1a00003e 	bne	c0e4 <main+0xbb0>
    bfe8:	e51f0538 	ldr	r0, [pc, #-1336]	; bab8 <main+0x584>
    bfec:	ebfff55f 	bl	9570 <printf@plt>
    bff0:	e594100c 	ldr	r1, [r4, #12]
    bff4:	e51f0508 	ldr	r0, [pc, #-1288]	; baf4 <main+0x5c0>
    bff8:	ebfff55c 	bl	9570 <printf@plt>
    bffc:	e51f0510 	ldr	r0, [pc, #-1296]	; baf4 <main+0x5c0>
    c000:	e5941010 	ldr	r1, [r4, #16]
    c004:	ebfff559 	bl	9570 <printf@plt>
    c008:	e5943100 	ldr	r3, [r4, #256]	; 0x100
    c00c:	e3530000 	cmp	r3, #0
    c010:	051f055c 	ldreq	r0, [pc, #-1372]	; babc <main+0x588>
    c014:	0a000008 	beq	c03c <main+0xb08>
    c018:	e3530001 	cmp	r3, #1
    c01c:	051f0564 	ldreq	r0, [pc, #-1380]	; bac0 <main+0x58c>
    c020:	0a000005 	beq	c03c <main+0xb08>
    c024:	e3530002 	cmp	r3, #2
    c028:	051f056c 	ldreq	r0, [pc, #-1388]	; bac4 <main+0x590>
    c02c:	0a000002 	beq	c03c <main+0xb08>
    c030:	e3530003 	cmp	r3, #3
    c034:	051f0574 	ldreq	r0, [pc, #-1396]	; bac8 <main+0x594>
    c038:	151f0554 	ldrne	r0, [pc, #-1364]	; baec <main+0x5b8>
    c03c:	ebfff54b 	bl	9570 <printf@plt>
    c040:	e5943008 	ldr	r3, [r4, #8]
    c044:	e3530000 	cmp	r3, #0
    c048:	051f0584 	ldreq	r0, [pc, #-1412]	; bacc <main+0x598>
    c04c:	0a000002 	beq	c05c <main+0xb28>
    c050:	e3530001 	cmp	r3, #1
    c054:	051f058c 	ldreq	r0, [pc, #-1420]	; bad0 <main+0x59c>
    c058:	151f0574 	ldrne	r0, [pc, #-1396]	; baec <main+0x5b8>
    c05c:	ebfff543 	bl	9570 <printf@plt>
    c060:	e5943120 	ldr	r3, [r4, #288]	; 0x120
    c064:	e3530001 	cmp	r3, #1
    c068:	051f059c 	ldreq	r0, [pc, #-1436]	; bad4 <main+0x5a0>
    c06c:	0a00000e 	beq	c0ac <main+0xb78>
    c070:	e3530002 	cmp	r3, #2
    c074:	051f05a4 	ldreq	r0, [pc, #-1444]	; bad8 <main+0x5a4>
    c078:	0a00000b 	beq	c0ac <main+0xb78>
    c07c:	e3530003 	cmp	r3, #3
    c080:	051f05ac 	ldreq	r0, [pc, #-1452]	; badc <main+0x5a8>
    c084:	0a000008 	beq	c0ac <main+0xb78>
    c088:	e3530004 	cmp	r3, #4
    c08c:	051f05b4 	ldreq	r0, [pc, #-1460]	; bae0 <main+0x5ac>
    c090:	0a000005 	beq	c0ac <main+0xb78>
    c094:	e3530005 	cmp	r3, #5
    c098:	051f05bc 	ldreq	r0, [pc, #-1468]	; bae4 <main+0x5b0>
    c09c:	0a000002 	beq	c0ac <main+0xb78>
    c0a0:	e3530006 	cmp	r3, #6
    c0a4:	051f05c4 	ldreq	r0, [pc, #-1476]	; bae8 <main+0x5b4>
    c0a8:	151f05c4 	ldrne	r0, [pc, #-1476]	; baec <main+0x5b8>
    c0ac:	ebfff52f 	bl	9570 <printf@plt>
    c0b0:	e594109c 	ldr	r1, [r4, #156]	; 0x9c
    c0b4:	e51f05c8 	ldr	r0, [pc, #-1480]	; baf4 <main+0x5c0>
    c0b8:	ebfff52c 	bl	9570 <printf@plt>
    c0bc:	e2843f4b 	add	r3, r4, #300	; 0x12c
    c0c0:	e5d31000 	ldrb	r1, [r3]
    c0c4:	e51f05d8 	ldr	r0, [pc, #-1496]	; baf4 <main+0x5c0>
    c0c8:	ebfff528 	bl	9570 <printf@plt>
    c0cc:	e51f35e4 	ldr	r3, [pc, #-1508]	; baf0 <main+0x5bc>
    c0d0:	e51f05e4 	ldr	r0, [pc, #-1508]	; baf4 <main+0x5c0>
    c0d4:	e7d41003 	ldrb	r1, [r4, r3]
    c0d8:	ebfff524 	bl	9570 <printf@plt>
    c0dc:	e51f05ec 	ldr	r0, [pc, #-1516]	; baf8 <main+0x5c4>
    c0e0:	ebfff522 	bl	9570 <printf@plt>
    c0e4:	e51f35f0 	ldr	r3, [pc, #-1520]	; bafc <main+0x5c8>
    c0e8:	e28dec8b 	add	lr, sp, #35584	; 0x8b00
    c0ec:	e28ee020 	add	lr, lr, #32
    c0f0:	e79e3003 	ldr	r3, [lr, r3]
    c0f4:	e2855001 	add	r5, r5, #1
    c0f8:	e1550003 	cmp	r5, r3
    c0fc:	3affffad 	bcc	bfb8 <main+0xa84>
    c100:	e51f0608 	ldr	r0, [pc, #-1544]	; bb00 <main+0x5cc>
    c104:	e28d4e12 	add	r4, sp, #288	; 0x120
    c108:	ebfff518 	bl	9570 <printf@plt>
    c10c:	e244401c 	sub	r4, r4, #28
    c110:	e3a0003b 	mov	r0, #59	; 0x3b
    c114:	ebfff509 	bl	9540 <putchar@plt>
    c118:	e51f061c 	ldr	r0, [pc, #-1564]	; bb04 <main+0x5d0>
    c11c:	e1a01004 	mov	r1, r4
    c120:	ebfff536 	bl	9600 <sncfg_get@plt>
    c124:	e3500001 	cmp	r0, #1
    c128:	0a000002 	beq	c138 <main+0xc04>
    c12c:	e5943000 	ldr	r3, [r4]
    c130:	e3530000 	cmp	r3, #0
    c134:	1a000004 	bne	c14c <main+0xc18>
    c138:	e3a00001 	mov	r0, #1
    c13c:	ebfff550 	bl	9684 <malloc@plt>
    c140:	e3a03000 	mov	r3, #0
    c144:	e5c03000 	strb	r3, [r0]
    c148:	e5840000 	str	r0, [r4]
    c14c:	e28d3e12 	add	r3, sp, #288	; 0x120
    c150:	e243301c 	sub	r3, r3, #28
    c154:	e5931000 	ldr	r1, [r3]
    c158:	e51f04f8 	ldr	r0, [pc, #-1272]	; bc68 <main+0x734>
    c15c:	ebfff503 	bl	9570 <printf@plt>
    c160:	ea0019da 	b	128d0 <main+0x739c>
    c164:	e1a00005 	mov	r0, r5
    c168:	e51f1668 	ldr	r1, [pc, #-1640]	; bb08 <main+0x5d4>
    c16c:	ebfff5e6 	bl	990c <strcmp@plt>
    c170:	e2504000 	subs	r4, r0, #0
    c174:	1a000039 	bne	c260 <main+0xd2c>
    c178:	e51f0464 	ldr	r0, [pc, #-1124]	; bd1c <main+0x7e8>
    c17c:	ebfff534 	bl	9654 <puts@plt>
    c180:	ebfffaa8 	bl	ac28 <print_signal>
    c184:	e3a0003b 	mov	r0, #59	; 0x3b
    c188:	ebfff4ec 	bl	9540 <putchar@plt>
    c18c:	e51f3688 	ldr	r3, [pc, #-1672]	; bb0c <main+0x5d8>
    c190:	e28dcc76 	add	ip, sp, #30208	; 0x7600
    c194:	e893000f 	ldm	r3, {r0, r1, r2, r3}
    c198:	e28cc0a0 	add	ip, ip, #160	; 0xa0
    c19c:	e24cc00c 	sub	ip, ip, #12
    c1a0:	e88c000f 	stm	ip, {r0, r1, r2, r3}
    c1a4:	e51f269c 	ldr	r2, [pc, #-1692]	; bb10 <main+0x5dc>
    c1a8:	e28d1c8b 	add	r1, sp, #35584	; 0x8b00
    c1ac:	e2811020 	add	r1, r1, #32
    c1b0:	e7913002 	ldr	r3, [r1, r2]
    c1b4:	e3530000 	cmp	r3, #0
    c1b8:	0a000018 	beq	c220 <main+0xcec>
    c1bc:	e1a05004 	mov	r5, r4
    c1c0:	e1a04001 	mov	r4, r1
    c1c4:	e28d1c76 	add	r1, sp, #30208	; 0x7600
    c1c8:	e28110e0 	add	r1, r1, #224	; 0xe0
    c1cc:	e241103c 	sub	r1, r1, #60	; 0x3c
    c1d0:	e0811005 	add	r1, r1, r5
    c1d4:	e7940002 	ldr	r0, [r4, r2]
    c1d8:	ebfff508 	bl	9600 <sncfg_get@plt>
    c1dc:	e3500001 	cmp	r0, #1
    c1e0:	e2855004 	add	r5, r5, #4
    c1e4:	e3a00001 	mov	r0, #1
    c1e8:	e51f66dc 	ldr	r6, [pc, #-1756]	; bb14 <main+0x5e0>
    c1ec:	0a000002 	beq	c1fc <main+0xcc8>
    c1f0:	e7943006 	ldr	r3, [r4, r6]
    c1f4:	e3530000 	cmp	r3, #0
    c1f8:	1a000003 	bne	c20c <main+0xcd8>
    c1fc:	ebfff520 	bl	9684 <malloc@plt>
    c200:	e3a03000 	mov	r3, #0
    c204:	e5c03000 	strb	r3, [r0]
    c208:	e7840006 	str	r0, [r4, r6]
    c20c:	e51f2704 	ldr	r2, [pc, #-1796]	; bb10 <main+0x5dc>
    c210:	e2844004 	add	r4, r4, #4
    c214:	e7943002 	ldr	r3, [r4, r2]
    c218:	e3530000 	cmp	r3, #0
    c21c:	1affffe8 	bne	c1c4 <main+0xc90>
    c220:	e51f3714 	ldr	r3, [pc, #-1812]	; bb14 <main+0x5e0>
    c224:	e28d4c76 	add	r4, sp, #30208	; 0x7600
    c228:	e28d2c8b 	add	r2, sp, #35584	; 0x8b00
    c22c:	e2822020 	add	r2, r2, #32
    c230:	e28440e0 	add	r4, r4, #224	; 0xe0
    c234:	e7921003 	ldr	r1, [r2, r3]
    c238:	e244403c 	sub	r4, r4, #60	; 0x3c
    c23c:	e51f0720 	ldr	r0, [pc, #-1824]	; bb24 <main+0x5f0>
    c240:	ebfff4ca 	bl	9570 <printf@plt>
    c244:	e5941004 	ldr	r1, [r4, #4]
    c248:	e51f072c 	ldr	r0, [pc, #-1836]	; bb24 <main+0x5f0>
    c24c:	ebfff4c7 	bl	9570 <printf@plt>
    c250:	e5941008 	ldr	r1, [r4, #8]
    c254:	e51f05f4 	ldr	r0, [pc, #-1524]	; bc68 <main+0x734>
    c258:	ebfff4c4 	bl	9570 <printf@plt>
    c25c:	ea00199b 	b	128d0 <main+0x739c>
    c260:	e1a00005 	mov	r0, r5
    c264:	e51f1754 	ldr	r1, [pc, #-1876]	; bb18 <main+0x5e4>
    c268:	ebfff5a7 	bl	990c <strcmp@plt>
    c26c:	e2504000 	subs	r4, r0, #0
    c270:	1a00007f 	bne	c474 <main+0xf40>
    c274:	e51f0560 	ldr	r0, [pc, #-1376]	; bd1c <main+0x7e8>
    c278:	ebfff4f5 	bl	9654 <puts@plt>
    c27c:	ebfffa69 	bl	ac28 <print_signal>
    c280:	e3a0003b 	mov	r0, #59	; 0x3b
    c284:	ebfff4ad 	bl	9540 <putchar@plt>
    c288:	e51f3774 	ldr	r3, [pc, #-1908]	; bb1c <main+0x5e8>
    c28c:	e28dcc76 	add	ip, sp, #30208	; 0x7600
    c290:	e1a0e003 	mov	lr, r3
    c294:	e8be000f 	ldm	lr!, {r0, r1, r2, r3}
    c298:	e28cc020 	add	ip, ip, #32
    c29c:	e24cc008 	sub	ip, ip, #8
    c2a0:	e8ac000f 	stmia	ip!, {r0, r1, r2, r3}
    c2a4:	e8be000f 	ldm	lr!, {r0, r1, r2, r3}
    c2a8:	e8ac000f 	stmia	ip!, {r0, r1, r2, r3}
    c2ac:	e89e0007 	ldm	lr, {r0, r1, r2}
    c2b0:	e88c0007 	stm	ip, {r0, r1, r2}
    c2b4:	e28d5c8b 	add	r5, sp, #35584	; 0x8b00
    c2b8:	e51f27a0 	ldr	r2, [pc, #-1952]	; bb20 <main+0x5ec>
    c2bc:	e2855020 	add	r5, r5, #32
    c2c0:	e7953002 	ldr	r3, [r5, r2]
    c2c4:	e3530000 	cmp	r3, #0
    c2c8:	0a000019 	beq	c334 <main+0xe00>
    c2cc:	e1a05004 	mov	r5, r4
    c2d0:	e28d4c8b 	add	r4, sp, #35584	; 0x8b00
    c2d4:	e2844020 	add	r4, r4, #32
    c2d8:	e28d1c76 	add	r1, sp, #30208	; 0x7600
    c2dc:	e2811060 	add	r1, r1, #96	; 0x60
    c2e0:	e241101c 	sub	r1, r1, #28
    c2e4:	e0811005 	add	r1, r1, r5
    c2e8:	e7940002 	ldr	r0, [r4, r2]
    c2ec:	ebfff4c3 	bl	9600 <sncfg_get@plt>
    c2f0:	e3500001 	cmp	r0, #1
    c2f4:	e2855004 	add	r5, r5, #4
    c2f8:	e3a00001 	mov	r0, #1
    c2fc:	e51f67dc 	ldr	r6, [pc, #-2012]	; bb28 <main+0x5f4>
    c300:	0a000002 	beq	c310 <main+0xddc>
    c304:	e7943006 	ldr	r3, [r4, r6]
    c308:	e3530000 	cmp	r3, #0
    c30c:	1a000003 	bne	c320 <main+0xdec>
    c310:	ebfff4db 	bl	9684 <malloc@plt>
    c314:	e3a03000 	mov	r3, #0
    c318:	e5c03000 	strb	r3, [r0]
    c31c:	e7840006 	str	r0, [r4, r6]
    c320:	e51f2808 	ldr	r2, [pc, #-2056]	; bb20 <main+0x5ec>
    c324:	e2844004 	add	r4, r4, #4
    c328:	e7943002 	ldr	r3, [r4, r2]
    c32c:	e3530000 	cmp	r3, #0
    c330:	1affffe8 	bne	c2d8 <main+0xda4>
    c334:	e28d4c76 	add	r4, sp, #30208	; 0x7600
    c338:	e2844060 	add	r4, r4, #96	; 0x60
    c33c:	e244401c 	sub	r4, r4, #28
    c340:	e5941004 	ldr	r1, [r4, #4]
    c344:	e51f0828 	ldr	r0, [pc, #-2088]	; bb24 <main+0x5f0>
    c348:	ebfff488 	bl	9570 <printf@plt>
    c34c:	e5941008 	ldr	r1, [r4, #8]
    c350:	e51f0834 	ldr	r0, [pc, #-2100]	; bb24 <main+0x5f0>
    c354:	ebfff485 	bl	9570 <printf@plt>
    c358:	e594100c 	ldr	r1, [r4, #12]
    c35c:	e51f0840 	ldr	r0, [pc, #-2112]	; bb24 <main+0x5f0>
    c360:	ebfff482 	bl	9570 <printf@plt>
    c364:	e5941010 	ldr	r1, [r4, #16]
    c368:	e51f084c 	ldr	r0, [pc, #-2124]	; bb24 <main+0x5f0>
    c36c:	ebfff47f 	bl	9570 <printf@plt>
    c370:	e51f3850 	ldr	r3, [pc, #-2128]	; bb28 <main+0x5f4>
    c374:	e28dec8b 	add	lr, sp, #35584	; 0x8b00
    c378:	e28ee020 	add	lr, lr, #32
    c37c:	e79e0003 	ldr	r0, [lr, r3]
    c380:	e51f185c 	ldr	r1, [pc, #-2140]	; bb2c <main+0x5f8>
    c384:	ebfff560 	bl	990c <strcmp@plt>
    c388:	e3500000 	cmp	r0, #0
    c38c:	1a000003 	bne	c3a0 <main+0xe6c>
    c390:	e5941014 	ldr	r1, [r4, #20]
    c394:	e51f0878 	ldr	r0, [pc, #-2168]	; bb24 <main+0x5f0>
    c398:	ebfff474 	bl	9570 <printf@plt>
    c39c:	ea000001 	b	c3a8 <main+0xe74>
    c3a0:	e3a0003b 	mov	r0, #59	; 0x3b
    c3a4:	ebfff465 	bl	9540 <putchar@plt>
    c3a8:	e51f3888 	ldr	r3, [pc, #-2184]	; bb28 <main+0x5f4>
    c3ac:	e28d1c8b 	add	r1, sp, #35584	; 0x8b00
    c3b0:	e2811020 	add	r1, r1, #32
    c3b4:	e7910003 	ldr	r0, [r1, r3]
    c3b8:	e51f1894 	ldr	r1, [pc, #-2196]	; bb2c <main+0x5f8>
    c3bc:	ebfff552 	bl	990c <strcmp@plt>
    c3c0:	e3500000 	cmp	r0, #0
    c3c4:	1a000003 	bne	c3d8 <main+0xea4>
    c3c8:	e5941018 	ldr	r1, [r4, #24]
    c3cc:	e51f08b0 	ldr	r0, [pc, #-2224]	; bb24 <main+0x5f0>
    c3d0:	ebfff466 	bl	9570 <printf@plt>
    c3d4:	ea000001 	b	c3e0 <main+0xeac>
    c3d8:	e3a0003b 	mov	r0, #59	; 0x3b
    c3dc:	ebfff457 	bl	9540 <putchar@plt>
    c3e0:	e51f38c0 	ldr	r3, [pc, #-2240]	; bb28 <main+0x5f4>
    c3e4:	e28d2c8b 	add	r2, sp, #35584	; 0x8b00
    c3e8:	e2822020 	add	r2, r2, #32
    c3ec:	e7920003 	ldr	r0, [r2, r3]
    c3f0:	e51f18cc 	ldr	r1, [pc, #-2252]	; bb2c <main+0x5f8>
    c3f4:	ebfff544 	bl	990c <strcmp@plt>
    c3f8:	e3500000 	cmp	r0, #0
    c3fc:	1a000005 	bne	c418 <main+0xee4>
    c400:	e28d3c76 	add	r3, sp, #30208	; 0x7600
    c404:	e2833060 	add	r3, r3, #96	; 0x60
    c408:	e5931000 	ldr	r1, [r3]
    c40c:	e51f08f0 	ldr	r0, [pc, #-2288]	; bb24 <main+0x5f0>
    c410:	ebfff456 	bl	9570 <printf@plt>
    c414:	ea000001 	b	c420 <main+0xeec>
    c418:	e3a0003b 	mov	r0, #59	; 0x3b
    c41c:	ebfff447 	bl	9540 <putchar@plt>
    c420:	e28d4c76 	add	r4, sp, #30208	; 0x7600
    c424:	e2844060 	add	r4, r4, #96	; 0x60
    c428:	e244401c 	sub	r4, r4, #28
    c42c:	e5941020 	ldr	r1, [r4, #32]
    c430:	e51f0914 	ldr	r0, [pc, #-2324]	; bb24 <main+0x5f0>
    c434:	ebfff44d 	bl	9570 <printf@plt>
    c438:	e28d5c8b 	add	r5, sp, #35584	; 0x8b00
    c43c:	e51f391c 	ldr	r3, [pc, #-2332]	; bb28 <main+0x5f4>
    c440:	e2855020 	add	r5, r5, #32
    c444:	e7950003 	ldr	r0, [r5, r3]
    c448:	e51f1924 	ldr	r1, [pc, #-2340]	; bb2c <main+0x5f8>
    c44c:	ebfff52e 	bl	990c <strcmp@plt>
    c450:	e3500000 	cmp	r0, #0
    c454:	1a000003 	bne	c468 <main+0xf34>
    c458:	e5941024 	ldr	r1, [r4, #36]	; 0x24
    c45c:	e51f07fc 	ldr	r0, [pc, #-2044]	; bc68 <main+0x734>
    c460:	ebfff442 	bl	9570 <printf@plt>
    c464:	ea001919 	b	128d0 <main+0x739c>
    c468:	e3a0003b 	mov	r0, #59	; 0x3b
    c46c:	ebfff433 	bl	9540 <putchar@plt>
    c470:	ea001916 	b	128d0 <main+0x739c>
    c474:	e1a00005 	mov	r0, r5
    c478:	e51f1950 	ldr	r1, [pc, #-2384]	; bb30 <main+0x5fc>
    c47c:	ebfff522 	bl	990c <strcmp@plt>
    c480:	e3500000 	cmp	r0, #0
    c484:	1a000161 	bne	ca10 <main+0x14dc>
    c488:	e1a01007 	mov	r1, r7
    c48c:	e51f0960 	ldr	r0, [pc, #-2400]	; bb34 <main+0x600>
    c490:	ebfff6ed 	bl	a04c <init_obj>
    c494:	e51f0964 	ldr	r0, [pc, #-2404]	; bb38 <main+0x604>
    c498:	ebfff66a 	bl	9e48 <get_cgi>
    c49c:	e28d4e12 	add	r4, sp, #288	; 0x120
    c4a0:	e2444020 	sub	r4, r4, #32
    c4a4:	e1a01004 	mov	r1, r4
    c4a8:	e1a06000 	mov	r6, r0
    c4ac:	e51f0774 	ldr	r0, [pc, #-1908]	; bd40 <main+0x80c>
    c4b0:	ebfff452 	bl	9600 <sncfg_get@plt>
    c4b4:	e1a05000 	mov	r5, r0
    c4b8:	e51f07a4 	ldr	r0, [pc, #-1956]	; bd1c <main+0x7e8>
    c4bc:	ebfff464 	bl	9654 <puts@plt>
    c4c0:	e3a0005b 	mov	r0, #91	; 0x5b
    c4c4:	ebfff41d 	bl	9540 <putchar@plt>
    c4c8:	e51f0994 	ldr	r0, [pc, #-2452]	; bb3c <main+0x608>
    c4cc:	ebfff6c9 	bl	9ff8 <get_obj>
    c4d0:	ebfff531 	bl	999c <atoi@plt>
    c4d4:	e3500001 	cmp	r0, #1
    c4d8:	1a00001e 	bne	c558 <main+0x1024>
    c4dc:	e51f09a4 	ldr	r0, [pc, #-2468]	; bb40 <main+0x60c>
    c4e0:	ebfff6c4 	bl	9ff8 <get_obj>
    c4e4:	e1a01000 	mov	r1, r0
    c4e8:	e51f09ac 	ldr	r0, [pc, #-2476]	; bb44 <main+0x610>
    c4ec:	ebfff41f 	bl	9570 <printf@plt>
    c4f0:	e51f09b0 	ldr	r0, [pc, #-2480]	; bb48 <main+0x614>
    c4f4:	ebfff6bf 	bl	9ff8 <get_obj>
    c4f8:	ebfff527 	bl	999c <atoi@plt>
    c4fc:	e3500001 	cmp	r0, #1
    c500:	051f09bc 	ldreq	r0, [pc, #-2492]	; bb4c <main+0x618>
    c504:	0bfff419 	bleq	9570 <printf@plt>
    c508:	e51f09c0 	ldr	r0, [pc, #-2496]	; bb50 <main+0x61c>
    c50c:	ebfff6b9 	bl	9ff8 <get_obj>
    c510:	ebfff521 	bl	999c <atoi@plt>
    c514:	e3500001 	cmp	r0, #1
    c518:	051f09cc 	ldreq	r0, [pc, #-2508]	; bb54 <main+0x620>
    c51c:	0bfff413 	bleq	9570 <printf@plt>
    c520:	e51f09d0 	ldr	r0, [pc, #-2512]	; bb58 <main+0x624>
    c524:	ebfff6b3 	bl	9ff8 <get_obj>
    c528:	ebfff51b 	bl	999c <atoi@plt>
    c52c:	e3500001 	cmp	r0, #1
    c530:	051f09dc 	ldreq	r0, [pc, #-2524]	; bb5c <main+0x628>
    c534:	0bfff40d 	bleq	9570 <printf@plt>
    c538:	e51f09e0 	ldr	r0, [pc, #-2528]	; bb60 <main+0x62c>
    c53c:	ebfff6ad 	bl	9ff8 <get_obj>
    c540:	ebfff515 	bl	999c <atoi@plt>
    c544:	e3500001 	cmp	r0, #1
    c548:	051f09ec 	ldreq	r0, [pc, #-2540]	; bb64 <main+0x630>
    c54c:	0bfff407 	bleq	9570 <printf@plt>
    c550:	e51f08c0 	ldr	r0, [pc, #-2240]	; bc98 <main+0x764>
    c554:	ebfff405 	bl	9570 <printf@plt>
    c558:	e51f09f8 	ldr	r0, [pc, #-2552]	; bb68 <main+0x634>
    c55c:	ebfff6a5 	bl	9ff8 <get_obj>
    c560:	ebfff50d 	bl	999c <atoi@plt>
    c564:	e3500001 	cmp	r0, #1
    c568:	1a000012 	bne	c5b8 <main+0x1084>
    c56c:	e51f0a08 	ldr	r0, [pc, #-2568]	; bb6c <main+0x638>
    c570:	ebfff6a0 	bl	9ff8 <get_obj>
    c574:	e1a01000 	mov	r1, r0
    c578:	e51f0a10 	ldr	r0, [pc, #-2576]	; bb70 <main+0x63c>
    c57c:	ebfff3fb 	bl	9570 <printf@plt>
    c580:	e51f0a14 	ldr	r0, [pc, #-2580]	; bb74 <main+0x640>
    c584:	ebfff69b 	bl	9ff8 <get_obj>
    c588:	ebfff503 	bl	999c <atoi@plt>
    c58c:	e3500001 	cmp	r0, #1
    c590:	051f0a20 	ldreq	r0, [pc, #-2592]	; bb78 <main+0x644>
    c594:	0bfff3f5 	bleq	9570 <printf@plt>
    c598:	e51f0a24 	ldr	r0, [pc, #-2596]	; bb7c <main+0x648>
    c59c:	ebfff695 	bl	9ff8 <get_obj>
    c5a0:	ebfff4fd 	bl	999c <atoi@plt>
    c5a4:	e3500001 	cmp	r0, #1
    c5a8:	051f0a30 	ldreq	r0, [pc, #-2608]	; bb80 <main+0x64c>
    c5ac:	0bfff3ef 	bleq	9570 <printf@plt>
    c5b0:	e51f0920 	ldr	r0, [pc, #-2336]	; bc98 <main+0x764>
    c5b4:	ebfff3ed 	bl	9570 <printf@plt>
    c5b8:	e51f0a3c 	ldr	r0, [pc, #-2620]	; bb84 <main+0x650>
    c5bc:	ebfff68d 	bl	9ff8 <get_obj>
    c5c0:	ebfff4f5 	bl	999c <atoi@plt>
    c5c4:	e3500001 	cmp	r0, #1
    c5c8:	1a000012 	bne	c618 <main+0x10e4>
    c5cc:	e51f0a4c 	ldr	r0, [pc, #-2636]	; bb88 <main+0x654>
    c5d0:	ebfff688 	bl	9ff8 <get_obj>
    c5d4:	e1a01000 	mov	r1, r0
    c5d8:	e51f0a54 	ldr	r0, [pc, #-2644]	; bb8c <main+0x658>
    c5dc:	ebfff3e3 	bl	9570 <printf@plt>
    c5e0:	e51f0a58 	ldr	r0, [pc, #-2648]	; bb90 <main+0x65c>
    c5e4:	ebfff683 	bl	9ff8 <get_obj>
    c5e8:	ebfff4eb 	bl	999c <atoi@plt>
    c5ec:	e3500001 	cmp	r0, #1
    c5f0:	051f0a64 	ldreq	r0, [pc, #-2660]	; bb94 <main+0x660>
    c5f4:	0bfff3dd 	bleq	9570 <printf@plt>
    c5f8:	e51f0a68 	ldr	r0, [pc, #-2664]	; bb98 <main+0x664>
    c5fc:	ebfff67d 	bl	9ff8 <get_obj>
    c600:	ebfff4e5 	bl	999c <atoi@plt>
    c604:	e3500001 	cmp	r0, #1
    c608:	051f0a74 	ldreq	r0, [pc, #-2676]	; bb9c <main+0x668>
    c60c:	0bfff3d7 	bleq	9570 <printf@plt>
    c610:	e51f0980 	ldr	r0, [pc, #-2432]	; bc98 <main+0x764>
    c614:	ebfff3d5 	bl	9570 <printf@plt>
    c618:	e51f0a80 	ldr	r0, [pc, #-2688]	; bba0 <main+0x66c>
    c61c:	ebfff675 	bl	9ff8 <get_obj>
    c620:	ebfff4dd 	bl	999c <atoi@plt>
    c624:	e3500001 	cmp	r0, #1
    c628:	1a00005d 	bne	c7a4 <main+0x1270>
    c62c:	e51f0a90 	ldr	r0, [pc, #-2704]	; bba4 <main+0x670>
    c630:	ebfff670 	bl	9ff8 <get_obj>
    c634:	e1a01000 	mov	r1, r0
    c638:	e51f0a98 	ldr	r0, [pc, #-2712]	; bba8 <main+0x674>
    c63c:	ebfff3cb 	bl	9570 <printf@plt>
    c640:	e51f0a9c 	ldr	r0, [pc, #-2716]	; bbac <main+0x678>
    c644:	ebfff66b 	bl	9ff8 <get_obj>
    c648:	ebfff4d3 	bl	999c <atoi@plt>
    c64c:	e3500001 	cmp	r0, #1
    c650:	051f0aa8 	ldreq	r0, [pc, #-2728]	; bbb0 <main+0x67c>
    c654:	0bfff3c5 	bleq	9570 <printf@plt>
    c658:	e51f09dc 	ldr	r0, [pc, #-2524]	; bc84 <main+0x750>
    c65c:	ebfff665 	bl	9ff8 <get_obj>
    c660:	ebfff4cd 	bl	999c <atoi@plt>
    c664:	e3500001 	cmp	r0, #1
    c668:	1a000015 	bne	c6c4 <main+0x1190>
    c66c:	e3550000 	cmp	r5, #0
    c670:	1a000013 	bne	c6c4 <main+0x1190>
    c674:	e5944000 	ldr	r4, [r4]
    c678:	e3540000 	cmp	r4, #0
    c67c:	0a000010 	beq	c6c4 <main+0x1190>
    c680:	e1a00004 	mov	r0, r4
    c684:	e51f19b4 	ldr	r1, [pc, #-2484]	; bcd8 <main+0x7a4>
    c688:	ebfff49f 	bl	990c <strcmp@plt>
    c68c:	e3500000 	cmp	r0, #0
    c690:	0a000009 	beq	c6bc <main+0x1188>
    c694:	e1a00004 	mov	r0, r4
    c698:	e51f198c 	ldr	r1, [pc, #-2444]	; bd14 <main+0x7e0>
    c69c:	ebfff49a 	bl	990c <strcmp@plt>
    c6a0:	e3500000 	cmp	r0, #0
    c6a4:	0a000004 	beq	c6bc <main+0x1188>
    c6a8:	e1a00004 	mov	r0, r4
    c6ac:	e51f19b0 	ldr	r1, [pc, #-2480]	; bd04 <main+0x7d0>
    c6b0:	ebfff495 	bl	990c <strcmp@plt>
    c6b4:	e3500000 	cmp	r0, #0
    c6b8:	1a000001 	bne	c6c4 <main+0x1190>
    c6bc:	e51f0b10 	ldr	r0, [pc, #-2832]	; bbb4 <main+0x680>
    c6c0:	ebfff3aa 	bl	9570 <printf@plt>
    c6c4:	e51f0b14 	ldr	r0, [pc, #-2836]	; bbb8 <main+0x684>
    c6c8:	ebfff64a 	bl	9ff8 <get_obj>
    c6cc:	ebfff4b2 	bl	999c <atoi@plt>
    c6d0:	e3500001 	cmp	r0, #1
    c6d4:	051f0b20 	ldreq	r0, [pc, #-2848]	; bbbc <main+0x688>
    c6d8:	0bfff3a4 	bleq	9570 <printf@plt>
    c6dc:	e51f0b24 	ldr	r0, [pc, #-2852]	; bbc0 <main+0x68c>
    c6e0:	ebfff644 	bl	9ff8 <get_obj>
    c6e4:	ebfff4ac 	bl	999c <atoi@plt>
    c6e8:	e3500001 	cmp	r0, #1
    c6ec:	051f0b30 	ldreq	r0, [pc, #-2864]	; bbc4 <main+0x690>
    c6f0:	0bfff39e 	bleq	9570 <printf@plt>
    c6f4:	e51f0b34 	ldr	r0, [pc, #-2868]	; bbc8 <main+0x694>
    c6f8:	ebfff63e 	bl	9ff8 <get_obj>
    c6fc:	ebfff4a6 	bl	999c <atoi@plt>
    c700:	e3500001 	cmp	r0, #1
    c704:	051f0b40 	ldreq	r0, [pc, #-2880]	; bbcc <main+0x698>
    c708:	0bfff398 	bleq	9570 <printf@plt>
    c70c:	e51f0b44 	ldr	r0, [pc, #-2884]	; bbd0 <main+0x69c>
    c710:	ebfff638 	bl	9ff8 <get_obj>
    c714:	ebfff4a0 	bl	999c <atoi@plt>
    c718:	e3500001 	cmp	r0, #1
    c71c:	051f0b50 	ldreq	r0, [pc, #-2896]	; bbd4 <main+0x6a0>
    c720:	0bfff392 	bleq	9570 <printf@plt>
    c724:	e51f0b54 	ldr	r0, [pc, #-2900]	; bbd8 <main+0x6a4>
    c728:	ebfff632 	bl	9ff8 <get_obj>
    c72c:	ebfff49a 	bl	999c <atoi@plt>
    c730:	e3500001 	cmp	r0, #1
    c734:	051f0b60 	ldreq	r0, [pc, #-2912]	; bbdc <main+0x6a8>
    c738:	0bfff38c 	bleq	9570 <printf@plt>
    c73c:	e51f0b64 	ldr	r0, [pc, #-2916]	; bbe0 <main+0x6ac>
    c740:	ebfff62c 	bl	9ff8 <get_obj>
    c744:	ebfff494 	bl	999c <atoi@plt>
    c748:	e3500001 	cmp	r0, #1
    c74c:	051f0b70 	ldreq	r0, [pc, #-2928]	; bbe4 <main+0x6b0>
    c750:	0bfff386 	bleq	9570 <printf@plt>
    c754:	e51f0b74 	ldr	r0, [pc, #-2932]	; bbe8 <main+0x6b4>
    c758:	ebfff626 	bl	9ff8 <get_obj>
    c75c:	ebfff48e 	bl	999c <atoi@plt>
    c760:	e3500001 	cmp	r0, #1
    c764:	051f0b80 	ldreq	r0, [pc, #-2944]	; bbec <main+0x6b8>
    c768:	0bfff380 	bleq	9570 <printf@plt>
    c76c:	e51f0b84 	ldr	r0, [pc, #-2948]	; bbf0 <main+0x6bc>
    c770:	ebfff620 	bl	9ff8 <get_obj>
    c774:	ebfff488 	bl	999c <atoi@plt>
    c778:	e3500001 	cmp	r0, #1
    c77c:	051f0b90 	ldreq	r0, [pc, #-2960]	; bbf4 <main+0x6c0>
    c780:	0bfff37a 	bleq	9570 <printf@plt>
    c784:	e51f0b94 	ldr	r0, [pc, #-2964]	; bbf8 <main+0x6c4>
    c788:	ebfff61a 	bl	9ff8 <get_obj>
    c78c:	ebfff482 	bl	999c <atoi@plt>
    c790:	e3500001 	cmp	r0, #1
    c794:	051f0ba0 	ldreq	r0, [pc, #-2976]	; bbfc <main+0x6c8>
    c798:	0bfff374 	bleq	9570 <printf@plt>
    c79c:	e51f0b0c 	ldr	r0, [pc, #-2828]	; bc98 <main+0x764>
    c7a0:	ebfff372 	bl	9570 <printf@plt>
    c7a4:	e51f0bac 	ldr	r0, [pc, #-2988]	; bc00 <main+0x6cc>
    c7a8:	ebfff612 	bl	9ff8 <get_obj>
    c7ac:	ebfff47a 	bl	999c <atoi@plt>
    c7b0:	e3500001 	cmp	r0, #1
    c7b4:	1a000030 	bne	c87c <main+0x1348>
    c7b8:	e51f0bbc 	ldr	r0, [pc, #-3004]	; bc04 <main+0x6d0>
    c7bc:	ebfff60d 	bl	9ff8 <get_obj>
    c7c0:	e1a01000 	mov	r1, r0
    c7c4:	e51f0bc4 	ldr	r0, [pc, #-3012]	; bc08 <main+0x6d4>
    c7c8:	ebfff368 	bl	9570 <printf@plt>
    c7cc:	e51f0bc8 	ldr	r0, [pc, #-3016]	; bc0c <main+0x6d8>
    c7d0:	ebfff608 	bl	9ff8 <get_obj>
    c7d4:	ebfff470 	bl	999c <atoi@plt>
    c7d8:	e3500001 	cmp	r0, #1
    c7dc:	051f0bd4 	ldreq	r0, [pc, #-3028]	; bc10 <main+0x6dc>
    c7e0:	0bfff362 	bleq	9570 <printf@plt>
    c7e4:	e51f0bd8 	ldr	r0, [pc, #-3032]	; bc14 <main+0x6e0>
    c7e8:	ebfff602 	bl	9ff8 <get_obj>
    c7ec:	ebfff46a 	bl	999c <atoi@plt>
    c7f0:	e3500001 	cmp	r0, #1
    c7f4:	051f0be4 	ldreq	r0, [pc, #-3044]	; bc18 <main+0x6e4>
    c7f8:	0bfff35c 	bleq	9570 <printf@plt>
    c7fc:	e51f0be8 	ldr	r0, [pc, #-3048]	; bc1c <main+0x6e8>
    c800:	ebfff5fc 	bl	9ff8 <get_obj>
    c804:	ebfff464 	bl	999c <atoi@plt>
    c808:	e3500001 	cmp	r0, #1
    c80c:	051f0bf4 	ldreq	r0, [pc, #-3060]	; bc20 <main+0x6ec>
    c810:	0bfff356 	bleq	9570 <printf@plt>
    c814:	e51f0bf8 	ldr	r0, [pc, #-3064]	; bc24 <main+0x6f0>
    c818:	ebfff5f6 	bl	9ff8 <get_obj>
    c81c:	ebfff45e 	bl	999c <atoi@plt>
    c820:	e3500001 	cmp	r0, #1
    c824:	051f0c04 	ldreq	r0, [pc, #-3076]	; bc28 <main+0x6f4>
    c828:	0bfff350 	bleq	9570 <printf@plt>
    c82c:	e51f0c08 	ldr	r0, [pc, #-3080]	; bc2c <main+0x6f8>
    c830:	ebfff5f0 	bl	9ff8 <get_obj>
    c834:	ebfff458 	bl	999c <atoi@plt>
    c838:	e3500001 	cmp	r0, #1
    c83c:	051f0c14 	ldreq	r0, [pc, #-3092]	; bc30 <main+0x6fc>
    c840:	0bfff34a 	bleq	9570 <printf@plt>
    c844:	e51f0c18 	ldr	r0, [pc, #-3096]	; bc34 <main+0x700>
    c848:	ebfff5ea 	bl	9ff8 <get_obj>
    c84c:	ebfff452 	bl	999c <atoi@plt>
    c850:	e3500001 	cmp	r0, #1
    c854:	051f0c24 	ldreq	r0, [pc, #-3108]	; bc38 <main+0x704>
    c858:	0bfff344 	bleq	9570 <printf@plt>
    c85c:	e51f0c28 	ldr	r0, [pc, #-3112]	; bc3c <main+0x708>
    c860:	ebfff5e4 	bl	9ff8 <get_obj>
    c864:	ebfff44c 	bl	999c <atoi@plt>
    c868:	e3500001 	cmp	r0, #1
    c86c:	051f0c34 	ldreq	r0, [pc, #-3124]	; bc40 <main+0x70c>
    c870:	0bfff33e 	bleq	9570 <printf@plt>
    c874:	e51f0be4 	ldr	r0, [pc, #-3044]	; bc98 <main+0x764>
    c878:	ebfff33c 	bl	9570 <printf@plt>
    c87c:	e51f0c40 	ldr	r0, [pc, #-3136]	; bc44 <main+0x710>
    c880:	ebfff5dc 	bl	9ff8 <get_obj>
    c884:	ebfff444 	bl	999c <atoi@plt>
    c888:	e3500001 	cmp	r0, #1
    c88c:	1a000024 	bne	c924 <main+0x13f0>
    c890:	e51f0c50 	ldr	r0, [pc, #-3152]	; bc48 <main+0x714>
    c894:	ebfff5d7 	bl	9ff8 <get_obj>
    c898:	e1a01000 	mov	r1, r0
    c89c:	e51f0c58 	ldr	r0, [pc, #-3160]	; bc4c <main+0x718>
    c8a0:	ebfff332 	bl	9570 <printf@plt>
    c8a4:	e51f0c5c 	ldr	r0, [pc, #-3164]	; bc50 <main+0x71c>
    c8a8:	ebfff5d2 	bl	9ff8 <get_obj>
    c8ac:	ebfff43a 	bl	999c <atoi@plt>
    c8b0:	e3500001 	cmp	r0, #1
    c8b4:	051f0c68 	ldreq	r0, [pc, #-3176]	; bc54 <main+0x720>
    c8b8:	0bfff32c 	bleq	9570 <printf@plt>
    c8bc:	e51f0c0c 	ldr	r0, [pc, #-3084]	; bcb8 <main+0x784>
    c8c0:	ebfff5cc 	bl	9ff8 <get_obj>
    c8c4:	ebfff434 	bl	999c <atoi@plt>
    c8c8:	e3500001 	cmp	r0, #1
    c8cc:	051f0c20 	ldreq	r0, [pc, #-3104]	; bcb4 <main+0x780>
    c8d0:	0bfff326 	bleq	9570 <printf@plt>
    c8d4:	e51f0c2c 	ldr	r0, [pc, #-3116]	; bcb0 <main+0x77c>
    c8d8:	ebfff5c6 	bl	9ff8 <get_obj>
    c8dc:	ebfff42e 	bl	999c <atoi@plt>
    c8e0:	e3500001 	cmp	r0, #1
    c8e4:	051f0c40 	ldreq	r0, [pc, #-3136]	; bcac <main+0x778>
    c8e8:	0bfff320 	bleq	9570 <printf@plt>
    c8ec:	e51f0c4c 	ldr	r0, [pc, #-3148]	; bca8 <main+0x774>
    c8f0:	ebfff5c0 	bl	9ff8 <get_obj>
    c8f4:	ebfff428 	bl	999c <atoi@plt>
    c8f8:	e3500001 	cmp	r0, #1
    c8fc:	051f0c60 	ldreq	r0, [pc, #-3168]	; bca4 <main+0x770>
    c900:	0bfff31a 	bleq	9570 <printf@plt>
    c904:	e51f0c6c 	ldr	r0, [pc, #-3180]	; bca0 <main+0x76c>
    c908:	ebfff5ba 	bl	9ff8 <get_obj>
    c90c:	ebfff422 	bl	999c <atoi@plt>
    c910:	e3500001 	cmp	r0, #1
    c914:	051f0c80 	ldreq	r0, [pc, #-3200]	; bc9c <main+0x768>
    c918:	0bfff314 	bleq	9570 <printf@plt>
    c91c:	e51f0c8c 	ldr	r0, [pc, #-3212]	; bc98 <main+0x764>
    c920:	ebfff312 	bl	9570 <printf@plt>
    c924:	e28d4e12 	add	r4, sp, #288	; 0x120
    c928:	e2444024 	sub	r4, r4, #36	; 0x24
    c92c:	e51f0cdc 	ldr	r0, [pc, #-3292]	; bc58 <main+0x724>
    c930:	ebfff30e 	bl	9570 <printf@plt>
    c934:	e51f0ca8 	ldr	r0, [pc, #-3240]	; bc94 <main+0x760>
    c938:	e1a01004 	mov	r1, r4
    c93c:	ebfff32f 	bl	9600 <sncfg_get@plt>
    c940:	e3500001 	cmp	r0, #1
    c944:	0a000002 	beq	c954 <main+0x1420>
    c948:	e5941000 	ldr	r1, [r4]
    c94c:	e3510000 	cmp	r1, #0
    c950:	1a000002 	bne	c960 <main+0x142c>
    c954:	e3a0003b 	mov	r0, #59	; 0x3b
    c958:	ebfff2f8 	bl	9540 <putchar@plt>
    c95c:	ea000001 	b	c968 <main+0x1434>
    c960:	e51f0cdc 	ldr	r0, [pc, #-3292]	; bc8c <main+0x758>
    c964:	ebfff301 	bl	9570 <printf@plt>
    c968:	e3a01000 	mov	r1, #0
    c96c:	e51f2cec 	ldr	r2, [pc, #-3308]	; bc88 <main+0x754>
    c970:	e51f0d00 	ldr	r0, [pc, #-3328]	; bc78 <main+0x744>
    c974:	ebfff3d2 	bl	98c4 <memset@plt>
    c978:	e51f0d24 	ldr	r0, [pc, #-3364]	; bc5c <main+0x728>
    c97c:	ebfff319 	bl	95e8 <getenv@plt>
    c980:	e1a01000 	mov	r1, r0
    c984:	e1a00006 	mov	r0, r6
    c988:	ebfffa96 	bl	b3e8 <session_check>
    c98c:	e3500000 	cmp	r0, #0
    c990:	0a00001b 	beq	ca04 <main+0x14d0>
    c994:	e1a00007 	mov	r0, r7
    c998:	e51f1c9c 	ldr	r1, [pc, #-3228]	; bd04 <main+0x7d0>
    c99c:	ebfff3da 	bl	990c <strcmp@plt>
    c9a0:	e3500000 	cmp	r0, #0
    c9a4:	051f0d4c 	ldreq	r0, [pc, #-3404]	; bc60 <main+0x72c>
    c9a8:	0a000005 	beq	c9c4 <main+0x1490>
    c9ac:	e1a00007 	mov	r0, r7
    c9b0:	e51f1ce0 	ldr	r1, [pc, #-3296]	; bcd8 <main+0x7a4>
    c9b4:	ebfff3d4 	bl	990c <strcmp@plt>
    c9b8:	e3500000 	cmp	r0, #0
    c9bc:	051f0d60 	ldreq	r0, [pc, #-3424]	; bc64 <main+0x730>
    c9c0:	151f0d48 	ldrne	r0, [pc, #-3400]	; bc80 <main+0x74c>
    c9c4:	e51f1d50 	ldr	r1, [pc, #-3408]	; bc7c <main+0x748>
    c9c8:	ebfff3b7 	bl	98ac <fopen@plt>
    c9cc:	e3500000 	cmp	r0, #0
    c9d0:	e1a04000 	mov	r4, r0
    c9d4:	0a0017bd 	beq	128d0 <main+0x739c>
    c9d8:	e51f0d68 	ldr	r0, [pc, #-3432]	; bc78 <main+0x744>
    c9dc:	e51f1d5c 	ldr	r1, [pc, #-3420]	; bc88 <main+0x754>
    c9e0:	e1a02004 	mov	r2, r4
    c9e4:	ebfff30e 	bl	9624 <fgets@plt>
    c9e8:	e3500000 	cmp	r0, #0
    c9ec:	151f0d8c 	ldrne	r0, [pc, #-3468]	; bc68 <main+0x734>
    c9f0:	151f1d80 	ldrne	r1, [pc, #-3456]	; bc78 <main+0x744>
    c9f4:	1bfff2dd 	blne	9570 <printf@plt>
    c9f8:	e1a00004 	mov	r0, r4
    c9fc:	ebfff3b9 	bl	98e8 <fclose@plt>
    ca00:	ea0017b2 	b	128d0 <main+0x739c>
    ca04:	e51f0d98 	ldr	r0, [pc, #-3480]	; bc74 <main+0x740>
    ca08:	ebfff2d8 	bl	9570 <printf@plt>
    ca0c:	ea0017af 	b	128d0 <main+0x739c>
    ca10:	e1a00005 	mov	r0, r5
    ca14:	e51f1d98 	ldr	r1, [pc, #-3480]	; bc84 <main+0x750>
    ca18:	ebfff3bb 	bl	990c <strcmp@plt>
    ca1c:	e3500000 	cmp	r0, #0
    ca20:	1a00007b 	bne	cc14 <main+0x16e0>
    ca24:	e28d4e12 	add	r4, sp, #288	; 0x120
    ca28:	e1a01007 	mov	r1, r7
    ca2c:	e51f0da4 	ldr	r0, [pc, #-3492]	; bc90 <main+0x75c>
    ca30:	e2444028 	sub	r4, r4, #40	; 0x28
    ca34:	ebfff584 	bl	a04c <init_obj>
    ca38:	e51f0d0c 	ldr	r0, [pc, #-3340]	; bd34 <main+0x800>
    ca3c:	e1a01004 	mov	r1, r4
    ca40:	ebfff2ee 	bl	9600 <sncfg_get@plt>
    ca44:	e3500001 	cmp	r0, #1
    ca48:	0a000003 	beq	ca5c <main+0x1528>
    ca4c:	e5941000 	ldr	r1, [r4]
    ca50:	e3510000 	cmp	r1, #0
    ca54:	151f0d24 	ldrne	r0, [pc, #-3364]	; bd38 <main+0x804>
    ca58:	1bfff330 	blne	9720 <sncfg_set@plt>
    ca5c:	e51f0da0 	ldr	r0, [pc, #-3488]	; bcc4 <main+0x790>
    ca60:	ebfff4f8 	bl	9e48 <get_cgi>
    ca64:	e1a01000 	mov	r1, r0
    ca68:	e51f0db4 	ldr	r0, [pc, #-3508]	; bcbc <main+0x788>
    ca6c:	ebfff8cc 	bl	ada4 <Sncfg_set>
    ca70:	e51f3db8 	ldr	r3, [pc, #-3512]	; bcc0 <main+0x78c>
    ca74:	e28dcc76 	add	ip, sp, #30208	; 0x7600
    ca78:	e1a0e003 	mov	lr, r3
    ca7c:	e8be000f 	ldm	lr!, {r0, r1, r2, r3}
    ca80:	e28cc020 	add	ip, ip, #32
    ca84:	e24cc03c 	sub	ip, ip, #60	; 0x3c
    ca88:	e8ac000f 	stmia	ip!, {r0, r1, r2, r3}
    ca8c:	e8be000f 	ldm	lr!, {r0, r1, r2, r3}
    ca90:	e8ac000f 	stmia	ip!, {r0, r1, r2, r3}
    ca94:	e8be000f 	ldm	lr!, {r0, r1, r2, r3}
    ca98:	e8ac000f 	stmia	ip!, {r0, r1, r2, r3}
    ca9c:	e59e3000 	ldr	r3, [lr]
    caa0:	e51f0de4 	ldr	r0, [pc, #-3556]	; bcc4 <main+0x790>
    caa4:	e58c3000 	str	r3, [ip]
    caa8:	ebfff4e6 	bl	9e48 <get_cgi>
    caac:	ebfff3ba 	bl	999c <atoi@plt>
    cab0:	e28dec8b 	add	lr, sp, #35584	; 0x8b00
    cab4:	e28ee020 	add	lr, lr, #32
    cab8:	e51f3df8 	ldr	r3, [pc, #-3576]	; bcc8 <main+0x794>
    cabc:	e08e0100 	add	r0, lr, r0, lsl #2
    cac0:	e7901003 	ldr	r1, [r0, r3]
    cac4:	e51f0e00 	ldr	r0, [pc, #-3584]	; bccc <main+0x798>
    cac8:	ebfff314 	bl	9720 <sncfg_set@plt>
    cacc:	e51f0e04 	ldr	r0, [pc, #-3588]	; bcd0 <main+0x79c>
    cad0:	ebfff4dc 	bl	9e48 <get_cgi>
    cad4:	e51f1e08 	ldr	r1, [pc, #-3592]	; bcd4 <main+0x7a0>
    cad8:	e1a04000 	mov	r4, r0
    cadc:	ebfff38a 	bl	990c <strcmp@plt>
    cae0:	e3500000 	cmp	r0, #0
    cae4:	1a000005 	bne	cb00 <main+0x15cc>
    cae8:	e51f1ddc 	ldr	r1, [pc, #-3548]	; bd14 <main+0x7e0>
    caec:	e51f0e18 	ldr	r0, [pc, #-3608]	; bcdc <main+0x7a8>
    caf0:	ebfff30a 	bl	9720 <sncfg_set@plt>
    caf4:	e51f0e1c 	ldr	r0, [pc, #-3612]	; bce0 <main+0x7ac>
    caf8:	e51f1e28 	ldr	r1, [pc, #-3624]	; bcd8 <main+0x7a4>
    cafc:	ea000004 	b	cb14 <main+0x15e0>
    cb00:	e51f1e30 	ldr	r1, [pc, #-3632]	; bcd8 <main+0x7a4>
    cb04:	e51f0e30 	ldr	r0, [pc, #-3632]	; bcdc <main+0x7a8>
    cb08:	ebfff304 	bl	9720 <sncfg_set@plt>
    cb0c:	e51f0e34 	ldr	r0, [pc, #-3636]	; bce0 <main+0x7ac>
    cb10:	e1a01004 	mov	r1, r4
    cb14:	ebfff8a2 	bl	ada4 <Sncfg_set>
    cb18:	e51f0e3c 	ldr	r0, [pc, #-3644]	; bce4 <main+0x7b0>
    cb1c:	ebfff4c9 	bl	9e48 <get_cgi>
    cb20:	e1a01000 	mov	r1, r0
    cb24:	e51f0e44 	ldr	r0, [pc, #-3652]	; bce8 <main+0x7b4>
    cb28:	ebfff2fc 	bl	9720 <sncfg_set@plt>
    cb2c:	e51f0e48 	ldr	r0, [pc, #-3656]	; bcec <main+0x7b8>
    cb30:	ebfff4c4 	bl	9e48 <get_cgi>
    cb34:	e1a01000 	mov	r1, r0
    cb38:	e51f0e50 	ldr	r0, [pc, #-3664]	; bcf0 <main+0x7bc>
    cb3c:	ebfff898 	bl	ada4 <Sncfg_set>
    cb40:	e51f0e54 	ldr	r0, [pc, #-3668]	; bcf4 <main+0x7c0>
    cb44:	ebfff4bf 	bl	9e48 <get_cgi>
    cb48:	e1a01000 	mov	r1, r0
    cb4c:	e51f0e5c 	ldr	r0, [pc, #-3676]	; bcf8 <main+0x7c4>
    cb50:	ebfff893 	bl	ada4 <Sncfg_set>
    cb54:	e51f0e20 	ldr	r0, [pc, #-3616]	; bd3c <main+0x808>
    cb58:	ebfff4ba 	bl	9e48 <get_cgi>
    cb5c:	e1a01000 	mov	r1, r0
    cb60:	e51f0e28 	ldr	r0, [pc, #-3624]	; bd40 <main+0x80c>
    cb64:	ebfff2ed 	bl	9720 <sncfg_set@plt>
    cb68:	e51f0e74 	ldr	r0, [pc, #-3700]	; bcfc <main+0x7c8>
    cb6c:	ebfff4b5 	bl	9e48 <get_cgi>
    cb70:	e1a01000 	mov	r1, r0
    cb74:	e1a04000 	mov	r4, r0
    cb78:	e51f0e80 	ldr	r0, [pc, #-3712]	; bd00 <main+0x7cc>
    cb7c:	ebfff888 	bl	ada4 <Sncfg_set>
    cb80:	e1a00004 	mov	r0, r4
    cb84:	e51f1e88 	ldr	r1, [pc, #-3720]	; bd04 <main+0x7d0>
    cb88:	ebfff35f 	bl	990c <strcmp@plt>
    cb8c:	e3500000 	cmp	r0, #0
    cb90:	1a000004 	bne	cba8 <main+0x1674>
    cb94:	e51f0e94 	ldr	r0, [pc, #-3732]	; bd08 <main+0x7d4>
    cb98:	ebfff4aa 	bl	9e48 <get_cgi>
    cb9c:	e1a01000 	mov	r1, r0
    cba0:	e51f0e9c 	ldr	r0, [pc, #-3740]	; bd0c <main+0x7d8>
    cba4:	ebfff87e 	bl	ada4 <Sncfg_set>
    cba8:	ebfff2f1 	bl	9774 <sncfg_commit@plt>
    cbac:	e51f0ea4 	ldr	r0, [pc, #-3748]	; bd10 <main+0x7dc>
    cbb0:	ebfff4a4 	bl	9e48 <get_cgi>
    cbb4:	e51f1ea8 	ldr	r1, [pc, #-3752]	; bd14 <main+0x7e0>
    cbb8:	ebfff353 	bl	990c <strcmp@plt>
    cbbc:	e3500000 	cmp	r0, #0
    cbc0:	1a000008 	bne	cbe8 <main+0x16b4>
    cbc4:	e51f0eb0 	ldr	r0, [pc, #-3760]	; bd1c <main+0x7e8>
    cbc8:	ebfff2a1 	bl	9654 <puts@plt>
    cbcc:	e51f0eb4 	ldr	r0, [pc, #-3764]	; bd20 <main+0x7ec>
    cbd0:	ebfff266 	bl	9570 <printf@plt>
    cbd4:	e51f0ec4 	ldr	r0, [pc, #-3780]	; bd18 <main+0x7e4>
    cbd8:	ebfff264 	bl	9570 <printf@plt>
    cbdc:	e51f0ebc 	ldr	r0, [pc, #-3772]	; bd28 <main+0x7f4>
    cbe0:	ebfff262 	bl	9570 <printf@plt>
    cbe4:	ea001739 	b	128d0 <main+0x739c>
    cbe8:	e51f0ed4 	ldr	r0, [pc, #-3796]	; bd1c <main+0x7e8>
    cbec:	ebfff298 	bl	9654 <puts@plt>
    cbf0:	e51f0ed8 	ldr	r0, [pc, #-3800]	; bd20 <main+0x7ec>
    cbf4:	ebfff25d 	bl	9570 <printf@plt>
    cbf8:	e51f0edc 	ldr	r0, [pc, #-3804]	; bd24 <main+0x7f0>
    cbfc:	ebfff25b 	bl	9570 <printf@plt>
    cc00:	e51f0ee0 	ldr	r0, [pc, #-3808]	; bd28 <main+0x7f4>
    cc04:	ebfff259 	bl	9570 <printf@plt>
    cc08:	e51f0ee4 	ldr	r0, [pc, #-3812]	; bd2c <main+0x7f8>
    cc0c:	ebfff293 	bl	9660 <system@plt>
    cc10:	ea00172e 	b	128d0 <main+0x739c>
    cc14:	e1a00005 	mov	r0, r5
    cc18:	e51f1ef0 	ldr	r1, [pc, #-3824]	; bd30 <main+0x7fc>
    cc1c:	ebfff33a 	bl	990c <strcmp@plt>
    cc20:	e3500000 	cmp	r0, #0
    cc24:	1a000193 	bne	d278 <main+0x1d44>
    cc28:	e28d4e12 	add	r4, sp, #288	; 0x120
    cc2c:	e244402c 	sub	r4, r4, #44	; 0x2c
    cc30:	e51f0f04 	ldr	r0, [pc, #-3844]	; bd34 <main+0x800>
    cc34:	e1a01004 	mov	r1, r4
    cc38:	ebfff270 	bl	9600 <sncfg_get@plt>
    cc3c:	e3500001 	cmp	r0, #1
    cc40:	0a000003 	beq	cc54 <main+0x1720>
    cc44:	e5941000 	ldr	r1, [r4]
    cc48:	e3510000 	cmp	r1, #0
    cc4c:	151f0f1c 	ldrne	r0, [pc, #-3868]	; bd38 <main+0x804>
    cc50:	1bfff2b2 	blne	9720 <sncfg_set@plt>
    cc54:	e51f0f20 	ldr	r0, [pc, #-3872]	; bd3c <main+0x808>
    cc58:	ebfff47a 	bl	9e48 <get_cgi>
    cc5c:	e1a01000 	mov	r1, r0
    cc60:	e1a06000 	mov	r6, r0
    cc64:	e51f0f2c 	ldr	r0, [pc, #-3884]	; bd40 <main+0x80c>
    cc68:	ebfff2ac 	bl	9720 <sncfg_set@plt>
    cc6c:	e51f0f30 	ldr	r0, [pc, #-3888]	; bd44 <main+0x810>
    cc70:	ebfff474 	bl	9e48 <get_cgi>
    cc74:	e1a01000 	mov	r1, r0
    cc78:	e51f0f38 	ldr	r0, [pc, #-3896]	; bd48 <main+0x814>
    cc7c:	ebfff2a7 	bl	9720 <sncfg_set@plt>
    cc80:	e51f0f3c 	ldr	r0, [pc, #-3900]	; bd4c <main+0x818>
    cc84:	ebfff46f 	bl	9e48 <get_cgi>
    cc88:	e1a01000 	mov	r1, r0
    cc8c:	e51f0f44 	ldr	r0, [pc, #-3908]	; bd50 <main+0x81c>
    cc90:	ebfff2a2 	bl	9720 <sncfg_set@plt>
    cc94:	e51f0f48 	ldr	r0, [pc, #-3912]	; bd54 <main+0x820>
    cc98:	ebfff46a 	bl	9e48 <get_cgi>
    cc9c:	e1a01000 	mov	r1, r0
    cca0:	e51f0f50 	ldr	r0, [pc, #-3920]	; bd58 <main+0x824>
    cca4:	ebfff29d 	bl	9720 <sncfg_set@plt>
    cca8:	e51f0f54 	ldr	r0, [pc, #-3924]	; bd5c <main+0x828>
    ccac:	ebfff465 	bl	9e48 <get_cgi>
    ccb0:	e1a01000 	mov	r1, r0
    ccb4:	e51f0f5c 	ldr	r0, [pc, #-3932]	; bd60 <main+0x82c>
    ccb8:	ebfff298 	bl	9720 <sncfg_set@plt>
    ccbc:	e51f0f60 	ldr	r0, [pc, #-3936]	; bd64 <main+0x830>
    ccc0:	ebfff460 	bl	9e48 <get_cgi>
    ccc4:	e1a01000 	mov	r1, r0
    ccc8:	e51f0f68 	ldr	r0, [pc, #-3944]	; bd68 <main+0x834>
    cccc:	ebfff293 	bl	9720 <sncfg_set@plt>
    ccd0:	e59f0fbc 	ldr	r0, [pc, #4028]	; dc94 <main+0x2760>
    ccd4:	ebfff45b 	bl	9e48 <get_cgi>
    ccd8:	e1a01000 	mov	r1, r0
    ccdc:	e59f0fb4 	ldr	r0, [pc, #4020]	; dc98 <main+0x2764>
    cce0:	ebfff28e 	bl	9720 <sncfg_set@plt>
    cce4:	e59f0fa8 	ldr	r0, [pc, #4008]	; dc94 <main+0x2760>
    cce8:	ebfff456 	bl	9e48 <get_cgi>
    ccec:	e1a01000 	mov	r1, r0
    ccf0:	e59f0fa4 	ldr	r0, [pc, #4004]	; dc9c <main+0x2768>
    ccf4:	ebfff289 	bl	9720 <sncfg_set@plt>
    ccf8:	e59f0f94 	ldr	r0, [pc, #3988]	; dc94 <main+0x2760>
    ccfc:	ebfff451 	bl	9e48 <get_cgi>
    cd00:	e1a01000 	mov	r1, r0
    cd04:	e59f0f94 	ldr	r0, [pc, #3988]	; dca0 <main+0x276c>
    cd08:	ebfff284 	bl	9720 <sncfg_set@plt>
    cd0c:	e59f0f80 	ldr	r0, [pc, #3968]	; dc94 <main+0x2760>
    cd10:	ebfff44c 	bl	9e48 <get_cgi>
    cd14:	e1a01000 	mov	r1, r0
    cd18:	e59f0f84 	ldr	r0, [pc, #3972]	; dca4 <main+0x2770>
    cd1c:	ebfff27f 	bl	9720 <sncfg_set@plt>
    cd20:	e59f0f80 	ldr	r0, [pc, #3968]	; dca8 <main+0x2774>
    cd24:	ebfff447 	bl	9e48 <get_cgi>
    cd28:	e59f1f7c 	ldr	r1, [pc, #3964]	; dcac <main+0x2778>
    cd2c:	e1a05000 	mov	r5, r0
    cd30:	ebfff2f5 	bl	990c <strcmp@plt>
    cd34:	e3500000 	cmp	r0, #0
    cd38:	1a000013 	bne	cd8c <main+0x1858>
    cd3c:	e59f0f6c 	ldr	r0, [pc, #3948]	; dcb0 <main+0x277c>
    cd40:	ebfff440 	bl	9e48 <get_cgi>
    cd44:	e1a01000 	mov	r1, r0
    cd48:	e59f0f64 	ldr	r0, [pc, #3940]	; dcb4 <main+0x2780>
    cd4c:	ebfff273 	bl	9720 <sncfg_set@plt>
    cd50:	e59f0f58 	ldr	r0, [pc, #3928]	; dcb0 <main+0x277c>
    cd54:	ebfff43b 	bl	9e48 <get_cgi>
    cd58:	e1a01000 	mov	r1, r0
    cd5c:	e59f0f54 	ldr	r0, [pc, #3924]	; dcb8 <main+0x2784>
    cd60:	ebfff26e 	bl	9720 <sncfg_set@plt>
    cd64:	e59f0f44 	ldr	r0, [pc, #3908]	; dcb0 <main+0x277c>
    cd68:	ebfff436 	bl	9e48 <get_cgi>
    cd6c:	e1a01000 	mov	r1, r0
    cd70:	e59f0f44 	ldr	r0, [pc, #3908]	; dcbc <main+0x2788>
    cd74:	ebfff269 	bl	9720 <sncfg_set@plt>
    cd78:	e59f0f30 	ldr	r0, [pc, #3888]	; dcb0 <main+0x277c>
    cd7c:	ebfff431 	bl	9e48 <get_cgi>
    cd80:	e1a01000 	mov	r1, r0
    cd84:	e59f0f34 	ldr	r0, [pc, #3892]	; dcc0 <main+0x278c>
    cd88:	ea000036 	b	ce68 <main+0x1934>
    cd8c:	e1a00005 	mov	r0, r5
    cd90:	e59f1f2c 	ldr	r1, [pc, #3884]	; dcc4 <main+0x2790>
    cd94:	ebfff2dc 	bl	990c <strcmp@plt>
    cd98:	e3500000 	cmp	r0, #0
    cd9c:	0a000009 	beq	cdc8 <main+0x1894>
    cda0:	e1a00005 	mov	r0, r5
    cda4:	e59f1f1c 	ldr	r1, [pc, #3868]	; dcc8 <main+0x2794>
    cda8:	ebfff2d7 	bl	990c <strcmp@plt>
    cdac:	e3500000 	cmp	r0, #0
    cdb0:	0a00000f 	beq	cdf4 <main+0x18c0>
    cdb4:	e1a00005 	mov	r0, r5
    cdb8:	e59f1f0c 	ldr	r1, [pc, #3852]	; dccc <main+0x2798>
    cdbc:	ebfff2d2 	bl	990c <strcmp@plt>
    cdc0:	e3500000 	cmp	r0, #0
    cdc4:	1a000005 	bne	cde0 <main+0x18ac>
    cdc8:	e59f0f00 	ldr	r0, [pc, #3840]	; dcd0 <main+0x279c>
    cdcc:	ebfff41d 	bl	9e48 <get_cgi>
    cdd0:	e1a01000 	mov	r1, r0
    cdd4:	e59f0ef8 	ldr	r0, [pc, #3832]	; dcd4 <main+0x27a0>
    cdd8:	ebfff250 	bl	9720 <sncfg_set@plt>
    cddc:	ea000013 	b	ce30 <main+0x18fc>
    cde0:	e1a00005 	mov	r0, r5
    cde4:	e59f1eec 	ldr	r1, [pc, #3820]	; dcd8 <main+0x27a4>
    cde8:	ebfff2c7 	bl	990c <strcmp@plt>
    cdec:	e3500000 	cmp	r0, #0
    cdf0:	1a000009 	bne	ce1c <main+0x18e8>
    cdf4:	e59f0ed4 	ldr	r0, [pc, #3796]	; dcd0 <main+0x279c>
    cdf8:	ebfff412 	bl	9e48 <get_cgi>
    cdfc:	e1a01000 	mov	r1, r0
    ce00:	e59f0ecc 	ldr	r0, [pc, #3788]	; dcd4 <main+0x27a0>
    ce04:	ebfff245 	bl	9720 <sncfg_set@plt>
    ce08:	e59f0ecc 	ldr	r0, [pc, #3788]	; dcdc <main+0x27a8>
    ce0c:	ebfff40d 	bl	9e48 <get_cgi>
    ce10:	e1a01000 	mov	r1, r0
    ce14:	e59f0ec4 	ldr	r0, [pc, #3780]	; dce0 <main+0x27ac>
    ce18:	ea000018 	b	ce80 <main+0x194c>
    ce1c:	e1a00005 	mov	r0, r5
    ce20:	e59f1ebc 	ldr	r1, [pc, #3772]	; dce4 <main+0x27b0>
    ce24:	ebfff2b8 	bl	990c <strcmp@plt>
    ce28:	e3500000 	cmp	r0, #0
    ce2c:	1a000014 	bne	ce84 <main+0x1950>
    ce30:	e59f0eb0 	ldr	r0, [pc, #3760]	; dce8 <main+0x27b4>
    ce34:	ebfff403 	bl	9e48 <get_cgi>
    ce38:	e1a01000 	mov	r1, r0
    ce3c:	e59f0ea8 	ldr	r0, [pc, #3752]	; dcec <main+0x27b8>
    ce40:	ebfff236 	bl	9720 <sncfg_set@plt>
    ce44:	e59f0ea4 	ldr	r0, [pc, #3748]	; dcf0 <main+0x27bc>
    ce48:	ebfff3fe 	bl	9e48 <get_cgi>
    ce4c:	e1a01000 	mov	r1, r0
    ce50:	e59f0e9c 	ldr	r0, [pc, #3740]	; dcf4 <main+0x27c0>
    ce54:	ebfff231 	bl	9720 <sncfg_set@plt>
    ce58:	e59f0e98 	ldr	r0, [pc, #3736]	; dcf8 <main+0x27c4>
    ce5c:	ebfff3f9 	bl	9e48 <get_cgi>
    ce60:	e1a01000 	mov	r1, r0
    ce64:	e59f0e90 	ldr	r0, [pc, #3728]	; dcfc <main+0x27c8>
    ce68:	ebfff22c 	bl	9720 <sncfg_set@plt>
    ce6c:	e59f1e8c 	ldr	r1, [pc, #3724]	; dd00 <main+0x27cc>
    ce70:	e59f0e8c 	ldr	r0, [pc, #3724]	; dd04 <main+0x27d0>
    ce74:	ebfff229 	bl	9720 <sncfg_set@plt>
    ce78:	e59f0e88 	ldr	r0, [pc, #3720]	; dd08 <main+0x27d4>
    ce7c:	e59f1e88 	ldr	r1, [pc, #3720]	; dd0c <main+0x27d8>
    ce80:	ebfff226 	bl	9720 <sncfg_set@plt>
    ce84:	e59f0e84 	ldr	r0, [pc, #3716]	; dd10 <main+0x27dc>
    ce88:	ebfff3ee 	bl	9e48 <get_cgi>
    ce8c:	e1a01000 	mov	r1, r0
    ce90:	e59f0e7c 	ldr	r0, [pc, #3708]	; dd14 <main+0x27e0>
    ce94:	ebfff221 	bl	9720 <sncfg_set@plt>
    ce98:	e59f0e78 	ldr	r0, [pc, #3704]	; dd18 <main+0x27e4>
    ce9c:	ebfff3e9 	bl	9e48 <get_cgi>
    cea0:	e1a01000 	mov	r1, r0
    cea4:	e1a04000 	mov	r4, r0
    cea8:	e59f0e6c 	ldr	r0, [pc, #3692]	; dd1c <main+0x27e8>
    ceac:	ebfff21b 	bl	9720 <sncfg_set@plt>
    ceb0:	e1a00004 	mov	r0, r4
    ceb4:	e59f1e44 	ldr	r1, [pc, #3652]	; dd00 <main+0x27cc>
    ceb8:	ebfff293 	bl	990c <strcmp@plt>
    cebc:	e3500000 	cmp	r0, #0
    cec0:	0a000025 	beq	cf5c <main+0x1a28>
    cec4:	e59f0e54 	ldr	r0, [pc, #3668]	; dd20 <main+0x27ec>
    cec8:	ebfff3de 	bl	9e48 <get_cgi>
    cecc:	e1a01000 	mov	r1, r0
    ced0:	e59f0e4c 	ldr	r0, [pc, #3660]	; dd24 <main+0x27f0>
    ced4:	ebfff211 	bl	9720 <sncfg_set@plt>
    ced8:	e59f0e48 	ldr	r0, [pc, #3656]	; dd28 <main+0x27f4>
    cedc:	ebfff3d9 	bl	9e48 <get_cgi>
    cee0:	e59f1e44 	ldr	r1, [pc, #3652]	; dd2c <main+0x27f8>
    cee4:	ebfff288 	bl	990c <strcmp@plt>
    cee8:	e3500000 	cmp	r0, #0
    ceec:	059f1e3c 	ldreq	r1, [pc, #3644]	; dd30 <main+0x27fc>
    cef0:	0a000002 	beq	cf00 <main+0x19cc>
    cef4:	e59f0e2c 	ldr	r0, [pc, #3628]	; dd28 <main+0x27f4>
    cef8:	ebfff3d2 	bl	9e48 <get_cgi>
    cefc:	e1a01000 	mov	r1, r0
    cf00:	e59f0e2c 	ldr	r0, [pc, #3628]	; dd34 <main+0x2800>
    cf04:	ebfff205 	bl	9720 <sncfg_set@plt>
    cf08:	e1a00005 	mov	r0, r5
    cf0c:	e59f1d98 	ldr	r1, [pc, #3480]	; dcac <main+0x2778>
    cf10:	ebfff27d 	bl	990c <strcmp@plt>
    cf14:	e3500000 	cmp	r0, #0
    cf18:	059f0e18 	ldreq	r0, [pc, #3608]	; dd38 <main+0x2804>
    cf1c:	0a00000a 	beq	cf4c <main+0x1a18>
    cf20:	e1a00005 	mov	r0, r5
    cf24:	e59f1d9c 	ldr	r1, [pc, #3484]	; dcc8 <main+0x2794>
    cf28:	ebfff277 	bl	990c <strcmp@plt>
    cf2c:	e3500000 	cmp	r0, #0
    cf30:	0a000004 	beq	cf48 <main+0x1a14>
    cf34:	e1a00005 	mov	r0, r5
    cf38:	e59f1d98 	ldr	r1, [pc, #3480]	; dcd8 <main+0x27a4>
    cf3c:	ebfff272 	bl	990c <strcmp@plt>
    cf40:	e3500000 	cmp	r0, #0
    cf44:	1a000004 	bne	cf5c <main+0x1a28>
    cf48:	e59f0d78 	ldr	r0, [pc, #3448]	; dcc8 <main+0x2794>
    cf4c:	ebfff3bd 	bl	9e48 <get_cgi>
    cf50:	e1a01000 	mov	r1, r0
    cf54:	e59f0de0 	ldr	r0, [pc, #3552]	; dd3c <main+0x2808>
    cf58:	ebfff1f0 	bl	9720 <sncfg_set@plt>
    cf5c:	e59f0ddc 	ldr	r0, [pc, #3548]	; dd40 <main+0x280c>
    cf60:	ebfff3b8 	bl	9e48 <get_cgi>
    cf64:	e1a01000 	mov	r1, r0
    cf68:	e1a04000 	mov	r4, r0
    cf6c:	e59f0dd0 	ldr	r0, [pc, #3536]	; dd44 <main+0x2810>
    cf70:	ebfff1ea 	bl	9720 <sncfg_set@plt>
    cf74:	e1a00004 	mov	r0, r4
    cf78:	e59f1d80 	ldr	r1, [pc, #3456]	; dd00 <main+0x27cc>
    cf7c:	ebfff262 	bl	990c <strcmp@plt>
    cf80:	e3500000 	cmp	r0, #0
    cf84:	0a000004 	beq	cf9c <main+0x1a68>
    cf88:	e59f0db8 	ldr	r0, [pc, #3512]	; dd48 <main+0x2814>
    cf8c:	ebfff3ad 	bl	9e48 <get_cgi>
    cf90:	e1a01000 	mov	r1, r0
    cf94:	e59f0db0 	ldr	r0, [pc, #3504]	; dd4c <main+0x2818>
    cf98:	ebfff1e0 	bl	9720 <sncfg_set@plt>
    cf9c:	e59f0dac 	ldr	r0, [pc, #3500]	; dd50 <main+0x281c>
    cfa0:	ebfff3a8 	bl	9e48 <get_cgi>
    cfa4:	e59f1da8 	ldr	r1, [pc, #3496]	; dd54 <main+0x2820>
    cfa8:	e1a02000 	mov	r2, r0
    cfac:	e1a05000 	mov	r5, r0
    cfb0:	ebfff25b 	bl	9924 <sprintf@plt>
    cfb4:	e59f1d44 	ldr	r1, [pc, #3396]	; dd00 <main+0x27cc>
    cfb8:	e1a00004 	mov	r0, r4
    cfbc:	ebfff252 	bl	990c <strcmp@plt>
    cfc0:	e3500000 	cmp	r0, #0
    cfc4:	059f1d34 	ldreq	r1, [pc, #3380]	; dd00 <main+0x27cc>
    cfc8:	059f0d88 	ldreq	r0, [pc, #3464]	; dd58 <main+0x2824>
    cfcc:	0a000016 	beq	d02c <main+0x1af8>
    cfd0:	e1a00004 	mov	r0, r4
    cfd4:	e59f1d30 	ldr	r1, [pc, #3376]	; dd0c <main+0x27d8>
    cfd8:	ebfff24b 	bl	990c <strcmp@plt>
    cfdc:	e3500000 	cmp	r0, #0
    cfe0:	1a000004 	bne	cff8 <main+0x1ac4>
    cfe4:	e59f1d20 	ldr	r1, [pc, #3360]	; dd0c <main+0x27d8>
    cfe8:	e59f0d68 	ldr	r0, [pc, #3432]	; dd58 <main+0x2824>
    cfec:	ebfff1cb 	bl	9720 <sncfg_set@plt>
    cff0:	e59f1d14 	ldr	r1, [pc, #3348]	; dd0c <main+0x27d8>
    cff4:	ea000008 	b	d01c <main+0x1ae8>
    cff8:	e1a00004 	mov	r0, r4
    cffc:	e59f1d58 	ldr	r1, [pc, #3416]	; dd5c <main+0x2828>
    d000:	ebfff241 	bl	990c <strcmp@plt>
    d004:	e3500000 	cmp	r0, #0
    d008:	1a000008 	bne	d030 <main+0x1afc>
    d00c:	e59f1cf8 	ldr	r1, [pc, #3320]	; dd0c <main+0x27d8>
    d010:	e59f0d40 	ldr	r0, [pc, #3392]	; dd58 <main+0x2824>
    d014:	ebfff1c1 	bl	9720 <sncfg_set@plt>
    d018:	e59f1ce0 	ldr	r1, [pc, #3296]	; dd00 <main+0x27cc>
    d01c:	e59f0d3c 	ldr	r0, [pc, #3388]	; dd60 <main+0x282c>
    d020:	ebfff1be 	bl	9720 <sncfg_set@plt>
    d024:	e59f0d24 	ldr	r0, [pc, #3364]	; dd50 <main+0x281c>
    d028:	e1a01005 	mov	r1, r5
    d02c:	ebfff1bb 	bl	9720 <sncfg_set@plt>
    d030:	e28d4e12 	add	r4, sp, #288	; 0x120
    d034:	e2444030 	sub	r4, r4, #48	; 0x30
    d038:	e1a01004 	mov	r1, r4
    d03c:	e59f0d20 	ldr	r0, [pc, #3360]	; dd64 <main+0x2830>
    d040:	ebfff16e 	bl	9600 <sncfg_get@plt>
    d044:	e5940000 	ldr	r0, [r4]
    d048:	e59f1d0c 	ldr	r1, [pc, #3340]	; dd5c <main+0x2828>
    d04c:	ebfff22e 	bl	990c <strcmp@plt>
    d050:	e3500000 	cmp	r0, #0
    d054:	1a00006c 	bne	d20c <main+0x1cd8>
    d058:	e1a00006 	mov	r0, r6
    d05c:	e59f1c9c 	ldr	r1, [pc, #3228]	; dd00 <main+0x27cc>
    d060:	ebfff229 	bl	990c <strcmp@plt>
    d064:	e3500000 	cmp	r0, #0
    d068:	1a000067 	bne	d20c <main+0x1cd8>
    d06c:	e59f0cf4 	ldr	r0, [pc, #3316]	; dd68 <main+0x2834>
    d070:	ebfff374 	bl	9e48 <get_cgi>
    d074:	e59f1c30 	ldr	r1, [pc, #3120]	; dcac <main+0x2778>
    d078:	e1a04000 	mov	r4, r0
    d07c:	ebfff222 	bl	990c <strcmp@plt>
    d080:	e3500000 	cmp	r0, #0
    d084:	1a000013 	bne	d0d8 <main+0x1ba4>
    d088:	e59f0cdc 	ldr	r0, [pc, #3292]	; dd6c <main+0x2838>
    d08c:	ebfff36d 	bl	9e48 <get_cgi>
    d090:	e1a01000 	mov	r1, r0
    d094:	e59f0cd4 	ldr	r0, [pc, #3284]	; dd70 <main+0x283c>
    d098:	ebfff1a0 	bl	9720 <sncfg_set@plt>
    d09c:	e59f0cc8 	ldr	r0, [pc, #3272]	; dd6c <main+0x2838>
    d0a0:	ebfff368 	bl	9e48 <get_cgi>
    d0a4:	e1a01000 	mov	r1, r0
    d0a8:	e59f0cc4 	ldr	r0, [pc, #3268]	; dd74 <main+0x2840>
    d0ac:	ebfff19b 	bl	9720 <sncfg_set@plt>
    d0b0:	e59f0cb4 	ldr	r0, [pc, #3252]	; dd6c <main+0x2838>
    d0b4:	ebfff363 	bl	9e48 <get_cgi>
    d0b8:	e1a01000 	mov	r1, r0
    d0bc:	e59f0cb4 	ldr	r0, [pc, #3252]	; dd78 <main+0x2844>
    d0c0:	ebfff196 	bl	9720 <sncfg_set@plt>
    d0c4:	e59f0ca0 	ldr	r0, [pc, #3232]	; dd6c <main+0x2838>
    d0c8:	ebfff35e 	bl	9e48 <get_cgi>
    d0cc:	e1a01000 	mov	r1, r0
    d0d0:	e59f0ca4 	ldr	r0, [pc, #3236]	; dd7c <main+0x2848>
    d0d4:	ea000036 	b	d1b4 <main+0x1c80>
    d0d8:	e1a00004 	mov	r0, r4
    d0dc:	e59f1be0 	ldr	r1, [pc, #3040]	; dcc4 <main+0x2790>
    d0e0:	ebfff209 	bl	990c <strcmp@plt>
    d0e4:	e3500000 	cmp	r0, #0
    d0e8:	0a000009 	beq	d114 <main+0x1be0>
    d0ec:	e1a00004 	mov	r0, r4
    d0f0:	e59f1bd0 	ldr	r1, [pc, #3024]	; dcc8 <main+0x2794>
    d0f4:	ebfff204 	bl	990c <strcmp@plt>
    d0f8:	e3500000 	cmp	r0, #0
    d0fc:	0a00000f 	beq	d140 <main+0x1c0c>
    d100:	e1a00004 	mov	r0, r4
    d104:	e59f1bc0 	ldr	r1, [pc, #3008]	; dccc <main+0x2798>
    d108:	ebfff1ff 	bl	990c <strcmp@plt>
    d10c:	e3500000 	cmp	r0, #0
    d110:	1a000005 	bne	d12c <main+0x1bf8>
    d114:	e59f0bb4 	ldr	r0, [pc, #2996]	; dcd0 <main+0x279c>
    d118:	ebfff34a 	bl	9e48 <get_cgi>
    d11c:	e1a01000 	mov	r1, r0
    d120:	e59f0bac 	ldr	r0, [pc, #2988]	; dcd4 <main+0x27a0>
    d124:	ebfff17d 	bl	9720 <sncfg_set@plt>
    d128:	ea000013 	b	d17c <main+0x1c48>
    d12c:	e1a00004 	mov	r0, r4
    d130:	e59f1ba0 	ldr	r1, [pc, #2976]	; dcd8 <main+0x27a4>
    d134:	ebfff1f4 	bl	990c <strcmp@plt>
    d138:	e3500000 	cmp	r0, #0
    d13c:	1a000009 	bne	d168 <main+0x1c34>
    d140:	e59f0b88 	ldr	r0, [pc, #2952]	; dcd0 <main+0x279c>
    d144:	ebfff33f 	bl	9e48 <get_cgi>
    d148:	e1a01000 	mov	r1, r0
    d14c:	e59f0b80 	ldr	r0, [pc, #2944]	; dcd4 <main+0x27a0>
    d150:	ebfff172 	bl	9720 <sncfg_set@plt>
    d154:	e59f0c24 	ldr	r0, [pc, #3108]	; dd80 <main+0x284c>
    d158:	ebfff33a 	bl	9e48 <get_cgi>
    d15c:	e1a01000 	mov	r1, r0
    d160:	e59f0c1c 	ldr	r0, [pc, #3100]	; dd84 <main+0x2850>
    d164:	ea000012 	b	d1b4 <main+0x1c80>
    d168:	e1a00004 	mov	r0, r4
    d16c:	e59f1b70 	ldr	r1, [pc, #2928]	; dce4 <main+0x27b0>
    d170:	ebfff1e5 	bl	990c <strcmp@plt>
    d174:	e3500000 	cmp	r0, #0
    d178:	1a00000e 	bne	d1b8 <main+0x1c84>
    d17c:	e59f0b64 	ldr	r0, [pc, #2916]	; dce8 <main+0x27b4>
    d180:	ebfff330 	bl	9e48 <get_cgi>
    d184:	e1a01000 	mov	r1, r0
    d188:	e59f0b5c 	ldr	r0, [pc, #2908]	; dcec <main+0x27b8>
    d18c:	ebfff163 	bl	9720 <sncfg_set@plt>
    d190:	e59f0b58 	ldr	r0, [pc, #2904]	; dcf0 <main+0x27bc>
    d194:	ebfff32b 	bl	9e48 <get_cgi>
    d198:	e1a01000 	mov	r1, r0
    d19c:	e59f0b50 	ldr	r0, [pc, #2896]	; dcf4 <main+0x27c0>
    d1a0:	ebfff15e 	bl	9720 <sncfg_set@plt>
    d1a4:	e59f0b4c 	ldr	r0, [pc, #2892]	; dcf8 <main+0x27c4>
    d1a8:	ebfff326 	bl	9e48 <get_cgi>
    d1ac:	e1a01000 	mov	r1, r0
    d1b0:	e59f0b44 	ldr	r0, [pc, #2884]	; dcfc <main+0x27c8>
    d1b4:	ebfff159 	bl	9720 <sncfg_set@plt>
    d1b8:	e59f0bc8 	ldr	r0, [pc, #3016]	; dd88 <main+0x2854>
    d1bc:	ebfff321 	bl	9e48 <get_cgi>
    d1c0:	e1a01000 	mov	r1, r0
    d1c4:	e59f0bc0 	ldr	r0, [pc, #3008]	; dd8c <main+0x2858>
    d1c8:	ebfff154 	bl	9720 <sncfg_set@plt>
    d1cc:	e59f0bbc 	ldr	r0, [pc, #3004]	; dd90 <main+0x285c>
    d1d0:	ebfff31c 	bl	9e48 <get_cgi>
    d1d4:	e1a01000 	mov	r1, r0
    d1d8:	e1a04000 	mov	r4, r0
    d1dc:	e59f0bb0 	ldr	r0, [pc, #2992]	; dd94 <main+0x2860>
    d1e0:	ebfff14e 	bl	9720 <sncfg_set@plt>
    d1e4:	e1a00004 	mov	r0, r4
    d1e8:	e59f1b10 	ldr	r1, [pc, #2832]	; dd00 <main+0x27cc>
    d1ec:	ebfff1c6 	bl	990c <strcmp@plt>
    d1f0:	e3500000 	cmp	r0, #0
    d1f4:	0a000004 	beq	d20c <main+0x1cd8>
    d1f8:	e59f0b98 	ldr	r0, [pc, #2968]	; dd98 <main+0x2864>
    d1fc:	ebfff311 	bl	9e48 <get_cgi>
    d200:	e1a01000 	mov	r1, r0
    d204:	e59f0b90 	ldr	r0, [pc, #2960]	; dd9c <main+0x2868>
    d208:	ebfff144 	bl	9720 <sncfg_set@plt>
    d20c:	ebfff158 	bl	9774 <sncfg_commit@plt>
    d210:	e59f0b88 	ldr	r0, [pc, #2952]	; dda0 <main+0x286c>
    d214:	ebfff30b 	bl	9e48 <get_cgi>
    d218:	e59f1aec 	ldr	r1, [pc, #2796]	; dd0c <main+0x27d8>
    d21c:	ebfff1ba 	bl	990c <strcmp@plt>
    d220:	e3500000 	cmp	r0, #0
    d224:	1a000008 	bne	d24c <main+0x1d18>
    d228:	e59f0f8c 	ldr	r0, [pc, #3980]	; e1bc <main+0x2c88>
    d22c:	ebfff108 	bl	9654 <puts@plt>
    d230:	e59f0f88 	ldr	r0, [pc, #3976]	; e1c0 <main+0x2c8c>
    d234:	ebfff0cd 	bl	9570 <printf@plt>
    d238:	e59f0b64 	ldr	r0, [pc, #2916]	; dda4 <main+0x2870>
    d23c:	ebfff0cb 	bl	9570 <printf@plt>
    d240:	e59f0f80 	ldr	r0, [pc, #3968]	; e1c8 <main+0x2c94>
    d244:	ebfff0c9 	bl	9570 <printf@plt>
    d248:	ea0015a0 	b	128d0 <main+0x739c>
    d24c:	e59f0f68 	ldr	r0, [pc, #3944]	; e1bc <main+0x2c88>
    d250:	ebfff0ff 	bl	9654 <puts@plt>
    d254:	e59f0f64 	ldr	r0, [pc, #3940]	; e1c0 <main+0x2c8c>
    d258:	ebfff0c4 	bl	9570 <printf@plt>
    d25c:	e59f0b44 	ldr	r0, [pc, #2884]	; dda8 <main+0x2874>
    d260:	ebfff0c2 	bl	9570 <printf@plt>
    d264:	e59f0f5c 	ldr	r0, [pc, #3932]	; e1c8 <main+0x2c94>
    d268:	ebfff0c0 	bl	9570 <printf@plt>
    d26c:	e59f0b38 	ldr	r0, [pc, #2872]	; ddac <main+0x2878>
    d270:	ebfff0fa 	bl	9660 <system@plt>
    d274:	ea001595 	b	128d0 <main+0x739c>
    d278:	e1a00005 	mov	r0, r5
    d27c:	e59f1b2c 	ldr	r1, [pc, #2860]	; ddb0 <main+0x287c>
    d280:	ebfff1a1 	bl	990c <strcmp@plt>
    d284:	e3500000 	cmp	r0, #0
    d288:	1a000144 	bne	d7a0 <main+0x226c>
    d28c:	e1a01007 	mov	r1, r7
    d290:	e59f0b1c 	ldr	r0, [pc, #2844]	; ddb4 <main+0x2880>
    d294:	ebfff36c 	bl	a04c <init_obj>
    d298:	e59f0b18 	ldr	r0, [pc, #2840]	; ddb8 <main+0x2884>
    d29c:	ebfff2e9 	bl	9e48 <get_cgi>
    d2a0:	e1a01000 	mov	r1, r0
    d2a4:	e59f0b10 	ldr	r0, [pc, #2832]	; ddbc <main+0x2888>
    d2a8:	ebfff6bd 	bl	ada4 <Sncfg_set>
    d2ac:	e59f0b0c 	ldr	r0, [pc, #2828]	; ddc0 <main+0x288c>
    d2b0:	ebfff2e4 	bl	9e48 <get_cgi>
    d2b4:	e1a01000 	mov	r1, r0
    d2b8:	e59f0b04 	ldr	r0, [pc, #2820]	; ddc4 <main+0x2890>
    d2bc:	ebfff6b8 	bl	ada4 <Sncfg_set>
    d2c0:	e59f0b00 	ldr	r0, [pc, #2816]	; ddc8 <main+0x2894>
    d2c4:	ebfff2df 	bl	9e48 <get_cgi>
    d2c8:	e1a01000 	mov	r1, r0
    d2cc:	e59f0af8 	ldr	r0, [pc, #2808]	; ddcc <main+0x2898>
    d2d0:	ebfff6b3 	bl	ada4 <Sncfg_set>
    d2d4:	e59f0af4 	ldr	r0, [pc, #2804]	; ddd0 <main+0x289c>
    d2d8:	ebfff2da 	bl	9e48 <get_cgi>
    d2dc:	e1a01000 	mov	r1, r0
    d2e0:	e59f0aec 	ldr	r0, [pc, #2796]	; ddd4 <main+0x28a0>
    d2e4:	ebfff6ae 	bl	ada4 <Sncfg_set>
    d2e8:	e59f0ae8 	ldr	r0, [pc, #2792]	; ddd8 <main+0x28a4>
    d2ec:	ebfff2d5 	bl	9e48 <get_cgi>
    d2f0:	e1a01000 	mov	r1, r0
    d2f4:	e59f0ae0 	ldr	r0, [pc, #2784]	; dddc <main+0x28a8>
    d2f8:	ebfff6a9 	bl	ada4 <Sncfg_set>
    d2fc:	e59f0adc 	ldr	r0, [pc, #2780]	; dde0 <main+0x28ac>
    d300:	ebfff2d0 	bl	9e48 <get_cgi>
    d304:	e1a01000 	mov	r1, r0
    d308:	e59f0ad4 	ldr	r0, [pc, #2772]	; dde4 <main+0x28b0>
    d30c:	ebfff6a4 	bl	ada4 <Sncfg_set>
    d310:	e59f0ad0 	ldr	r0, [pc, #2768]	; dde8 <main+0x28b4>
    d314:	ebfff2cb 	bl	9e48 <get_cgi>
    d318:	e1a01000 	mov	r1, r0
    d31c:	e59f0ac8 	ldr	r0, [pc, #2760]	; ddec <main+0x28b8>
    d320:	ebfff69f 	bl	ada4 <Sncfg_set>
    d324:	e59f0ac4 	ldr	r0, [pc, #2756]	; ddf0 <main+0x28bc>
    d328:	ebfff2c6 	bl	9e48 <get_cgi>
    d32c:	e1a01000 	mov	r1, r0
    d330:	e59f0abc 	ldr	r0, [pc, #2748]	; ddf4 <main+0x28c0>
    d334:	ebfff69a 	bl	ada4 <Sncfg_set>
    d338:	e59f0ab8 	ldr	r0, [pc, #2744]	; ddf8 <main+0x28c4>
    d33c:	ebfff2c1 	bl	9e48 <get_cgi>
    d340:	e1a01000 	mov	r1, r0
    d344:	e59f0ab0 	ldr	r0, [pc, #2736]	; ddfc <main+0x28c8>
    d348:	ebfff695 	bl	ada4 <Sncfg_set>
    d34c:	e59f0aac 	ldr	r0, [pc, #2732]	; de00 <main+0x28cc>
    d350:	ebfff2bc 	bl	9e48 <get_cgi>
    d354:	e1a01000 	mov	r1, r0
    d358:	e59f0aa4 	ldr	r0, [pc, #2724]	; de04 <main+0x28d0>
    d35c:	ebfff690 	bl	ada4 <Sncfg_set>
    d360:	e59f0aa0 	ldr	r0, [pc, #2720]	; de08 <main+0x28d4>
    d364:	ebfff2b7 	bl	9e48 <get_cgi>
    d368:	e1a01000 	mov	r1, r0
    d36c:	e59f0a98 	ldr	r0, [pc, #2712]	; de0c <main+0x28d8>
    d370:	ebfff68b 	bl	ada4 <Sncfg_set>
    d374:	e59f0a94 	ldr	r0, [pc, #2708]	; de10 <main+0x28dc>
    d378:	ebfff2b2 	bl	9e48 <get_cgi>
    d37c:	e1a01000 	mov	r1, r0
    d380:	e59f0a8c 	ldr	r0, [pc, #2700]	; de14 <main+0x28e0>
    d384:	ebfff686 	bl	ada4 <Sncfg_set>
    d388:	e59f0a88 	ldr	r0, [pc, #2696]	; de18 <main+0x28e4>
    d38c:	ebfff2ad 	bl	9e48 <get_cgi>
    d390:	e1a01000 	mov	r1, r0
    d394:	e59f0a80 	ldr	r0, [pc, #2688]	; de1c <main+0x28e8>
    d398:	ebfff681 	bl	ada4 <Sncfg_set>
    d39c:	e59f0a7c 	ldr	r0, [pc, #2684]	; de20 <main+0x28ec>
    d3a0:	ebfff2a8 	bl	9e48 <get_cgi>
    d3a4:	e1a01000 	mov	r1, r0
    d3a8:	e59f0a74 	ldr	r0, [pc, #2676]	; de24 <main+0x28f0>
    d3ac:	ebfff67c 	bl	ada4 <Sncfg_set>
    d3b0:	e59f0a00 	ldr	r0, [pc, #2560]	; ddb8 <main+0x2884>
    d3b4:	ebfff2a3 	bl	9e48 <get_cgi>
    d3b8:	e1a01000 	mov	r1, r0
    d3bc:	e59f0a64 	ldr	r0, [pc, #2660]	; de28 <main+0x28f4>
    d3c0:	ebfff677 	bl	ada4 <Sncfg_set>
    d3c4:	e59f09f4 	ldr	r0, [pc, #2548]	; ddc0 <main+0x288c>
    d3c8:	ebfff29e 	bl	9e48 <get_cgi>
    d3cc:	e1a01000 	mov	r1, r0
    d3d0:	e59f0a54 	ldr	r0, [pc, #2644]	; de2c <main+0x28f8>
    d3d4:	ebfff672 	bl	ada4 <Sncfg_set>
    d3d8:	e59f09e8 	ldr	r0, [pc, #2536]	; ddc8 <main+0x2894>
    d3dc:	ebfff299 	bl	9e48 <get_cgi>
    d3e0:	e1a01000 	mov	r1, r0
    d3e4:	e59f0a44 	ldr	r0, [pc, #2628]	; de30 <main+0x28fc>
    d3e8:	ebfff66d 	bl	ada4 <Sncfg_set>
    d3ec:	e59f09dc 	ldr	r0, [pc, #2524]	; ddd0 <main+0x289c>
    d3f0:	ebfff294 	bl	9e48 <get_cgi>
    d3f4:	e1a01000 	mov	r1, r0
    d3f8:	e59f0a34 	ldr	r0, [pc, #2612]	; de34 <main+0x2900>
    d3fc:	ebfff668 	bl	ada4 <Sncfg_set>
    d400:	e59f09d0 	ldr	r0, [pc, #2512]	; ddd8 <main+0x28a4>
    d404:	ebfff28f 	bl	9e48 <get_cgi>
    d408:	e1a01000 	mov	r1, r0
    d40c:	e59f0a24 	ldr	r0, [pc, #2596]	; de38 <main+0x2904>
    d410:	ebfff663 	bl	ada4 <Sncfg_set>
    d414:	e59f09c4 	ldr	r0, [pc, #2500]	; dde0 <main+0x28ac>
    d418:	ebfff28a 	bl	9e48 <get_cgi>
    d41c:	e1a01000 	mov	r1, r0
    d420:	e59f0a14 	ldr	r0, [pc, #2580]	; de3c <main+0x2908>
    d424:	ebfff65e 	bl	ada4 <Sncfg_set>
    d428:	e59f09e8 	ldr	r0, [pc, #2536]	; de18 <main+0x28e4>
    d42c:	ebfff285 	bl	9e48 <get_cgi>
    d430:	e1a01000 	mov	r1, r0
    d434:	e59f0a04 	ldr	r0, [pc, #2564]	; de40 <main+0x290c>
    d438:	ebfff659 	bl	ada4 <Sncfg_set>
    d43c:	e59f09dc 	ldr	r0, [pc, #2524]	; de20 <main+0x28ec>
    d440:	ebfff280 	bl	9e48 <get_cgi>
    d444:	e1a01000 	mov	r1, r0
    d448:	e59f09f4 	ldr	r0, [pc, #2548]	; de44 <main+0x2910>
    d44c:	ebfff654 	bl	ada4 <Sncfg_set>
    d450:	e59f09f0 	ldr	r0, [pc, #2544]	; de48 <main+0x2914>
    d454:	ebfff27b 	bl	9e48 <get_cgi>
    d458:	e1a01000 	mov	r1, r0
    d45c:	e59f09e8 	ldr	r0, [pc, #2536]	; de4c <main+0x2918>
    d460:	ebfff64f 	bl	ada4 <Sncfg_set>
    d464:	e59f09e4 	ldr	r0, [pc, #2532]	; de50 <main+0x291c>
    d468:	ebfff276 	bl	9e48 <get_cgi>
    d46c:	e1a01000 	mov	r1, r0
    d470:	e59f09dc 	ldr	r0, [pc, #2524]	; de54 <main+0x2920>
    d474:	ebfff64a 	bl	ada4 <Sncfg_set>
    d478:	e59f09d8 	ldr	r0, [pc, #2520]	; de58 <main+0x2924>
    d47c:	ebfff271 	bl	9e48 <get_cgi>
    d480:	e1a01000 	mov	r1, r0
    d484:	e59f09d0 	ldr	r0, [pc, #2512]	; de5c <main+0x2928>
    d488:	ebfff645 	bl	ada4 <Sncfg_set>
    d48c:	e59f09cc 	ldr	r0, [pc, #2508]	; de60 <main+0x292c>
    d490:	ebfff26c 	bl	9e48 <get_cgi>
    d494:	e1a01000 	mov	r1, r0
    d498:	e59f09c4 	ldr	r0, [pc, #2500]	; de64 <main+0x2930>
    d49c:	ebfff640 	bl	ada4 <Sncfg_set>
    d4a0:	e59f09c0 	ldr	r0, [pc, #2496]	; de68 <main+0x2934>
    d4a4:	ebfff267 	bl	9e48 <get_cgi>
    d4a8:	e1a01000 	mov	r1, r0
    d4ac:	e59f09b8 	ldr	r0, [pc, #2488]	; de6c <main+0x2938>
    d4b0:	ebfff63b 	bl	ada4 <Sncfg_set>
    d4b4:	e59f09b4 	ldr	r0, [pc, #2484]	; de70 <main+0x293c>
    d4b8:	ebfff262 	bl	9e48 <get_cgi>
    d4bc:	e1a01000 	mov	r1, r0
    d4c0:	e59f09ac 	ldr	r0, [pc, #2476]	; de74 <main+0x2940>
    d4c4:	ebfff636 	bl	ada4 <Sncfg_set>
    d4c8:	e59f09a8 	ldr	r0, [pc, #2472]	; de78 <main+0x2944>
    d4cc:	ebfff80b 	bl	b500 <get_checkbox>
    d4d0:	e1a01000 	mov	r1, r0
    d4d4:	e59f09a0 	ldr	r0, [pc, #2464]	; de7c <main+0x2948>
    d4d8:	ebfff631 	bl	ada4 <Sncfg_set>
    d4dc:	e59f099c 	ldr	r0, [pc, #2460]	; de80 <main+0x294c>
    d4e0:	ebfff806 	bl	b500 <get_checkbox>
    d4e4:	e1a01000 	mov	r1, r0
    d4e8:	e59f0994 	ldr	r0, [pc, #2452]	; de84 <main+0x2950>
    d4ec:	ebfff62c 	bl	ada4 <Sncfg_set>
    d4f0:	e59f0990 	ldr	r0, [pc, #2448]	; de88 <main+0x2954>
    d4f4:	ebfff801 	bl	b500 <get_checkbox>
    d4f8:	e1a01000 	mov	r1, r0
    d4fc:	e59f0988 	ldr	r0, [pc, #2440]	; de8c <main+0x2958>
    d500:	ebfff627 	bl	ada4 <Sncfg_set>
    d504:	e59f0984 	ldr	r0, [pc, #2436]	; de90 <main+0x295c>
    d508:	ebfff24e 	bl	9e48 <get_cgi>
    d50c:	e1a01000 	mov	r1, r0
    d510:	e59f097c 	ldr	r0, [pc, #2428]	; de94 <main+0x2960>
    d514:	ebfff622 	bl	ada4 <Sncfg_set>
    d518:	e59f0978 	ldr	r0, [pc, #2424]	; de98 <main+0x2964>
    d51c:	ebfff7f7 	bl	b500 <get_checkbox>
    d520:	e1a01000 	mov	r1, r0
    d524:	e59f0970 	ldr	r0, [pc, #2416]	; de9c <main+0x2968>
    d528:	ebfff61d 	bl	ada4 <Sncfg_set>
    d52c:	e59f096c 	ldr	r0, [pc, #2412]	; dea0 <main+0x296c>
    d530:	ebfff244 	bl	9e48 <get_cgi>
    d534:	e1a01000 	mov	r1, r0
    d538:	e59f0964 	ldr	r0, [pc, #2404]	; dea4 <main+0x2970>
    d53c:	ebfff618 	bl	ada4 <Sncfg_set>
    d540:	e59f0960 	ldr	r0, [pc, #2400]	; dea8 <main+0x2974>
    d544:	ebfff23f 	bl	9e48 <get_cgi>
    d548:	e1a01000 	mov	r1, r0
    d54c:	e59f0958 	ldr	r0, [pc, #2392]	; deac <main+0x2978>
    d550:	ebfff613 	bl	ada4 <Sncfg_set>
    d554:	e59f0954 	ldr	r0, [pc, #2388]	; deb0 <main+0x297c>
    d558:	ebfff23a 	bl	9e48 <get_cgi>
    d55c:	e1a01000 	mov	r1, r0
    d560:	e59f094c 	ldr	r0, [pc, #2380]	; deb4 <main+0x2980>
    d564:	ebfff60e 	bl	ada4 <Sncfg_set>
    d568:	e59f0948 	ldr	r0, [pc, #2376]	; deb8 <main+0x2984>
    d56c:	ebfff235 	bl	9e48 <get_cgi>
    d570:	e1a01000 	mov	r1, r0
    d574:	e59f0940 	ldr	r0, [pc, #2368]	; debc <main+0x2988>
    d578:	ebfff609 	bl	ada4 <Sncfg_set>
    d57c:	e59f093c 	ldr	r0, [pc, #2364]	; dec0 <main+0x298c>
    d580:	ebfff230 	bl	9e48 <get_cgi>
    d584:	e1a01000 	mov	r1, r0
    d588:	e59f0934 	ldr	r0, [pc, #2356]	; dec4 <main+0x2990>
    d58c:	ebfff604 	bl	ada4 <Sncfg_set>
    d590:	e59f0930 	ldr	r0, [pc, #2352]	; dec8 <main+0x2994>
    d594:	ebfff22b 	bl	9e48 <get_cgi>
    d598:	e1a01000 	mov	r1, r0
    d59c:	e59f0928 	ldr	r0, [pc, #2344]	; decc <main+0x2998>
    d5a0:	ebfff5ff 	bl	ada4 <Sncfg_set>
    d5a4:	e59f0924 	ldr	r0, [pc, #2340]	; ded0 <main+0x299c>
    d5a8:	ebfff226 	bl	9e48 <get_cgi>
    d5ac:	e1a01000 	mov	r1, r0
    d5b0:	e59f091c 	ldr	r0, [pc, #2332]	; ded4 <main+0x29a0>
    d5b4:	ebfff5fa 	bl	ada4 <Sncfg_set>
    d5b8:	e59f0918 	ldr	r0, [pc, #2328]	; ded8 <main+0x29a4>
    d5bc:	ebfff221 	bl	9e48 <get_cgi>
    d5c0:	e1a01000 	mov	r1, r0
    d5c4:	e59f0910 	ldr	r0, [pc, #2320]	; dedc <main+0x29a8>
    d5c8:	ebfff5f5 	bl	ada4 <Sncfg_set>
    d5cc:	e59f090c 	ldr	r0, [pc, #2316]	; dee0 <main+0x29ac>
    d5d0:	ebfff21c 	bl	9e48 <get_cgi>
    d5d4:	e1a01000 	mov	r1, r0
    d5d8:	e59f0904 	ldr	r0, [pc, #2308]	; dee4 <main+0x29b0>
    d5dc:	ebfff5f0 	bl	ada4 <Sncfg_set>
    d5e0:	e59f0900 	ldr	r0, [pc, #2304]	; dee8 <main+0x29b4>
    d5e4:	ebfff7c5 	bl	b500 <get_checkbox>
    d5e8:	e1a01000 	mov	r1, r0
    d5ec:	e59f08f8 	ldr	r0, [pc, #2296]	; deec <main+0x29b8>
    d5f0:	ebfff5eb 	bl	ada4 <Sncfg_set>
    d5f4:	e59f08f4 	ldr	r0, [pc, #2292]	; def0 <main+0x29bc>
    d5f8:	ebfff212 	bl	9e48 <get_cgi>
    d5fc:	e1a01000 	mov	r1, r0
    d600:	e59f08ec 	ldr	r0, [pc, #2284]	; def4 <main+0x29c0>
    d604:	ebfff5e6 	bl	ada4 <Sncfg_set>
    d608:	e59f08e8 	ldr	r0, [pc, #2280]	; def8 <main+0x29c4>
    d60c:	ebfff20d 	bl	9e48 <get_cgi>
    d610:	e1a01000 	mov	r1, r0
    d614:	e59f08e0 	ldr	r0, [pc, #2272]	; defc <main+0x29c8>
    d618:	ebfff5e1 	bl	ada4 <Sncfg_set>
    d61c:	e59f08dc 	ldr	r0, [pc, #2268]	; df00 <main+0x29cc>
    d620:	ebfff208 	bl	9e48 <get_cgi>
    d624:	e1a01000 	mov	r1, r0
    d628:	e59f08d4 	ldr	r0, [pc, #2260]	; df04 <main+0x29d0>
    d62c:	ebfff5dc 	bl	ada4 <Sncfg_set>
    d630:	e59f08d0 	ldr	r0, [pc, #2256]	; df08 <main+0x29d4>
    d634:	ebfff203 	bl	9e48 <get_cgi>
    d638:	e1a01000 	mov	r1, r0
    d63c:	e59f08c8 	ldr	r0, [pc, #2248]	; df0c <main+0x29d8>
    d640:	ebfff5d7 	bl	ada4 <Sncfg_set>
    d644:	e59f08c4 	ldr	r0, [pc, #2244]	; df10 <main+0x29dc>
    d648:	ebfff7ac 	bl	b500 <get_checkbox>
    d64c:	e1a01000 	mov	r1, r0
    d650:	e59f08bc 	ldr	r0, [pc, #2236]	; df14 <main+0x29e0>
    d654:	ebfff5d2 	bl	ada4 <Sncfg_set>
    d658:	e59f08b8 	ldr	r0, [pc, #2232]	; df18 <main+0x29e4>
    d65c:	ebfff1f9 	bl	9e48 <get_cgi>
    d660:	e1a01000 	mov	r1, r0
    d664:	e59f08b0 	ldr	r0, [pc, #2224]	; df1c <main+0x29e8>
    d668:	ebfff5cd 	bl	ada4 <Sncfg_set>
    d66c:	e59f08ac 	ldr	r0, [pc, #2220]	; df20 <main+0x29ec>
    d670:	ebfff1f4 	bl	9e48 <get_cgi>
    d674:	e1a01000 	mov	r1, r0
    d678:	e59f08a4 	ldr	r0, [pc, #2212]	; df24 <main+0x29f0>
    d67c:	ebfff5c8 	bl	ada4 <Sncfg_set>
    d680:	e59f08a0 	ldr	r0, [pc, #2208]	; df28 <main+0x29f4>
    d684:	ebfff1ef 	bl	9e48 <get_cgi>
    d688:	e1a01000 	mov	r1, r0
    d68c:	e59f0898 	ldr	r0, [pc, #2200]	; df2c <main+0x29f8>
    d690:	ebfff5c3 	bl	ada4 <Sncfg_set>
    d694:	e59f0894 	ldr	r0, [pc, #2196]	; df30 <main+0x29fc>
    d698:	ebfff1ea 	bl	9e48 <get_cgi>
    d69c:	e1a01000 	mov	r1, r0
    d6a0:	e59f088c 	ldr	r0, [pc, #2188]	; df34 <main+0x2a00>
    d6a4:	ebfff5be 	bl	ada4 <Sncfg_set>
    d6a8:	e59f0888 	ldr	r0, [pc, #2184]	; df38 <main+0x2a04>
    d6ac:	ebfff1e5 	bl	9e48 <get_cgi>
    d6b0:	e1a01000 	mov	r1, r0
    d6b4:	e59f0880 	ldr	r0, [pc, #2176]	; df3c <main+0x2a08>
    d6b8:	ebfff5b9 	bl	ada4 <Sncfg_set>
    d6bc:	e59f087c 	ldr	r0, [pc, #2172]	; df40 <main+0x2a0c>
    d6c0:	ebfff1e0 	bl	9e48 <get_cgi>
    d6c4:	e1a01000 	mov	r1, r0
    d6c8:	e59f0874 	ldr	r0, [pc, #2164]	; df44 <main+0x2a10>
    d6cc:	ebfff5b4 	bl	ada4 <Sncfg_set>
    d6d0:	e59f0870 	ldr	r0, [pc, #2160]	; df48 <main+0x2a14>
    d6d4:	ebfff1db 	bl	9e48 <get_cgi>
    d6d8:	e1a01000 	mov	r1, r0
    d6dc:	e59f0868 	ldr	r0, [pc, #2152]	; df4c <main+0x2a18>
    d6e0:	ebfff5af 	bl	ada4 <Sncfg_set>
    d6e4:	e59f0864 	ldr	r0, [pc, #2148]	; df50 <main+0x2a1c>
    d6e8:	ebfff1d6 	bl	9e48 <get_cgi>
    d6ec:	e1a01000 	mov	r1, r0
    d6f0:	e59f085c 	ldr	r0, [pc, #2140]	; df54 <main+0x2a20>
    d6f4:	ebfff5aa 	bl	ada4 <Sncfg_set>
    d6f8:	e59f0858 	ldr	r0, [pc, #2136]	; df58 <main+0x2a24>
    d6fc:	ebfff1d1 	bl	9e48 <get_cgi>
    d700:	e1a01000 	mov	r1, r0
    d704:	e59f0850 	ldr	r0, [pc, #2128]	; df5c <main+0x2a28>
    d708:	ebfff5a5 	bl	ada4 <Sncfg_set>
    d70c:	e59f084c 	ldr	r0, [pc, #2124]	; df60 <main+0x2a2c>
    d710:	ebfff1cc 	bl	9e48 <get_cgi>
    d714:	e1a01000 	mov	r1, r0
    d718:	e59f0844 	ldr	r0, [pc, #2116]	; df64 <main+0x2a30>
    d71c:	ebfff5a0 	bl	ada4 <Sncfg_set>
    d720:	e59f0840 	ldr	r0, [pc, #2112]	; df68 <main+0x2a34>
    d724:	ebfff1c7 	bl	9e48 <get_cgi>
    d728:	e1a01000 	mov	r1, r0
    d72c:	e59f0838 	ldr	r0, [pc, #2104]	; df6c <main+0x2a38>
    d730:	ebfff59b 	bl	ada4 <Sncfg_set>
    d734:	e59f0834 	ldr	r0, [pc, #2100]	; df70 <main+0x2a3c>
    d738:	ebfff1c2 	bl	9e48 <get_cgi>
    d73c:	e1a01000 	mov	r1, r0
    d740:	e59f082c 	ldr	r0, [pc, #2092]	; df74 <main+0x2a40>
    d744:	ebfff596 	bl	ada4 <Sncfg_set>
    d748:	ebfff009 	bl	9774 <sncfg_commit@plt>
    d74c:	e59f0794 	ldr	r0, [pc, #1940]	; dee8 <main+0x29b4>
    d750:	ebfff76a 	bl	b500 <get_checkbox>
    d754:	e59f15b0 	ldr	r1, [pc, #1456]	; dd0c <main+0x27d8>
    d758:	ebfff06b 	bl	990c <strcmp@plt>
    d75c:	e3500000 	cmp	r0, #0
    d760:	059f0810 	ldreq	r0, [pc, #2064]	; df78 <main+0x2a44>
    d764:	159f0810 	ldrne	r0, [pc, #2064]	; df7c <main+0x2a48>
    d768:	ebffefbc 	bl	9660 <system@plt>
    d76c:	e59f080c 	ldr	r0, [pc, #2060]	; df80 <main+0x2a4c>
    d770:	ebffefba 	bl	9660 <system@plt>
    d774:	e59f0808 	ldr	r0, [pc, #2056]	; df84 <main+0x2a50>
    d778:	ebffefb8 	bl	9660 <system@plt>
    d77c:	e59f0a38 	ldr	r0, [pc, #2616]	; e1bc <main+0x2c88>
    d780:	ebffefb3 	bl	9654 <puts@plt>
    d784:	e59f0a34 	ldr	r0, [pc, #2612]	; e1c0 <main+0x2c8c>
    d788:	ebffef78 	bl	9570 <printf@plt>
    d78c:	e59f07f4 	ldr	r0, [pc, #2036]	; df88 <main+0x2a54>
    d790:	ebffef76 	bl	9570 <printf@plt>
    d794:	e59f0a2c 	ldr	r0, [pc, #2604]	; e1c8 <main+0x2c94>
    d798:	ebffef74 	bl	9570 <printf@plt>
    d79c:	ea00144b 	b	128d0 <main+0x739c>
    d7a0:	e1a00005 	mov	r0, r5
    d7a4:	e59f17e0 	ldr	r1, [pc, #2016]	; df8c <main+0x2a58>
    d7a8:	ebfff057 	bl	990c <strcmp@plt>
    d7ac:	e2503000 	subs	r3, r0, #0
    d7b0:	1a000043 	bne	d8c4 <main+0x2390>
    d7b4:	e28d4e12 	add	r4, sp, #288	; 0x120
    d7b8:	e2444034 	sub	r4, r4, #52	; 0x34
    d7bc:	e28d5e12 	add	r5, sp, #288	; 0x120
    d7c0:	e1a01004 	mov	r1, r4
    d7c4:	e2455038 	sub	r5, r5, #56	; 0x38
    d7c8:	e59f08a8 	ldr	r0, [pc, #2216]	; e078 <main+0x2b44>
    d7cc:	e1a06003 	mov	r6, r3
    d7d0:	ebffef8a 	bl	9600 <sncfg_get@plt>
    d7d4:	e1a01005 	mov	r1, r5
    d7d8:	e59f089c 	ldr	r0, [pc, #2204]	; e07c <main+0x2b48>
    d7dc:	ebffef87 	bl	9600 <sncfg_get@plt>
    d7e0:	e1a01007 	mov	r1, r7
    d7e4:	e59f07a4 	ldr	r0, [pc, #1956]	; df90 <main+0x2a5c>
    d7e8:	ebfff217 	bl	a04c <init_obj>
    d7ec:	e59f0884 	ldr	r0, [pc, #2180]	; e078 <main+0x2b44>
    d7f0:	ebfff194 	bl	9e48 <get_cgi>
    d7f4:	e1a01000 	mov	r1, r0
    d7f8:	e5940000 	ldr	r0, [r4]
    d7fc:	ebfff042 	bl	990c <strcmp@plt>
    d800:	e3500000 	cmp	r0, #0
    d804:	e1a04006 	mov	r4, r6
    d808:	0a000005 	beq	d824 <main+0x22f0>
    d80c:	e59f0864 	ldr	r0, [pc, #2148]	; e078 <main+0x2b44>
    d810:	ebfff18c 	bl	9e48 <get_cgi>
    d814:	e1a01000 	mov	r1, r0
    d818:	e59f0858 	ldr	r0, [pc, #2136]	; e078 <main+0x2b44>
    d81c:	ebfff560 	bl	ada4 <Sncfg_set>
    d820:	e3a06001 	mov	r6, #1
    d824:	e59f0850 	ldr	r0, [pc, #2128]	; e07c <main+0x2b48>
    d828:	ebfff186 	bl	9e48 <get_cgi>
    d82c:	e1a01000 	mov	r1, r0
    d830:	e5950000 	ldr	r0, [r5]
    d834:	ebfff034 	bl	990c <strcmp@plt>
    d838:	e3500000 	cmp	r0, #0
    d83c:	0a000005 	beq	d858 <main+0x2324>
    d840:	e59f0834 	ldr	r0, [pc, #2100]	; e07c <main+0x2b48>
    d844:	ebfff17f 	bl	9e48 <get_cgi>
    d848:	e1a01000 	mov	r1, r0
    d84c:	e59f0828 	ldr	r0, [pc, #2088]	; e07c <main+0x2b48>
    d850:	ebfff553 	bl	ada4 <Sncfg_set>
    d854:	e3a04001 	mov	r4, #1
    d858:	ebffefc5 	bl	9774 <sncfg_commit@plt>
    d85c:	e3540000 	cmp	r4, #0
    d860:	159f0820 	ldrne	r0, [pc, #2080]	; e088 <main+0x2b54>
    d864:	1a00000a 	bne	d894 <main+0x2360>
    d868:	e3560000 	cmp	r6, #0
    d86c:	0a000009 	beq	d898 <main+0x2364>
    d870:	e59f0814 	ldr	r0, [pc, #2068]	; e08c <main+0x2b58>
    d874:	ebffef79 	bl	9660 <system@plt>
    d878:	e59f0810 	ldr	r0, [pc, #2064]	; e090 <main+0x2b5c>
    d87c:	ebffef77 	bl	9660 <system@plt>
    d880:	e59f080c 	ldr	r0, [pc, #2060]	; e094 <main+0x2b60>
    d884:	ebffef75 	bl	9660 <system@plt>
    d888:	e59f0808 	ldr	r0, [pc, #2056]	; e098 <main+0x2b64>
    d88c:	ebffef73 	bl	9660 <system@plt>
    d890:	e59f0804 	ldr	r0, [pc, #2052]	; e09c <main+0x2b68>
    d894:	ebffef71 	bl	9660 <system@plt>
    d898:	e59f091c 	ldr	r0, [pc, #2332]	; e1bc <main+0x2c88>
    d89c:	ebffef6c 	bl	9654 <puts@plt>
    d8a0:	e59f0918 	ldr	r0, [pc, #2328]	; e1c0 <main+0x2c8c>
    d8a4:	ebffef31 	bl	9570 <printf@plt>
    d8a8:	e3560000 	cmp	r6, #0
    d8ac:	159f07f0 	ldrne	r0, [pc, #2032]	; e0a4 <main+0x2b70>
    d8b0:	059f06dc 	ldreq	r0, [pc, #1756]	; df94 <main+0x2a60>
    d8b4:	ebffef2d 	bl	9570 <printf@plt>
    d8b8:	e59f0908 	ldr	r0, [pc, #2312]	; e1c8 <main+0x2c94>
    d8bc:	ebffef2b 	bl	9570 <printf@plt>
    d8c0:	ea001402 	b	128d0 <main+0x739c>
    d8c4:	e1a00005 	mov	r0, r5
    d8c8:	e59f16c8 	ldr	r1, [pc, #1736]	; df98 <main+0x2a64>
    d8cc:	ebfff00e 	bl	990c <strcmp@plt>
    d8d0:	e3500000 	cmp	r0, #0
    d8d4:	1a00006c 	bne	da8c <main+0x2558>
    d8d8:	e1a01007 	mov	r1, r7
    d8dc:	e59f070c 	ldr	r0, [pc, #1804]	; dff0 <main+0x2abc>
    d8e0:	ebfff1d9 	bl	a04c <init_obj>
    d8e4:	e59f06b0 	ldr	r0, [pc, #1712]	; df9c <main+0x2a68>
    d8e8:	ebfff156 	bl	9e48 <get_cgi>
    d8ec:	e1a04000 	mov	r4, r0
    d8f0:	e59f06a8 	ldr	r0, [pc, #1704]	; dfa0 <main+0x2a6c>
    d8f4:	ebfff153 	bl	9e48 <get_cgi>
    d8f8:	e59f1400 	ldr	r1, [pc, #1024]	; dd00 <main+0x27cc>
    d8fc:	e1a05000 	mov	r5, r0
    d900:	e59f069c 	ldr	r0, [pc, #1692]	; dfa4 <main+0x2a70>
    d904:	ebffef85 	bl	9720 <sncfg_set@plt>
    d908:	e1a00004 	mov	r0, r4
    d90c:	e59f1694 	ldr	r1, [pc, #1684]	; dfa8 <main+0x2a74>
    d910:	ebffeffd 	bl	990c <strcmp@plt>
    d914:	e3500000 	cmp	r0, #0
    d918:	1a000003 	bne	d92c <main+0x23f8>
    d91c:	e59f13dc 	ldr	r1, [pc, #988]	; dd00 <main+0x27cc>
    d920:	e59f0684 	ldr	r0, [pc, #1668]	; dfac <main+0x2a78>
    d924:	ebffef7d 	bl	9720 <sncfg_set@plt>
    d928:	ea000016 	b	d988 <main+0x2454>
    d92c:	e1a00004 	mov	r0, r4
    d930:	e59f13c8 	ldr	r1, [pc, #968]	; dd00 <main+0x27cc>
    d934:	ebffeff4 	bl	990c <strcmp@plt>
    d938:	e3500000 	cmp	r0, #0
    d93c:	1a000013 	bne	d990 <main+0x245c>
    d940:	e59f1414 	ldr	r1, [pc, #1044]	; dd5c <main+0x2828>
    d944:	e59f0660 	ldr	r0, [pc, #1632]	; dfac <main+0x2a78>
    d948:	ebffef74 	bl	9720 <sncfg_set@plt>
    d94c:	e1a01004 	mov	r1, r4
    d950:	e59f0644 	ldr	r0, [pc, #1604]	; df9c <main+0x2a68>
    d954:	ebfff512 	bl	ada4 <Sncfg_set>
    d958:	e5d53000 	ldrb	r3, [r5]
    d95c:	e3530000 	cmp	r3, #0
    d960:	1a000005 	bne	d97c <main+0x2448>
    d964:	e59f1644 	ldr	r1, [pc, #1604]	; dfb0 <main+0x2a7c>
    d968:	e59f0630 	ldr	r0, [pc, #1584]	; dfa0 <main+0x2a6c>
    d96c:	ebfff50c 	bl	ada4 <Sncfg_set>
    d970:	e59f1394 	ldr	r1, [pc, #916]	; dd0c <main+0x27d8>
    d974:	e59f0638 	ldr	r0, [pc, #1592]	; dfb4 <main+0x2a80>
    d978:	ea00001e 	b	d9f8 <main+0x24c4>
    d97c:	e1a01005 	mov	r1, r5
    d980:	e59f0618 	ldr	r0, [pc, #1560]	; dfa0 <main+0x2a6c>
    d984:	ebfff506 	bl	ada4 <Sncfg_set>
    d988:	e59f1370 	ldr	r1, [pc, #880]	; dd00 <main+0x27cc>
    d98c:	eafffff8 	b	d974 <main+0x2440>
    d990:	e59f1374 	ldr	r1, [pc, #884]	; dd0c <main+0x27d8>
    d994:	e59f0610 	ldr	r0, [pc, #1552]	; dfac <main+0x2a78>
    d998:	ebffef60 	bl	9720 <sncfg_set@plt>
    d99c:	e1a01004 	mov	r1, r4
    d9a0:	e59f05f4 	ldr	r0, [pc, #1524]	; df9c <main+0x2a68>
    d9a4:	ebfff4fe 	bl	ada4 <Sncfg_set>
    d9a8:	e59f0608 	ldr	r0, [pc, #1544]	; dfb8 <main+0x2a84>
    d9ac:	ebfff125 	bl	9e48 <get_cgi>
    d9b0:	e1a01000 	mov	r1, r0
    d9b4:	e59f05fc 	ldr	r0, [pc, #1532]	; dfb8 <main+0x2a84>
    d9b8:	ebfff4f9 	bl	ada4 <Sncfg_set>
    d9bc:	e59f05f8 	ldr	r0, [pc, #1528]	; dfbc <main+0x2a88>
    d9c0:	ebfff120 	bl	9e48 <get_cgi>
    d9c4:	e1a01000 	mov	r1, r0
    d9c8:	e59f05ec 	ldr	r0, [pc, #1516]	; dfbc <main+0x2a88>
    d9cc:	ebfff4f4 	bl	ada4 <Sncfg_set>
    d9d0:	e1a01005 	mov	r1, r5
    d9d4:	e59f05c4 	ldr	r0, [pc, #1476]	; dfa0 <main+0x2a6c>
    d9d8:	ebfff4f1 	bl	ada4 <Sncfg_set>
    d9dc:	e59f05dc 	ldr	r0, [pc, #1500]	; dfc0 <main+0x2a8c>
    d9e0:	ebfff118 	bl	9e48 <get_cgi>
    d9e4:	e1a01000 	mov	r1, r0
    d9e8:	e59f05d0 	ldr	r0, [pc, #1488]	; dfc0 <main+0x2a8c>
    d9ec:	ebffef4b 	bl	9720 <sncfg_set@plt>
    d9f0:	e59f05bc 	ldr	r0, [pc, #1468]	; dfb4 <main+0x2a80>
    d9f4:	e59f1304 	ldr	r1, [pc, #772]	; dd00 <main+0x27cc>
    d9f8:	ebffef48 	bl	9720 <sncfg_set@plt>
    d9fc:	e59f05c0 	ldr	r0, [pc, #1472]	; dfc4 <main+0x2a90>
    da00:	ebfff6be 	bl	b500 <get_checkbox>
    da04:	e1a01000 	mov	r1, r0
    da08:	e59f05b4 	ldr	r0, [pc, #1460]	; dfc4 <main+0x2a90>
    da0c:	ebfff4e4 	bl	ada4 <Sncfg_set>
    da10:	e59f05b0 	ldr	r0, [pc, #1456]	; dfc8 <main+0x2a94>
    da14:	ebfff6b9 	bl	b500 <get_checkbox>
    da18:	e1a01000 	mov	r1, r0
    da1c:	e59f05a4 	ldr	r0, [pc, #1444]	; dfc8 <main+0x2a94>
    da20:	ebfff4df 	bl	ada4 <Sncfg_set>
    da24:	e59f05a0 	ldr	r0, [pc, #1440]	; dfcc <main+0x2a98>
    da28:	ebfff6b4 	bl	b500 <get_checkbox>
    da2c:	e1a01000 	mov	r1, r0
    da30:	e59f0594 	ldr	r0, [pc, #1428]	; dfcc <main+0x2a98>
    da34:	ebfff4da 	bl	ada4 <Sncfg_set>
    da38:	e59f0590 	ldr	r0, [pc, #1424]	; dfd0 <main+0x2a9c>
    da3c:	ebfff6af 	bl	b500 <get_checkbox>
    da40:	e1a01000 	mov	r1, r0
    da44:	e59f0584 	ldr	r0, [pc, #1412]	; dfd0 <main+0x2a9c>
    da48:	ebfff4d5 	bl	ada4 <Sncfg_set>
    da4c:	e59f0580 	ldr	r0, [pc, #1408]	; dfd4 <main+0x2aa0>
    da50:	ebfff6aa 	bl	b500 <get_checkbox>
    da54:	e1a01000 	mov	r1, r0
    da58:	e59f0574 	ldr	r0, [pc, #1396]	; dfd4 <main+0x2aa0>
    da5c:	ebfff4d0 	bl	ada4 <Sncfg_set>
    da60:	ebffeece 	bl	95a0 <wmxapi_set_eap_by_key@plt>
    da64:	ebffef42 	bl	9774 <sncfg_commit@plt>
    da68:	e59f074c 	ldr	r0, [pc, #1868]	; e1bc <main+0x2c88>
    da6c:	ebffeef8 	bl	9654 <puts@plt>
    da70:	e59f0748 	ldr	r0, [pc, #1864]	; e1c0 <main+0x2c8c>
    da74:	ebffeebd 	bl	9570 <printf@plt>
    da78:	e59f0580 	ldr	r0, [pc, #1408]	; e000 <main+0x2acc>
    da7c:	ebffeebb 	bl	9570 <printf@plt>
    da80:	e59f0740 	ldr	r0, [pc, #1856]	; e1c8 <main+0x2c94>
    da84:	ebffeeb9 	bl	9570 <printf@plt>
    da88:	ea001390 	b	128d0 <main+0x739c>
    da8c:	e1a00005 	mov	r0, r5
    da90:	e59f1540 	ldr	r1, [pc, #1344]	; dfd8 <main+0x2aa4>
    da94:	ebffef9c 	bl	990c <strcmp@plt>
    da98:	e2504000 	subs	r4, r0, #0
    da9c:	1a000040 	bne	dba4 <main+0x2670>
    daa0:	e28d6c75 	add	r6, sp, #29952	; 0x7500
    daa4:	e2866020 	add	r6, r6, #32
    daa8:	e246603c 	sub	r6, r6, #60	; 0x3c
    daac:	e5981000 	ldr	r1, [r8]
    dab0:	e1a00006 	mov	r0, r6
    dab4:	ebfff441 	bl	abc0 <upload_bin>
    dab8:	e1a00006 	mov	r0, r6
    dabc:	e59f154c 	ldr	r1, [pc, #1356]	; e010 <main+0x2adc>
    dac0:	ebffef79 	bl	98ac <fopen@plt>
    dac4:	e2505000 	subs	r5, r0, #0
    dac8:	0a000010 	beq	db10 <main+0x25dc>
    dacc:	e1a01004 	mov	r1, r4
    dad0:	e1a02004 	mov	r2, r4
    dad4:	e1a03004 	mov	r3, r4
    dad8:	ebffefa9 	bl	9984 <PEM_read_X509@plt>
    dadc:	e3500000 	cmp	r0, #0
    dae0:	13a04001 	movne	r4, #1
    dae4:	1a000009 	bne	db10 <main+0x25dc>
    dae8:	e1a01004 	mov	r1, r4
    daec:	e1a02004 	mov	r2, r4
    daf0:	e1a00005 	mov	r0, r5
    daf4:	ebffef2a 	bl	97a4 <fseek@plt>
    daf8:	e1a01004 	mov	r1, r4
    dafc:	e1a00005 	mov	r0, r5
    db00:	ebffeed0 	bl	9648 <d2i_X509_fp@plt>
    db04:	e3500000 	cmp	r0, #0
    db08:	13a04002 	movne	r4, #2
    db0c:	03a04000 	moveq	r4, #0
    db10:	e3540000 	cmp	r4, #0
    db14:	e28d4c71 	add	r4, sp, #28928	; 0x7100
    db18:	e2844020 	add	r4, r4, #32
    db1c:	e244403c 	sub	r4, r4, #60	; 0x3c
    db20:	da00000e 	ble	db60 <main+0x262c>
    db24:	e1a02006 	mov	r2, r6
    db28:	e59f14ac 	ldr	r1, [pc, #1196]	; dfdc <main+0x2aa8>
    db2c:	e1a00004 	mov	r0, r4
    db30:	ebffef7b 	bl	9924 <sprintf@plt>
    db34:	e1a00004 	mov	r0, r4
    db38:	ebffeec8 	bl	9660 <system@plt>
    db3c:	e59f0678 	ldr	r0, [pc, #1656]	; e1bc <main+0x2c88>
    db40:	ebffeec3 	bl	9654 <puts@plt>
    db44:	e59f0674 	ldr	r0, [pc, #1652]	; e1c0 <main+0x2c8c>
    db48:	ebffee88 	bl	9570 <printf@plt>
    db4c:	e59f04ac 	ldr	r0, [pc, #1196]	; e000 <main+0x2acc>
    db50:	ebffee86 	bl	9570 <printf@plt>
    db54:	e59f066c 	ldr	r0, [pc, #1644]	; e1c8 <main+0x2c94>
    db58:	ebffee84 	bl	9570 <printf@plt>
    db5c:	ea00135b 	b	128d0 <main+0x739c>
    db60:	e1a02006 	mov	r2, r6
    db64:	e59f14ac 	ldr	r1, [pc, #1196]	; e018 <main+0x2ae4>
    db68:	e1a00004 	mov	r0, r4
    db6c:	ebffef6c 	bl	9924 <sprintf@plt>
    db70:	e1a00004 	mov	r0, r4
    db74:	ebffeeb9 	bl	9660 <system@plt>
    db78:	e59f063c 	ldr	r0, [pc, #1596]	; e1bc <main+0x2c88>
    db7c:	ebffeeb4 	bl	9654 <puts@plt>
    db80:	e59f0638 	ldr	r0, [pc, #1592]	; e1c0 <main+0x2c8c>
    db84:	ebffee79 	bl	9570 <printf@plt>
    db88:	e59f048c 	ldr	r0, [pc, #1164]	; e01c <main+0x2ae8>
    db8c:	ebffee77 	bl	9570 <printf@plt>
    db90:	e59f0468 	ldr	r0, [pc, #1128]	; e000 <main+0x2acc>
    db94:	ebffee75 	bl	9570 <printf@plt>
    db98:	e59f0628 	ldr	r0, [pc, #1576]	; e1c8 <main+0x2c94>
    db9c:	ebffee73 	bl	9570 <printf@plt>
    dba0:	ea00134a 	b	128d0 <main+0x739c>
    dba4:	e1a00005 	mov	r0, r5
    dba8:	e59f1430 	ldr	r1, [pc, #1072]	; dfe0 <main+0x2aac>
    dbac:	ebffef56 	bl	990c <strcmp@plt>
    dbb0:	e2504000 	subs	r4, r0, #0
    dbb4:	1a000198 	bne	e21c <main+0x2ce8>
    dbb8:	e28d7a07 	add	r7, sp, #28672	; 0x7000
    dbbc:	e2877020 	add	r7, r7, #32
    dbc0:	e247703c 	sub	r7, r7, #60	; 0x3c
    dbc4:	e28d6e12 	add	r6, sp, #288	; 0x120
    dbc8:	e5981000 	ldr	r1, [r8]
    dbcc:	e246603c 	sub	r6, r6, #60	; 0x3c
    dbd0:	e1a00007 	mov	r0, r7
    dbd4:	ebfff3f9 	bl	abc0 <upload_bin>
    dbd8:	e1a01006 	mov	r1, r6
    dbdc:	e59f0410 	ldr	r0, [pc, #1040]	; dff4 <main+0x2ac0>
    dbe0:	ebffee86 	bl	9600 <sncfg_get@plt>
    dbe4:	e1a00007 	mov	r0, r7
    dbe8:	e59f1420 	ldr	r1, [pc, #1056]	; e010 <main+0x2adc>
    dbec:	ebffef2e 	bl	98ac <fopen@plt>
    dbf0:	e2505000 	subs	r5, r0, #0
    dbf4:	0a000012 	beq	dc44 <main+0x2710>
    dbf8:	ebffeeaa 	bl	96a8 <OPENSSL_add_all_algorithms_noconf@plt>
    dbfc:	e1a01004 	mov	r1, r4
    dc00:	e1a02004 	mov	r2, r4
    dc04:	e1a00005 	mov	r0, r5
    dc08:	e5963000 	ldr	r3, [r6]
    dc0c:	ebffee5a 	bl	957c <PEM_read_PrivateKey@plt>
    dc10:	e3500000 	cmp	r0, #0
    dc14:	13a04001 	movne	r4, #1
    dc18:	1a000009 	bne	dc44 <main+0x2710>
    dc1c:	e1a01004 	mov	r1, r4
    dc20:	e1a02004 	mov	r2, r4
    dc24:	e1a00005 	mov	r0, r5
    dc28:	ebffeedd 	bl	97a4 <fseek@plt>
    dc2c:	e1a01004 	mov	r1, r4
    dc30:	e1a00005 	mov	r0, r5
    dc34:	ebffeea1 	bl	96c0 <d2i_PrivateKey_fp@plt>
    dc38:	e3500000 	cmp	r0, #0
    dc3c:	13a04002 	movne	r4, #2
    dc40:	03a04000 	moveq	r4, #0
    dc44:	e3540000 	cmp	r4, #0
    dc48:	e28d4c71 	add	r4, sp, #28928	; 0x7100
    dc4c:	e2844020 	add	r4, r4, #32
    dc50:	e244403c 	sub	r4, r4, #60	; 0x3c
    dc54:	da00015f 	ble	e1d8 <main+0x2ca4>
    dc58:	e1a02007 	mov	r2, r7
    dc5c:	e59f1380 	ldr	r1, [pc, #896]	; dfe4 <main+0x2ab0>
    dc60:	e1a00004 	mov	r0, r4
    dc64:	ebffef2e 	bl	9924 <sprintf@plt>
    dc68:	e1a00004 	mov	r0, r4
    dc6c:	ebffee7b 	bl	9660 <system@plt>
    dc70:	e59f0544 	ldr	r0, [pc, #1348]	; e1bc <main+0x2c88>
    dc74:	ebffee76 	bl	9654 <puts@plt>
    dc78:	e59f0540 	ldr	r0, [pc, #1344]	; e1c0 <main+0x2c8c>
    dc7c:	ebffee3b 	bl	9570 <printf@plt>
    dc80:	e59f0378 	ldr	r0, [pc, #888]	; e000 <main+0x2acc>
    dc84:	ebffee39 	bl	9570 <printf@plt>
    dc88:	e59f0538 	ldr	r0, [pc, #1336]	; e1c8 <main+0x2c94>
    dc8c:	ebffee37 	bl	9570 <printf@plt>
    dc90:	ea00130e 	b	128d0 <main+0x739c>
    dc94:	0001555c 	andeq	r5, r1, ip, asr r5
    dc98:	00015564 	andeq	r5, r1, r4, ror #10
    dc9c:	00015574 	andeq	r5, r1, r4, ror r5
    dca0:	00015584 	andeq	r5, r1, r4, lsl #11
    dca4:	00015594 	muleq	r1, r4, r5
    dca8:	000155a4 	andeq	r5, r1, r4, lsr #11
    dcac:	000155b4 			; <UNDEFINED> instruction: 0x000155b4
    dcb0:	000155b8 			; <UNDEFINED> instruction: 0x000155b8
    dcb4:	000155c4 	andeq	r5, r1, r4, asr #11
    dcb8:	000155d4 	ldrdeq	r5, [r1], -r4
    dcbc:	000155e4 	andeq	r5, r1, r4, ror #11
    dcc0:	000155f4 	strdeq	r5, [r1], -r4
    dcc4:	00015604 	andeq	r5, r1, r4, lsl #12
    dcc8:	00015608 	andeq	r5, r1, r8, lsl #12
    dccc:	00015610 	andeq	r5, r1, r0, lsl r6
    dcd0:	00015618 	andeq	r5, r1, r8, lsl r6
    dcd4:	00015628 	andeq	r5, r1, r8, lsr #12
    dcd8:	0001563c 	andeq	r5, r1, ip, lsr r6
    dcdc:	00015644 	andeq	r5, r1, r4, asr #12
    dce0:	0001564c 	andeq	r5, r1, ip, asr #12
    dce4:	0001565c 	andeq	r5, r1, ip, asr r6
    dce8:	00015664 	andeq	r5, r1, r4, ror #12
    dcec:	00015674 	andeq	r5, r1, r4, ror r6
    dcf0:	00015688 	andeq	r5, r1, r8, lsl #13
    dcf4:	00015694 	muleq	r1, r4, r6
    dcf8:	000156a8 	andeq	r5, r1, r8, lsr #13
    dcfc:	000156b4 			; <UNDEFINED> instruction: 0x000156b4
    dd00:	00015778 	andeq	r5, r1, r8, ror r7
    dd04:	000156c4 	andeq	r5, r1, r4, asr #13
    dd08:	000156d8 	ldrdeq	r5, [r1], -r8
    dd0c:	000156f0 	strdeq	r5, [r1], -r0
    dd10:	000156ec 	andeq	r5, r1, ip, ror #13
    dd14:	000156f4 	strdeq	r5, [r1], -r4
    dd18:	00015700 	andeq	r5, r1, r0, lsl #14
    dd1c:	0001570c 	andeq	r5, r1, ip, lsl #14
    dd20:	0001571c 	andeq	r5, r1, ip, lsl r7
    dd24:	00015724 	andeq	r5, r1, r4, lsr #14
    dd28:	0001574c 	andeq	r5, r1, ip, asr #14
    dd2c:	00015734 	andeq	r5, r1, r4, lsr r7
    dd30:	0001573c 	andeq	r5, r1, ip, lsr r7
    dd34:	00015744 	andeq	r5, r1, r4, asr #14
    dd38:	00015758 	andeq	r5, r1, r8, asr r7
    dd3c:	00015760 	andeq	r5, r1, r0, ror #14
    dd40:	0001576c 	andeq	r5, r1, ip, ror #14
    dd44:	0001577c 	andeq	r5, r1, ip, ror r7
    dd48:	00015790 	muleq	r1, r0, r7
    dd4c:	000157a4 	andeq	r5, r1, r4, lsr #15
    dd50:	000157bc 			; <UNDEFINED> instruction: 0x000157bc
    dd54:	000157cc 	andeq	r5, r1, ip, asr #15
    dd58:	000157d0 	ldrdeq	r5, [r1], -r0
    dd5c:	0001586c 	andeq	r5, r1, ip, ror #16
    dd60:	000157e4 	andeq	r5, r1, r4, ror #15
    dd64:	00015388 	andeq	r5, r1, r8, lsl #7
    dd68:	000157f4 	strdeq	r5, [r1], -r4
    dd6c:	00015804 	andeq	r5, r1, r4, lsl #16
    dd70:	00015810 	andeq	r5, r1, r0, lsl r8
    dd74:	00015820 	andeq	r5, r1, r0, lsr #16
    dd78:	00015830 	andeq	r5, r1, r0, lsr r8
    dd7c:	00015840 	andeq	r5, r1, r0, asr #16
    dd80:	00015850 	andeq	r5, r1, r0, asr r8
    dd84:	00015858 	andeq	r5, r1, r8, asr r8
    dd88:	00015868 	andeq	r5, r1, r8, ror #16
    dd8c:	00015870 	andeq	r5, r1, r0, ror r8
    dd90:	0001587c 	andeq	r5, r1, ip, ror r8
    dd94:	0001588c 	andeq	r5, r1, ip, lsl #17
    dd98:	000158a0 	andeq	r5, r1, r0, lsr #17
    dd9c:	000158b4 			; <UNDEFINED> instruction: 0x000158b4
    dda0:	000153cc 	andeq	r5, r1, ip, asr #7
    dda4:	000158cc 	andeq	r5, r1, ip, asr #17
    dda8:	00015430 	andeq	r5, r1, r0, lsr r4
    ddac:	0001545c 	andeq	r5, r1, ip, asr r4
    ddb0:	00014c54 	andeq	r4, r1, r4, asr ip
    ddb4:	000158f4 	strdeq	r5, [r1], -r4
    ddb8:	00015904 	andeq	r5, r1, r4, lsl #18
    ddbc:	00015924 	andeq	r5, r1, r4, lsr #18
    ddc0:	00015940 	andeq	r5, r1, r0, asr #18
    ddc4:	00015960 	andeq	r5, r1, r0, ror #18
    ddc8:	0001597c 	andeq	r5, r1, ip, ror r9
    ddcc:	00015998 	muleq	r1, r8, r9
    ddd0:	000159b8 			; <UNDEFINED> instruction: 0x000159b8
    ddd4:	000159d4 	ldrdeq	r5, [r1], -r4
    ddd8:	000159f4 	strdeq	r5, [r1], -r4
    dddc:	00015a14 	andeq	r5, r1, r4, lsl sl
    dde0:	00015a34 	andeq	r5, r1, r4, lsr sl
    dde4:	00015a54 	andeq	r5, r1, r4, asr sl
    dde8:	00015a74 	andeq	r5, r1, r4, ror sl
    ddec:	00015a94 	muleq	r1, r4, sl
    ddf0:	00015ab0 			; <UNDEFINED> instruction: 0x00015ab0
    ddf4:	00015ad0 	ldrdeq	r5, [r1], -r0
    ddf8:	00015aec 	andeq	r5, r1, ip, ror #21
    ddfc:	00015b08 	andeq	r5, r1, r8, lsl #22
    de00:	00015b28 	andeq	r5, r1, r8, lsr #22
    de04:	00015b44 	andeq	r5, r1, r4, asr #22
    de08:	00015b64 	andeq	r5, r1, r4, ror #22
    de0c:	00015b84 	andeq	r5, r1, r4, lsl #23
    de10:	00015ba4 	andeq	r5, r1, r4, lsr #23
    de14:	00015bc4 	andeq	r5, r1, r4, asr #23
    de18:	00015be4 	andeq	r5, r1, r4, ror #23
    de1c:	00015bfc 	strdeq	r5, [r1], -ip
    de20:	00015c14 	andeq	r5, r1, r4, lsl ip
    de24:	00015c2c 	andeq	r5, r1, ip, lsr #24
    de28:	00015c44 	andeq	r5, r1, r4, asr #24
    de2c:	00015c60 	andeq	r5, r1, r0, ror #24
    de30:	00015c7c 	andeq	r5, r1, ip, ror ip
    de34:	00015c9c 	muleq	r1, ip, ip
    de38:	00015cbc 			; <UNDEFINED> instruction: 0x00015cbc
    de3c:	00015cdc 	ldrdeq	r5, [r1], -ip
    de40:	00015cfc 	strdeq	r5, [r1], -ip
    de44:	00015d14 	andeq	r5, r1, r4, lsl sp
    de48:	00015d2c 	andeq	r5, r1, ip, lsr #26
    de4c:	00015d48 	andeq	r5, r1, r8, asr #26
    de50:	00015d64 	andeq	r5, r1, r4, ror #26
    de54:	00015d80 	andeq	r5, r1, r0, lsl #27
    de58:	00015d9c 	muleq	r1, ip, sp
    de5c:	000148c4 	andeq	r4, r1, r4, asr #17
    de60:	00015db0 			; <UNDEFINED> instruction: 0x00015db0
    de64:	00015dc8 	andeq	r5, r1, r8, asr #27
    de68:	00015de0 	andeq	r5, r1, r0, ror #27
    de6c:	00015df4 	strdeq	r5, [r1], -r4
    de70:	00015e0c 	andeq	r5, r1, ip, lsl #28
    de74:	00015e20 	andeq	r5, r1, r0, lsr #28
    de78:	00015e38 	andeq	r5, r1, r8, lsr lr
    de7c:	00015e50 	andeq	r5, r1, r0, asr lr
    de80:	00015e6c 	andeq	r5, r1, ip, ror #28
    de84:	00015e7c 	andeq	r5, r1, ip, ror lr
    de88:	00015e90 	muleq	r1, r0, lr
    de8c:	00015ea8 	andeq	r5, r1, r8, lsr #29
    de90:	00015ec4 	andeq	r5, r1, r4, asr #29
    de94:	00015ed4 	ldrdeq	r5, [r1], -r4
    de98:	00015eec 	andeq	r5, r1, ip, ror #29
    de9c:	00015f08 	andeq	r5, r1, r8, lsl #30
    dea0:	00015f24 	andeq	r5, r1, r4, lsr #30
    dea4:	00015f40 	andeq	r5, r1, r0, asr #30
    dea8:	00015f5c 	andeq	r5, r1, ip, asr pc
    deac:	00015f78 	andeq	r5, r1, r8, ror pc
    deb0:	00015f94 	muleq	r1, r4, pc	; <UNPREDICTABLE>
    deb4:	00015fb0 			; <UNDEFINED> instruction: 0x00015fb0
    deb8:	00015fcc 	andeq	r5, r1, ip, asr #31
    debc:	00015fe8 	andeq	r5, r1, r8, ror #31
    dec0:	00016004 	andeq	r6, r1, r4
    dec4:	00016020 	andeq	r6, r1, r0, lsr #32
    dec8:	0001603c 	andeq	r6, r1, ip, lsr r0
    decc:	00016058 	andeq	r6, r1, r8, asr r0
    ded0:	00016074 	andeq	r6, r1, r4, ror r0
    ded4:	00016090 	muleq	r1, r0, r0
    ded8:	000160ac 	andeq	r6, r1, ip, lsr #1
    dedc:	000160c8 	andeq	r6, r1, r8, asr #1
    dee0:	000160e4 	andeq	r6, r1, r4, ror #1
    dee4:	00016100 	andeq	r6, r1, r0, lsl #2
    dee8:	0001611c 	andeq	r6, r1, ip, lsl r1
    deec:	00016134 	andeq	r6, r1, r4, lsr r1
    def0:	00016148 	andeq	r6, r1, r8, asr #2
    def4:	00016158 	andeq	r6, r1, r8, asr r1
    def8:	00016168 	andeq	r6, r1, r8, ror #2
    defc:	00016184 	andeq	r6, r1, r4, lsl #3
    df00:	000161a0 	andeq	r6, r1, r0, lsr #3
    df04:	000161bc 			; <UNDEFINED> instruction: 0x000161bc
    df08:	000161d8 	ldrdeq	r6, [r1], -r8
    df0c:	000161f4 	strdeq	r6, [r1], -r4
    df10:	0001620c 	andeq	r6, r1, ip, lsl #4
    df14:	00016228 	andeq	r6, r1, r8, lsr #4
    df18:	0001623c 	andeq	r6, r1, ip, lsr r2
    df1c:	0001625c 	andeq	r6, r1, ip, asr r2
    df20:	00016274 	andeq	r6, r1, r4, ror r2
    df24:	00016294 	muleq	r1, r4, r2
    df28:	000162b0 			; <UNDEFINED> instruction: 0x000162b0
    df2c:	000162d0 	ldrdeq	r6, [r1], -r0
    df30:	000162e8 	andeq	r6, r1, r8, ror #5
    df34:	0001630c 	andeq	r6, r1, ip, lsl #6
    df38:	00016328 	andeq	r6, r1, r8, lsr #6
    df3c:	0001634c 	andeq	r6, r1, ip, asr #6
    df40:	00016368 	andeq	r6, r1, r8, ror #6
    df44:	00016390 	muleq	r1, r0, r3
    df48:	000163b0 			; <UNDEFINED> instruction: 0x000163b0
    df4c:	000163cc 	andeq	r6, r1, ip, asr #7
    df50:	000163ec 	andeq	r6, r1, ip, ror #7
    df54:	00016408 	andeq	r6, r1, r8, lsl #8
    df58:	00016428 	andeq	r6, r1, r8, lsr #8
    df5c:	00016440 	andeq	r6, r1, r0, asr #8
    df60:	00016458 	andeq	r6, r1, r8, asr r4
    df64:	00016470 	andeq	r6, r1, r0, ror r4
    df68:	00016488 	andeq	r6, r1, r8, lsl #9
    df6c:	000164a0 	andeq	r6, r1, r0, lsr #9
    df70:	000164b4 			; <UNDEFINED> instruction: 0x000164b4
    df74:	000164d0 	ldrdeq	r6, [r1], -r0
    df78:	000164ec 	andeq	r6, r1, ip, ror #9
    df7c:	00016514 	andeq	r6, r1, r4, lsl r5
    df80:	00016540 	andeq	r6, r1, r0, asr #10
    df84:	00016550 	andeq	r6, r1, r0, asr r5
    df88:	00016578 	andeq	r6, r1, r8, ror r5
    df8c:	00014cf8 	strdeq	r4, [r1], -r8
    df90:	00016598 	muleq	r1, r8, r5
    df94:	000165a4 	andeq	r6, r1, r4, lsr #11
    df98:	00014bdc 	ldrdeq	r4, [r1], -ip
    df9c:	000165c4 	andeq	r6, r1, r4, asr #11
    dfa0:	000165d4 	ldrdeq	r6, [r1], -r4
    dfa4:	000165e8 	andeq	r6, r1, r8, ror #11
    dfa8:	000179b0 			; <UNDEFINED> instruction: 0x000179b0
    dfac:	00016600 	andeq	r6, r1, r0, lsl #12
    dfb0:	00016610 	andeq	r6, r1, r0, lsl r6
    dfb4:	0001661c 	andeq	r6, r1, ip, lsl r6
    dfb8:	00016630 	andeq	r6, r1, r0, lsr r6
    dfbc:	00016640 	andeq	r6, r1, r0, asr #12
    dfc0:	0001664c 	andeq	r6, r1, ip, asr #12
    dfc4:	0001665c 	andeq	r6, r1, ip, asr r6
    dfc8:	00016670 	andeq	r6, r1, r0, ror r6
    dfcc:	00016684 	andeq	r6, r1, r4, lsl #13
    dfd0:	00016694 	muleq	r1, r4, r6
    dfd4:	000166ac 	andeq	r6, r1, ip, lsr #13
    dfd8:	000166c0 	andeq	r6, r1, r0, asr #13
    dfdc:	000166d4 	ldrdeq	r6, [r1], -r4
    dfe0:	000166f8 	strdeq	r6, [r1], -r8
    dfe4:	00016710 	andeq	r6, r1, r0, lsl r7
    dfe8:	00016734 	andeq	r6, r1, r4, lsr r7
    dfec:	00016760 	andeq	r6, r1, r0, ror #14
    dff0:	00016780 	andeq	r6, r1, r0, lsl #15
    dff4:	00016790 	muleq	r1, r0, r7
    dff8:	000167a8 	andeq	r6, r1, r8, lsr #15
    dffc:	000167c0 	andeq	r6, r1, r0, asr #15
    e000:	000167e4 	andeq	r6, r1, r4, ror #15
    e004:	00016804 	andeq	r6, r1, r4, lsl #16
    e008:	00016814 	andeq	r6, r1, r4, lsl r8
    e00c:	00016838 	andeq	r6, r1, r8, lsr r8
    e010:	000187ac 	andeq	r8, r1, ip, lsr #15
    e014:	0001684c 	andeq	r6, r1, ip, asr #16
    e018:	00016870 	andeq	r6, r1, r0, ror r8
    e01c:	00016890 	muleq	r1, r0, r8
    e020:	000168bc 			; <UNDEFINED> instruction: 0x000168bc
    e024:	000168e0 	andeq	r6, r1, r0, ror #17
    e028:	000168f8 	strdeq	r6, [r1], -r8
    e02c:	00000408 	andeq	r0, r0, r8, lsl #8
    e030:	00016900 	andeq	r6, r1, r0, lsl #18
    e034:	00016908 	andeq	r6, r1, r8, lsl #18
    e038:	00016910 	andeq	r6, r1, r0, lsl r9
    e03c:	ffffd450 			; <UNDEFINED> instruction: 0xffffd450
    e040:	0001691c 	andeq	r6, r1, ip, lsl r9
    e044:	0001692c 	andeq	r6, r1, ip, lsr #18
    e048:	00016944 	andeq	r6, r1, r4, asr #18
    e04c:	0001695c 	andeq	r6, r1, ip, asr r9
    e050:	00014cb0 			; <UNDEFINED> instruction: 0x00014cb0
    e054:	00016970 	andeq	r6, r1, r0, ror r9
    e058:	00016988 	andeq	r6, r1, r8, lsl #19
    e05c:	00016994 	muleq	r1, r4, r9
    e060:	000169a0 	andeq	r6, r1, r0, lsr #19
    e064:	000169a8 	andeq	r6, r1, r8, lsr #19
    e068:	000169b4 			; <UNDEFINED> instruction: 0x000169b4
    e06c:	000169c0 	andeq	r6, r1, r0, asr #19
    e070:	000169c8 	andeq	r6, r1, r8, asr #19
    e074:	000169d0 	ldrdeq	r6, [r1], -r0
    e078:	00015494 	muleq	r1, r4, r4
    e07c:	000169e8 	andeq	r6, r1, r8, ror #19
    e080:	000169f4 	strdeq	r6, [r1], -r4
    e084:	000169fc 	strdeq	r6, [r1], -ip
    e088:	00016a2c 	andeq	r6, r1, ip, lsr #20
    e08c:	00016a5c 	andeq	r6, r1, ip, asr sl
    e090:	00016a74 	andeq	r6, r1, r4, ror sl
    e094:	00016a98 	muleq	r1, r8, sl
    e098:	00016ad8 	ldrdeq	r6, [r1], -r8
    e09c:	00016b0c 	andeq	r6, r1, ip, lsl #22
    e0a0:	00016b28 	andeq	r6, r1, r8, lsr #22
    e0a4:	00016b48 	andeq	r6, r1, r8, asr #22
    e0a8:	00016b6c 	andeq	r6, r1, ip, ror #22
    e0ac:	00016b98 	muleq	r1, r8, fp
    e0b0:	00016b9c 	muleq	r1, ip, fp
    e0b4:	00016ba4 	andeq	r6, r1, r4, lsr #23
    e0b8:	00016bb0 			; <UNDEFINED> instruction: 0x00016bb0
    e0bc:	00016bb8 			; <UNDEFINED> instruction: 0x00016bb8
    e0c0:	00014450 	andeq	r4, r1, r0, asr r4
    e0c4:	00016bc4 	andeq	r6, r1, r4, asr #23
    e0c8:	00016bcc 	andeq	r6, r1, ip, asr #23
    e0cc:	00021814 	andeq	r1, r2, r4, lsl r8
    e0d0:	00016bd8 	ldrdeq	r6, [r1], -r8
    e0d4:	00016bec 	andeq	r6, r1, ip, ror #23
    e0d8:	00016bf4 	strdeq	r6, [r1], -r4
    e0dc:	00016c04 	andeq	r6, r1, r4, lsl #24
    e0e0:	00016c28 	andeq	r6, r1, r8, lsr #24
    e0e4:	00016c30 	andeq	r6, r1, r0, lsr ip
    e0e8:	00016c40 	andeq	r6, r1, r0, asr #24
    e0ec:	00016c50 	andeq	r6, r1, r0, asr ip
    e0f0:	00016c74 	andeq	r6, r1, r4, ror ip
    e0f4:	00016c7c 	andeq	r6, r1, ip, ror ip
    e0f8:	00016c8c 	andeq	r6, r1, ip, lsl #25
    e0fc:	00016c98 	muleq	r1, r8, ip
    e100:	0001586c 	andeq	r5, r1, ip, ror #16
    e104:	00015778 	andeq	r5, r1, r8, ror r7
    e108:	000156c4 	andeq	r5, r1, r4, asr #13
    e10c:	000156d8 	ldrdeq	r5, [r1], -r8
    e110:	00016c9c 	muleq	r1, ip, ip
    e114:	00016cc4 	andeq	r6, r1, r4, asr #25
    e118:	00016cd4 	ldrdeq	r6, [r1], -r4
    e11c:	00016ce4 	andeq	r6, r1, r4, ror #25
    e120:	00016d0c 	andeq	r6, r1, ip, lsl #26
    e124:	00016d1c 	andeq	r6, r1, ip, lsl sp
    e128:	00016d24 	andeq	r6, r1, r4, lsr #26
    e12c:	00016d34 	andeq	r6, r1, r4, lsr sp
    e130:	00014d20 	andeq	r4, r1, r0, lsr #26
    e134:	00016d5c 	andeq	r6, r1, ip, asr sp
    e138:	00016d70 	andeq	r6, r1, r0, ror sp
    e13c:	00016d88 	andeq	r6, r1, r8, lsl #27
    e140:	00016d98 	muleq	r1, r8, sp
    e144:	00016da8 	andeq	r6, r1, r8, lsr #27
    e148:	00016dd0 	ldrdeq	r6, [r1], -r0
    e14c:	00016de4 	andeq	r6, r1, r4, ror #27
    e150:	00016e0c 	andeq	r6, r1, ip, lsl #28
    e154:	00016e3c 	andeq	r6, r1, ip, lsr lr
    e158:	00014d5c 	andeq	r4, r1, ip, asr sp
    e15c:	00016e60 	andeq	r6, r1, r0, ror #28
    e160:	00016e70 	andeq	r6, r1, r0, ror lr
    e164:	000156f0 	strdeq	r5, [r1], -r0
    e168:	00016e80 	andeq	r6, r1, r0, lsl #29
    e16c:	00016e90 	muleq	r1, r0, lr
    e170:	00016ea0 	andeq	r6, r1, r0, lsr #29
    e174:	00016eb4 			; <UNDEFINED> instruction: 0x00016eb4
    e178:	00016ec0 	andeq	r6, r1, r0, asr #29
    e17c:	00016ed4 	ldrdeq	r6, [r1], -r4
    e180:	00016ee0 	andeq	r6, r1, r0, ror #29
    e184:	00016eec 	andeq	r6, r1, ip, ror #29
    e188:	00016f00 	andeq	r6, r1, r0, lsl #30
    e18c:	00016f10 	andeq	r6, r1, r0, lsl pc
    e190:	00016f38 	andeq	r6, r1, r8, lsr pc
    e194:	00014d94 	muleq	r1, r4, sp
    e198:	00016f58 	andeq	r6, r1, r8, asr pc
    e19c:	00016f64 	andeq	r6, r1, r4, ror #30
    e1a0:	00016f78 	andeq	r6, r1, r8, ror pc
    e1a4:	00016f8c 	andeq	r6, r1, ip, lsl #31
    e1a8:	00016fa0 	andeq	r6, r1, r0, lsr #31
    e1ac:	00016fbc 			; <UNDEFINED> instruction: 0x00016fbc
    e1b0:	00016fd0 	ldrdeq	r6, [r1], -r0
    e1b4:	00016fe8 	andeq	r6, r1, r8, ror #31
    e1b8:	00017010 	andeq	r7, r1, r0, lsl r0
    e1bc:	000153f8 	strdeq	r5, [r1], -r8
    e1c0:	00015410 	andeq	r5, r1, r0, lsl r4
    e1c4:	0001703c 	andeq	r7, r1, ip, lsr r0
    e1c8:	00015450 	andeq	r5, r1, r0, asr r4
    e1cc:	00014e7c 	andeq	r4, r1, ip, ror lr
    e1d0:	0001705c 	andeq	r7, r1, ip, asr r0
    e1d4:	0001706c 	andeq	r7, r1, ip, rrx
    e1d8:	e1a02007 	mov	r2, r7
    e1dc:	e51f11cc 	ldr	r1, [pc, #-460]	; e018 <main+0x2ae4>
    e1e0:	e1a00004 	mov	r0, r4
    e1e4:	ebffedce 	bl	9924 <sprintf@plt>
    e1e8:	e1a00004 	mov	r0, r4
    e1ec:	ebffed1b 	bl	9660 <system@plt>
    e1f0:	e51f003c 	ldr	r0, [pc, #-60]	; e1bc <main+0x2c88>
    e1f4:	ebffed16 	bl	9654 <puts@plt>
    e1f8:	e51f0040 	ldr	r0, [pc, #-64]	; e1c0 <main+0x2c8c>
    e1fc:	ebffecdb 	bl	9570 <printf@plt>
    e200:	e51f0220 	ldr	r0, [pc, #-544]	; dfe8 <main+0x2ab4>
    e204:	ebffecd9 	bl	9570 <printf@plt>
    e208:	e51f0210 	ldr	r0, [pc, #-528]	; e000 <main+0x2acc>
    e20c:	ebffecd7 	bl	9570 <printf@plt>
    e210:	e51f0050 	ldr	r0, [pc, #-80]	; e1c8 <main+0x2c94>
    e214:	ebffecd5 	bl	9570 <printf@plt>
    e218:	ea0011ac 	b	128d0 <main+0x739c>
    e21c:	e1a00005 	mov	r0, r5
    e220:	e51f123c 	ldr	r1, [pc, #-572]	; dfec <main+0x2ab8>
    e224:	ebffedb8 	bl	990c <strcmp@plt>
    e228:	e3500000 	cmp	r0, #0
    e22c:	1a000012 	bne	e27c <main+0x2d48>
    e230:	e1a01007 	mov	r1, r7
    e234:	e51f024c 	ldr	r0, [pc, #-588]	; dff0 <main+0x2abc>
    e238:	ebffef83 	bl	a04c <init_obj>
    e23c:	e51f0250 	ldr	r0, [pc, #-592]	; dff4 <main+0x2ac0>
    e240:	ebffef00 	bl	9e48 <get_cgi>
    e244:	e1a01000 	mov	r1, r0
    e248:	e51f025c 	ldr	r0, [pc, #-604]	; dff4 <main+0x2ac0>
    e24c:	ebffed33 	bl	9720 <sncfg_set@plt>
    e250:	ebffecd2 	bl	95a0 <wmxapi_set_eap_by_key@plt>
    e254:	ebffed46 	bl	9774 <sncfg_commit@plt>
    e258:	e51f00a4 	ldr	r0, [pc, #-164]	; e1bc <main+0x2c88>
    e25c:	ebffecfc 	bl	9654 <puts@plt>
    e260:	e51f00a8 	ldr	r0, [pc, #-168]	; e1c0 <main+0x2c8c>
    e264:	ebffecc1 	bl	9570 <printf@plt>
    e268:	e51f0270 	ldr	r0, [pc, #-624]	; e000 <main+0x2acc>
    e26c:	ebffecbf 	bl	9570 <printf@plt>
    e270:	e51f00b0 	ldr	r0, [pc, #-176]	; e1c8 <main+0x2c94>
    e274:	ebffecbd 	bl	9570 <printf@plt>
    e278:	ea001194 	b	128d0 <main+0x739c>
    e27c:	e1a00005 	mov	r0, r5
    e280:	e51f1290 	ldr	r1, [pc, #-656]	; dff8 <main+0x2ac4>
    e284:	ebffeda0 	bl	990c <strcmp@plt>
    e288:	e2504000 	subs	r4, r0, #0
    e28c:	1a000040 	bne	e394 <main+0x2e60>
    e290:	e28d6c6f 	add	r6, sp, #28416	; 0x6f00
    e294:	e2866020 	add	r6, r6, #32
    e298:	e246603c 	sub	r6, r6, #60	; 0x3c
    e29c:	e5981000 	ldr	r1, [r8]
    e2a0:	e1a00006 	mov	r0, r6
    e2a4:	ebfff245 	bl	abc0 <upload_bin>
    e2a8:	e1a00006 	mov	r0, r6
    e2ac:	e51f12a4 	ldr	r1, [pc, #-676]	; e010 <main+0x2adc>
    e2b0:	ebffed7d 	bl	98ac <fopen@plt>
    e2b4:	e2505000 	subs	r5, r0, #0
    e2b8:	0a000010 	beq	e300 <main+0x2dcc>
    e2bc:	e1a01004 	mov	r1, r4
    e2c0:	e1a02004 	mov	r2, r4
    e2c4:	e1a03004 	mov	r3, r4
    e2c8:	ebffedad 	bl	9984 <PEM_read_X509@plt>
    e2cc:	e3500000 	cmp	r0, #0
    e2d0:	13a04001 	movne	r4, #1
    e2d4:	1a000009 	bne	e300 <main+0x2dcc>
    e2d8:	e1a01004 	mov	r1, r4
    e2dc:	e1a02004 	mov	r2, r4
    e2e0:	e1a00005 	mov	r0, r5
    e2e4:	ebffed2e 	bl	97a4 <fseek@plt>
    e2e8:	e1a01004 	mov	r1, r4
    e2ec:	e1a00005 	mov	r0, r5
    e2f0:	ebffecd4 	bl	9648 <d2i_X509_fp@plt>
    e2f4:	e3500000 	cmp	r0, #0
    e2f8:	13a04002 	movne	r4, #2
    e2fc:	03a04000 	moveq	r4, #0
    e300:	e3540000 	cmp	r4, #0
    e304:	e28d4c71 	add	r4, sp, #28928	; 0x7100
    e308:	e2844020 	add	r4, r4, #32
    e30c:	e244403c 	sub	r4, r4, #60	; 0x3c
    e310:	da00000e 	ble	e350 <main+0x2e1c>
    e314:	e1a02006 	mov	r2, r6
    e318:	e51f1324 	ldr	r1, [pc, #-804]	; dffc <main+0x2ac8>
    e31c:	e1a00004 	mov	r0, r4
    e320:	ebffed7f 	bl	9924 <sprintf@plt>
    e324:	e1a00004 	mov	r0, r4
    e328:	ebffeccc 	bl	9660 <system@plt>
    e32c:	e51f0178 	ldr	r0, [pc, #-376]	; e1bc <main+0x2c88>
    e330:	ebffecc7 	bl	9654 <puts@plt>
    e334:	e51f017c 	ldr	r0, [pc, #-380]	; e1c0 <main+0x2c8c>
    e338:	ebffec8c 	bl	9570 <printf@plt>
    e33c:	e51f0344 	ldr	r0, [pc, #-836]	; e000 <main+0x2acc>
    e340:	ebffec8a 	bl	9570 <printf@plt>
    e344:	e51f0184 	ldr	r0, [pc, #-388]	; e1c8 <main+0x2c94>
    e348:	ebffec88 	bl	9570 <printf@plt>
    e34c:	ea00115f 	b	128d0 <main+0x739c>
    e350:	e1a02006 	mov	r2, r6
    e354:	e51f1344 	ldr	r1, [pc, #-836]	; e018 <main+0x2ae4>
    e358:	e1a00004 	mov	r0, r4
    e35c:	ebffed70 	bl	9924 <sprintf@plt>
    e360:	e1a00004 	mov	r0, r4
    e364:	ebffecbd 	bl	9660 <system@plt>
    e368:	e51f01b4 	ldr	r0, [pc, #-436]	; e1bc <main+0x2c88>
    e36c:	ebffecb8 	bl	9654 <puts@plt>
    e370:	e51f01b8 	ldr	r0, [pc, #-440]	; e1c0 <main+0x2c8c>
    e374:	ebffec7d 	bl	9570 <printf@plt>
    e378:	e51f0364 	ldr	r0, [pc, #-868]	; e01c <main+0x2ae8>
    e37c:	ebffec7b 	bl	9570 <printf@plt>
    e380:	e51f0388 	ldr	r0, [pc, #-904]	; e000 <main+0x2acc>
    e384:	ebffec79 	bl	9570 <printf@plt>
    e388:	e51f01c8 	ldr	r0, [pc, #-456]	; e1c8 <main+0x2c94>
    e38c:	ebffec77 	bl	9570 <printf@plt>
    e390:	ea00114e 	b	128d0 <main+0x739c>
    e394:	e1a00005 	mov	r0, r5
    e398:	e51f139c 	ldr	r1, [pc, #-924]	; e004 <main+0x2ad0>
    e39c:	ebffed5a 	bl	990c <strcmp@plt>
    e3a0:	e2504000 	subs	r4, r0, #0
    e3a4:	1a000040 	bne	e4ac <main+0x2f78>
    e3a8:	e28d6c6e 	add	r6, sp, #28160	; 0x6e00
    e3ac:	e2866020 	add	r6, r6, #32
    e3b0:	e246603c 	sub	r6, r6, #60	; 0x3c
    e3b4:	e5981000 	ldr	r1, [r8]
    e3b8:	e1a00006 	mov	r0, r6
    e3bc:	ebfff1ff 	bl	abc0 <upload_bin>
    e3c0:	e1a00006 	mov	r0, r6
    e3c4:	e51f13bc 	ldr	r1, [pc, #-956]	; e010 <main+0x2adc>
    e3c8:	ebffed37 	bl	98ac <fopen@plt>
    e3cc:	e2505000 	subs	r5, r0, #0
    e3d0:	0a000010 	beq	e418 <main+0x2ee4>
    e3d4:	e1a01004 	mov	r1, r4
    e3d8:	e1a02004 	mov	r2, r4
    e3dc:	e1a03004 	mov	r3, r4
    e3e0:	ebffed67 	bl	9984 <PEM_read_X509@plt>
    e3e4:	e3500000 	cmp	r0, #0
    e3e8:	13a04001 	movne	r4, #1
    e3ec:	1a000009 	bne	e418 <main+0x2ee4>
    e3f0:	e1a01004 	mov	r1, r4
    e3f4:	e1a02004 	mov	r2, r4
    e3f8:	e1a00005 	mov	r0, r5
    e3fc:	ebffece8 	bl	97a4 <fseek@plt>
    e400:	e1a01004 	mov	r1, r4
    e404:	e1a00005 	mov	r0, r5
    e408:	ebffec8e 	bl	9648 <d2i_X509_fp@plt>
    e40c:	e3500000 	cmp	r0, #0
    e410:	13a04002 	movne	r4, #2
    e414:	03a04000 	moveq	r4, #0
    e418:	e3540000 	cmp	r4, #0
    e41c:	e28d4c71 	add	r4, sp, #28928	; 0x7100
    e420:	e2844020 	add	r4, r4, #32
    e424:	e244403c 	sub	r4, r4, #60	; 0x3c
    e428:	da00000e 	ble	e468 <main+0x2f34>
    e42c:	e1a02006 	mov	r2, r6
    e430:	e51f1430 	ldr	r1, [pc, #-1072]	; e008 <main+0x2ad4>
    e434:	e1a00004 	mov	r0, r4
    e438:	ebffed39 	bl	9924 <sprintf@plt>
    e43c:	e1a00004 	mov	r0, r4
    e440:	ebffec86 	bl	9660 <system@plt>
    e444:	e51f0290 	ldr	r0, [pc, #-656]	; e1bc <main+0x2c88>
    e448:	ebffec81 	bl	9654 <puts@plt>
    e44c:	e51f0294 	ldr	r0, [pc, #-660]	; e1c0 <main+0x2c8c>
    e450:	ebffec46 	bl	9570 <printf@plt>
    e454:	e51f043c 	ldr	r0, [pc, #-1084]	; e020 <main+0x2aec>
    e458:	ebffec44 	bl	9570 <printf@plt>
    e45c:	e51f029c 	ldr	r0, [pc, #-668]	; e1c8 <main+0x2c94>
    e460:	ebffec42 	bl	9570 <printf@plt>
    e464:	ea001119 	b	128d0 <main+0x739c>
    e468:	e1a02006 	mov	r2, r6
    e46c:	e51f145c 	ldr	r1, [pc, #-1116]	; e018 <main+0x2ae4>
    e470:	e1a00004 	mov	r0, r4
    e474:	ebffed2a 	bl	9924 <sprintf@plt>
    e478:	e1a00004 	mov	r0, r4
    e47c:	ebffec77 	bl	9660 <system@plt>
    e480:	e51f02cc 	ldr	r0, [pc, #-716]	; e1bc <main+0x2c88>
    e484:	ebffec72 	bl	9654 <puts@plt>
    e488:	e51f02d0 	ldr	r0, [pc, #-720]	; e1c0 <main+0x2c8c>
    e48c:	ebffec37 	bl	9570 <printf@plt>
    e490:	e51f047c 	ldr	r0, [pc, #-1148]	; e01c <main+0x2ae8>
    e494:	ebffec35 	bl	9570 <printf@plt>
    e498:	e51f0480 	ldr	r0, [pc, #-1152]	; e020 <main+0x2aec>
    e49c:	ebffec33 	bl	9570 <printf@plt>
    e4a0:	e51f02e0 	ldr	r0, [pc, #-736]	; e1c8 <main+0x2c94>
    e4a4:	ebffec31 	bl	9570 <printf@plt>
    e4a8:	ea001108 	b	128d0 <main+0x739c>
    e4ac:	e1a00005 	mov	r0, r5
    e4b0:	e51f14ac 	ldr	r1, [pc, #-1196]	; e00c <main+0x2ad8>
    e4b4:	ebffed14 	bl	990c <strcmp@plt>
    e4b8:	e2504000 	subs	r4, r0, #0
    e4bc:	1a000040 	bne	e5c4 <main+0x3090>
    e4c0:	e28d6c6d 	add	r6, sp, #27904	; 0x6d00
    e4c4:	e2866020 	add	r6, r6, #32
    e4c8:	e246603c 	sub	r6, r6, #60	; 0x3c
    e4cc:	e5981000 	ldr	r1, [r8]
    e4d0:	e1a00006 	mov	r0, r6
    e4d4:	ebfff1b9 	bl	abc0 <upload_bin>
    e4d8:	e1a00006 	mov	r0, r6
    e4dc:	e51f14d4 	ldr	r1, [pc, #-1236]	; e010 <main+0x2adc>
    e4e0:	ebffecf1 	bl	98ac <fopen@plt>
    e4e4:	e2505000 	subs	r5, r0, #0
    e4e8:	0a000010 	beq	e530 <main+0x2ffc>
    e4ec:	e1a01004 	mov	r1, r4
    e4f0:	e1a02004 	mov	r2, r4
    e4f4:	e1a03004 	mov	r3, r4
    e4f8:	ebffed21 	bl	9984 <PEM_read_X509@plt>
    e4fc:	e3500000 	cmp	r0, #0
    e500:	13a04001 	movne	r4, #1
    e504:	1a000009 	bne	e530 <main+0x2ffc>
    e508:	e1a01004 	mov	r1, r4
    e50c:	e1a02004 	mov	r2, r4
    e510:	e1a00005 	mov	r0, r5
    e514:	ebffeca2 	bl	97a4 <fseek@plt>
    e518:	e1a01004 	mov	r1, r4
    e51c:	e1a00005 	mov	r0, r5
    e520:	ebffec48 	bl	9648 <d2i_X509_fp@plt>
    e524:	e3500000 	cmp	r0, #0
    e528:	13a04002 	movne	r4, #2
    e52c:	03a04000 	moveq	r4, #0
    e530:	e3540000 	cmp	r4, #0
    e534:	e28d4c71 	add	r4, sp, #28928	; 0x7100
    e538:	e2844020 	add	r4, r4, #32
    e53c:	e244403c 	sub	r4, r4, #60	; 0x3c
    e540:	da00000e 	ble	e580 <main+0x304c>
    e544:	e1a02006 	mov	r2, r6
    e548:	e51f153c 	ldr	r1, [pc, #-1340]	; e014 <main+0x2ae0>
    e54c:	e1a00004 	mov	r0, r4
    e550:	ebffecf3 	bl	9924 <sprintf@plt>
    e554:	e1a00004 	mov	r0, r4
    e558:	ebffec40 	bl	9660 <system@plt>
    e55c:	e51f03a8 	ldr	r0, [pc, #-936]	; e1bc <main+0x2c88>
    e560:	ebffec3b 	bl	9654 <puts@plt>
    e564:	e51f03ac 	ldr	r0, [pc, #-940]	; e1c0 <main+0x2c8c>
    e568:	ebffec00 	bl	9570 <printf@plt>
    e56c:	e51f0554 	ldr	r0, [pc, #-1364]	; e020 <main+0x2aec>
    e570:	ebffebfe 	bl	9570 <printf@plt>
    e574:	e51f03b4 	ldr	r0, [pc, #-948]	; e1c8 <main+0x2c94>
    e578:	ebffebfc 	bl	9570 <printf@plt>
    e57c:	ea0010d3 	b	128d0 <main+0x739c>
    e580:	e1a02006 	mov	r2, r6
    e584:	e51f1574 	ldr	r1, [pc, #-1396]	; e018 <main+0x2ae4>
    e588:	e1a00004 	mov	r0, r4
    e58c:	ebffece4 	bl	9924 <sprintf@plt>
    e590:	e1a00004 	mov	r0, r4
    e594:	ebffec31 	bl	9660 <system@plt>
    e598:	e51f03e4 	ldr	r0, [pc, #-996]	; e1bc <main+0x2c88>
    e59c:	ebffec2c 	bl	9654 <puts@plt>
    e5a0:	e51f03e8 	ldr	r0, [pc, #-1000]	; e1c0 <main+0x2c8c>
    e5a4:	ebffebf1 	bl	9570 <printf@plt>
    e5a8:	e51f0594 	ldr	r0, [pc, #-1428]	; e01c <main+0x2ae8>
    e5ac:	ebffebef 	bl	9570 <printf@plt>
    e5b0:	e51f0598 	ldr	r0, [pc, #-1432]	; e020 <main+0x2aec>
    e5b4:	ebffebed 	bl	9570 <printf@plt>
    e5b8:	e51f03f8 	ldr	r0, [pc, #-1016]	; e1c8 <main+0x2c94>
    e5bc:	ebffebeb 	bl	9570 <printf@plt>
    e5c0:	ea0010c2 	b	128d0 <main+0x739c>
    e5c4:	e1a00005 	mov	r0, r5
    e5c8:	e51f15ac 	ldr	r1, [pc, #-1452]	; e024 <main+0x2af0>
    e5cc:	ebffecce 	bl	990c <strcmp@plt>
    e5d0:	e2504000 	subs	r4, r0, #0
    e5d4:	1a00006b 	bne	e788 <main+0x3254>
    e5d8:	e51f0424 	ldr	r0, [pc, #-1060]	; e1bc <main+0x2c88>
    e5dc:	ebffec1c 	bl	9654 <puts@plt>
    e5e0:	e51f05c0 	ldr	r0, [pc, #-1472]	; e028 <main+0x2af4>
    e5e4:	ebffee17 	bl	9e48 <get_cgi>
    e5e8:	ebffeceb 	bl	999c <atoi@plt>
    e5ec:	e28d8b1a 	add	r8, sp, #26624	; 0x6800
    e5f0:	e28880e0 	add	r8, r8, #224	; 0xe0
    e5f4:	e2488010 	sub	r8, r8, #16
    e5f8:	e1a06000 	mov	r6, r0
    e5fc:	e1a01004 	mov	r1, r4
    e600:	e1a00008 	mov	r0, r8
    e604:	e51f25e0 	ldr	r2, [pc, #-1504]	; e02c <main+0x2af8>
    e608:	ebffecad 	bl	98c4 <memset@plt>
    e60c:	e1540006 	cmp	r4, r6
    e610:	e1a05004 	mov	r5, r4
    e614:	e5886004 	str	r6, [r8, #4]
    e618:	aa000017 	bge	e67c <main+0x3148>
    e61c:	e1a07008 	mov	r7, r8
    e620:	e28d4b1b 	add	r4, sp, #27648	; 0x6c00
    e624:	e28440e0 	add	r4, r4, #224	; 0xe0
    e628:	e2444008 	sub	r4, r4, #8
    e62c:	e1a02005 	mov	r2, r5
    e630:	e51f1608 	ldr	r1, [pc, #-1544]	; e030 <main+0x2afc>
    e634:	e1a00004 	mov	r0, r4
    e638:	ebffecb9 	bl	9924 <sprintf@plt>
    e63c:	e1a00004 	mov	r0, r4
    e640:	ebffee00 	bl	9e48 <get_cgi>
    e644:	ebffecd4 	bl	999c <atoi@plt>
    e648:	e1a02005 	mov	r2, r5
    e64c:	e5870008 	str	r0, [r7, #8]
    e650:	e51f1624 	ldr	r1, [pc, #-1572]	; e034 <main+0x2b00>
    e654:	e1a00004 	mov	r0, r4
    e658:	ebffecb1 	bl	9924 <sprintf@plt>
    e65c:	e1a00004 	mov	r0, r4
    e660:	ebffedf8 	bl	9e48 <get_cgi>
    e664:	ebffeccc 	bl	999c <atoi@plt>
    e668:	e2855001 	add	r5, r5, #1
    e66c:	e1550006 	cmp	r5, r6
    e670:	e587000c 	str	r0, [r7, #12]
    e674:	e2877008 	add	r7, r7, #8
    e678:	baffffe8 	blt	e620 <main+0x30ec>
    e67c:	e51f0644 	ldr	r0, [pc, #-1604]	; e040 <main+0x2b0c>
    e680:	ebffedf0 	bl	9e48 <get_cgi>
    e684:	e1a07000 	mov	r7, r0
    e688:	e51f0658 	ldr	r0, [pc, #-1624]	; e038 <main+0x2b04>
    e68c:	ebffeded 	bl	9e48 <get_cgi>
    e690:	e1a04007 	mov	r4, r7
    e694:	e1a0a000 	mov	sl, r0
    e698:	e1a06000 	mov	r6, r0
    e69c:	e3a05000 	mov	r5, #0
    e6a0:	ea00000b 	b	e6d4 <main+0x31a0>
    e6a4:	e4d43001 	ldrb	r3, [r4], #1
    e6a8:	e28d2c8b 	add	r2, sp, #35584	; 0x8b00
    e6ac:	e2822020 	add	r2, r2, #32
    e6b0:	e3530061 	cmp	r3, #97	; 0x61
    e6b4:	e0821005 	add	r1, r2, r5
    e6b8:	e241cc27 	sub	ip, r1, #9984	; 0x2700
    e6bc:	e2412c27 	sub	r2, r1, #9984	; 0x2700
    e6c0:	02433035 	subeq	r3, r3, #53	; 0x35
    e6c4:	e2850001 	add	r0, r5, #1
    e6c8:	05c23000 	strbeq	r3, [r2]
    e6cc:	15cc3000 	strbne	r3, [ip]
    e6d0:	e1a05000 	mov	r5, r0
    e6d4:	e1a00007 	mov	r0, r7
    e6d8:	ebffecb8 	bl	99c0 <strlen@plt>
    e6dc:	e1550000 	cmp	r5, r0
    e6e0:	3affffef 	bcc	e6a4 <main+0x3170>
    e6e4:	e28d4c8b 	add	r4, sp, #35584	; 0x8b00
    e6e8:	e2844020 	add	r4, r4, #32
    e6ec:	e0843005 	add	r3, r4, r5
    e6f0:	e3a02000 	mov	r2, #0
    e6f4:	e2433c27 	sub	r3, r3, #9984	; 0x2700
    e6f8:	e5c32000 	strb	r2, [r3]
    e6fc:	e1a05002 	mov	r5, r2
    e700:	ea000009 	b	e72c <main+0x31f8>
    e704:	e4d62001 	ldrb	r2, [r6], #1
    e708:	e28dec8b 	add	lr, sp, #35584	; 0x8b00
    e70c:	e3520061 	cmp	r2, #97	; 0x61
    e710:	e28ee020 	add	lr, lr, #32
    e714:	e51f36e0 	ldr	r3, [pc, #-1760]	; e03c <main+0x2b08>
    e718:	e08e1005 	add	r1, lr, r5
    e71c:	02422035 	subeq	r2, r2, #53	; 0x35
    e720:	e2850001 	add	r0, r5, #1
    e724:	e7c12003 	strb	r2, [r1, r3]
    e728:	e1a05000 	mov	r5, r0
    e72c:	e1a0000a 	mov	r0, sl
    e730:	ebffeca2 	bl	99c0 <strlen@plt>
    e734:	e1550000 	cmp	r5, r0
    e738:	3afffff1 	bcc	e704 <main+0x31d0>
    e73c:	e28d1c8b 	add	r1, sp, #35584	; 0x8b00
    e740:	e51f370c 	ldr	r3, [pc, #-1804]	; e03c <main+0x2b08>
    e744:	e2811020 	add	r1, r1, #32
    e748:	e081c005 	add	ip, r1, r5
    e74c:	e3a02000 	mov	r2, #0
    e750:	e28d1b19 	add	r1, sp, #25600	; 0x6400
    e754:	e7cc2003 	strb	r2, [ip, r3]
    e758:	e2811020 	add	r1, r1, #32
    e75c:	e51f0724 	ldr	r0, [pc, #-1828]	; e040 <main+0x2b0c>
    e760:	ebffebee 	bl	9720 <sncfg_set@plt>
    e764:	e28d1c5f 	add	r1, sp, #24320	; 0x5f00
    e768:	e28110a0 	add	r1, r1, #160	; 0xa0
    e76c:	e2411030 	sub	r1, r1, #48	; 0x30
    e770:	e51f0734 	ldr	r0, [pc, #-1844]	; e044 <main+0x2b10>
    e774:	ebffebe9 	bl	9720 <sncfg_set@plt>
    e778:	ebffebfd 	bl	9774 <sncfg_commit@plt>
    e77c:	e1a00008 	mov	r0, r8
    e780:	ebffeb8f 	bl	95c4 <wmxapi_set_freqlist@plt>
    e784:	ea001051 	b	128d0 <main+0x739c>
    e788:	e1a00005 	mov	r0, r5
    e78c:	e51f174c 	ldr	r1, [pc, #-1868]	; e048 <main+0x2b14>
    e790:	ebffec5d 	bl	990c <strcmp@plt>
    e794:	e3500000 	cmp	r0, #0
    e798:	1a000008 	bne	e7c0 <main+0x328c>
    e79c:	e51f05e8 	ldr	r0, [pc, #-1512]	; e1bc <main+0x2c88>
    e7a0:	ebffebab 	bl	9654 <puts@plt>
    e7a4:	e51f0760 	ldr	r0, [pc, #-1888]	; e04c <main+0x2b18>
    e7a8:	ebffeda6 	bl	9e48 <get_cgi>
    e7ac:	e1a01000 	mov	r1, r0
    e7b0:	e51f076c 	ldr	r0, [pc, #-1900]	; e04c <main+0x2b18>
    e7b4:	ebffebd9 	bl	9720 <sncfg_set@plt>
    e7b8:	ebffebed 	bl	9774 <sncfg_commit@plt>
    e7bc:	ea001043 	b	128d0 <main+0x739c>
    e7c0:	e1a00005 	mov	r0, r5
    e7c4:	e51f177c 	ldr	r1, [pc, #-1916]	; e050 <main+0x2b1c>
    e7c8:	ebffec4f 	bl	990c <strcmp@plt>
    e7cc:	e2503000 	subs	r3, r0, #0
    e7d0:	1a000106 	bne	ebf0 <main+0x36bc>
    e7d4:	e28d4e12 	add	r4, sp, #288	; 0x120
    e7d8:	e2444040 	sub	r4, r4, #64	; 0x40
    e7dc:	e28d6e12 	add	r6, sp, #288	; 0x120
    e7e0:	e1a01004 	mov	r1, r4
    e7e4:	e2466044 	sub	r6, r6, #68	; 0x44
    e7e8:	e51f0798 	ldr	r0, [pc, #-1944]	; e058 <main+0x2b24>
    e7ec:	e28d8e12 	add	r8, sp, #288	; 0x120
    e7f0:	e1a05003 	mov	r5, r3
    e7f4:	e2488048 	sub	r8, r8, #72	; 0x48
    e7f8:	ebffeb80 	bl	9600 <sncfg_get@plt>
    e7fc:	e28dae12 	add	sl, sp, #288	; 0x120
    e800:	e1a01006 	mov	r1, r6
    e804:	e51f07b0 	ldr	r0, [pc, #-1968]	; e05c <main+0x2b28>
    e808:	ebffeb7c 	bl	9600 <sncfg_get@plt>
    e80c:	e24aa04c 	sub	sl, sl, #76	; 0x4c
    e810:	e1a01008 	mov	r1, r8
    e814:	e51f07bc 	ldr	r0, [pc, #-1980]	; e060 <main+0x2b2c>
    e818:	ebffeb78 	bl	9600 <sncfg_get@plt>
    e81c:	e28d2e12 	add	r2, sp, #288	; 0x120
    e820:	e1a0100a 	mov	r1, sl
    e824:	e51f07c8 	ldr	r0, [pc, #-1992]	; e064 <main+0x2b30>
    e828:	e58d2034 	str	r2, [sp, #52]	; 0x34
    e82c:	e28dbe12 	add	fp, sp, #288	; 0x120
    e830:	ebffeb72 	bl	9600 <sncfg_get@plt>
    e834:	e59d3034 	ldr	r3, [sp, #52]	; 0x34
    e838:	e24bb050 	sub	fp, fp, #80	; 0x50
    e83c:	e28dee12 	add	lr, sp, #288	; 0x120
    e840:	e2433054 	sub	r3, r3, #84	; 0x54
    e844:	e1a0100b 	mov	r1, fp
    e848:	e51f07e8 	ldr	r0, [pc, #-2024]	; e068 <main+0x2b34>
    e84c:	e58de030 	str	lr, [sp, #48]	; 0x30
    e850:	e58d3034 	str	r3, [sp, #52]	; 0x34
    e854:	ebffeb69 	bl	9600 <sncfg_get@plt>
    e858:	e59d1030 	ldr	r1, [sp, #48]	; 0x30
    e85c:	e2411058 	sub	r1, r1, #88	; 0x58
    e860:	e28d2e12 	add	r2, sp, #288	; 0x120
    e864:	e58d1030 	str	r1, [sp, #48]	; 0x30
    e868:	e51f07f8 	ldr	r0, [pc, #-2040]	; e078 <main+0x2b44>
    e86c:	e59d1034 	ldr	r1, [sp, #52]	; 0x34
    e870:	e58d202c 	str	r2, [sp, #44]	; 0x2c
    e874:	ebffeb61 	bl	9600 <sncfg_get@plt>
    e878:	e59d302c 	ldr	r3, [sp, #44]	; 0x2c
    e87c:	e59d1030 	ldr	r1, [sp, #48]	; 0x30
    e880:	e243305c 	sub	r3, r3, #92	; 0x5c
    e884:	e51f0810 	ldr	r0, [pc, #-2064]	; e07c <main+0x2b48>
    e888:	e58d302c 	str	r3, [sp, #44]	; 0x2c
    e88c:	ebffeb5b 	bl	9600 <sncfg_get@plt>
    e890:	e28dee12 	add	lr, sp, #288	; 0x120
    e894:	e59d102c 	ldr	r1, [sp, #44]	; 0x2c
    e898:	e51f0820 	ldr	r0, [pc, #-2080]	; e080 <main+0x2b4c>
    e89c:	e58de028 	str	lr, [sp, #40]	; 0x28
    e8a0:	ebffeb56 	bl	9600 <sncfg_get@plt>
    e8a4:	e59d1028 	ldr	r1, [sp, #40]	; 0x28
    e8a8:	e28d9e12 	add	r9, sp, #288	; 0x120
    e8ac:	e2411064 	sub	r1, r1, #100	; 0x64
    e8b0:	e2499060 	sub	r9, r9, #96	; 0x60
    e8b4:	e28d2e12 	add	r2, sp, #288	; 0x120
    e8b8:	e58d1028 	str	r1, [sp, #40]	; 0x28
    e8bc:	e51f0858 	ldr	r0, [pc, #-2136]	; e06c <main+0x2b38>
    e8c0:	e1a01009 	mov	r1, r9
    e8c4:	e58d2024 	str	r2, [sp, #36]	; 0x24
    e8c8:	ebffeb4c 	bl	9600 <sncfg_get@plt>
    e8cc:	e59d3024 	ldr	r3, [sp, #36]	; 0x24
    e8d0:	e59d1028 	ldr	r1, [sp, #40]	; 0x28
    e8d4:	e2433068 	sub	r3, r3, #104	; 0x68
    e8d8:	e51f0870 	ldr	r0, [pc, #-2160]	; e070 <main+0x2b3c>
    e8dc:	e58d3024 	str	r3, [sp, #36]	; 0x24
    e8e0:	ebffeb46 	bl	9600 <sncfg_get@plt>
    e8e4:	e59d1024 	ldr	r1, [sp, #36]	; 0x24
    e8e8:	e51f087c 	ldr	r0, [pc, #-2172]	; e074 <main+0x2b40>
    e8ec:	ebffeb43 	bl	9600 <sncfg_get@plt>
    e8f0:	e1a01007 	mov	r1, r7
    e8f4:	e51f08a8 	ldr	r0, [pc, #-2216]	; e054 <main+0x2b20>
    e8f8:	ebffedd3 	bl	a04c <init_obj>
    e8fc:	e51f08ac 	ldr	r0, [pc, #-2220]	; e058 <main+0x2b24>
    e900:	ebffed50 	bl	9e48 <get_cgi>
    e904:	e1a01000 	mov	r1, r0
    e908:	e5940000 	ldr	r0, [r4]
    e90c:	ebffebfe 	bl	990c <strcmp@plt>
    e910:	e3500000 	cmp	r0, #0
    e914:	e1a04005 	mov	r4, r5
    e918:	e1a07005 	mov	r7, r5
    e91c:	0a000005 	beq	e938 <main+0x3404>
    e920:	e51f08d0 	ldr	r0, [pc, #-2256]	; e058 <main+0x2b24>
    e924:	ebffed47 	bl	9e48 <get_cgi>
    e928:	e1a01000 	mov	r1, r0
    e92c:	e51f08dc 	ldr	r0, [pc, #-2268]	; e058 <main+0x2b24>
    e930:	ebfff11b 	bl	ada4 <Sncfg_set>
    e934:	e3a05001 	mov	r5, #1
    e938:	e51f08e4 	ldr	r0, [pc, #-2276]	; e05c <main+0x2b28>
    e93c:	ebffed41 	bl	9e48 <get_cgi>
    e940:	e1a01000 	mov	r1, r0
    e944:	e5960000 	ldr	r0, [r6]
    e948:	ebffebef 	bl	990c <strcmp@plt>
    e94c:	e3500000 	cmp	r0, #0
    e950:	0a000005 	beq	e96c <main+0x3438>
    e954:	e51f0900 	ldr	r0, [pc, #-2304]	; e05c <main+0x2b28>
    e958:	ebffed3a 	bl	9e48 <get_cgi>
    e95c:	e1a01000 	mov	r1, r0
    e960:	e51f090c 	ldr	r0, [pc, #-2316]	; e05c <main+0x2b28>
    e964:	ebfff10e 	bl	ada4 <Sncfg_set>
    e968:	e3a05001 	mov	r5, #1
    e96c:	e51f0918 	ldr	r0, [pc, #-2328]	; e05c <main+0x2b28>
    e970:	ebffed34 	bl	9e48 <get_cgi>
    e974:	e51f1818 	ldr	r1, [pc, #-2072]	; e164 <main+0x2c30>
    e978:	ebffebe3 	bl	990c <strcmp@plt>
    e97c:	e3500000 	cmp	r0, #0
    e980:	1a000026 	bne	ea20 <main+0x34ec>
    e984:	e51f092c 	ldr	r0, [pc, #-2348]	; e060 <main+0x2b2c>
    e988:	ebffed2e 	bl	9e48 <get_cgi>
    e98c:	e1a01000 	mov	r1, r0
    e990:	e5980000 	ldr	r0, [r8]
    e994:	ebffebdc 	bl	990c <strcmp@plt>
    e998:	e3500000 	cmp	r0, #0
    e99c:	0a000005 	beq	e9b8 <main+0x3484>
    e9a0:	e51f0948 	ldr	r0, [pc, #-2376]	; e060 <main+0x2b2c>
    e9a4:	ebffed27 	bl	9e48 <get_cgi>
    e9a8:	e1a01000 	mov	r1, r0
    e9ac:	e51f0954 	ldr	r0, [pc, #-2388]	; e060 <main+0x2b2c>
    e9b0:	ebfff0fb 	bl	ada4 <Sncfg_set>
    e9b4:	e3a05001 	mov	r5, #1
    e9b8:	e51f095c 	ldr	r0, [pc, #-2396]	; e064 <main+0x2b30>
    e9bc:	ebffed21 	bl	9e48 <get_cgi>
    e9c0:	e1a01000 	mov	r1, r0
    e9c4:	e59a0000 	ldr	r0, [sl]
    e9c8:	ebffebcf 	bl	990c <strcmp@plt>
    e9cc:	e3500000 	cmp	r0, #0
    e9d0:	0a000005 	beq	e9ec <main+0x34b8>
    e9d4:	e51f0978 	ldr	r0, [pc, #-2424]	; e064 <main+0x2b30>
    e9d8:	ebffed1a 	bl	9e48 <get_cgi>
    e9dc:	e1a01000 	mov	r1, r0
    e9e0:	e51f0984 	ldr	r0, [pc, #-2436]	; e064 <main+0x2b30>
    e9e4:	ebfff0ee 	bl	ada4 <Sncfg_set>
    e9e8:	e3a05001 	mov	r5, #1
    e9ec:	e51f098c 	ldr	r0, [pc, #-2444]	; e068 <main+0x2b34>
    e9f0:	ebffed14 	bl	9e48 <get_cgi>
    e9f4:	e1a01000 	mov	r1, r0
    e9f8:	e59b0000 	ldr	r0, [fp]
    e9fc:	ebffebc2 	bl	990c <strcmp@plt>
    ea00:	e3500000 	cmp	r0, #0
    ea04:	0a000005 	beq	ea20 <main+0x34ec>
    ea08:	e51f09a8 	ldr	r0, [pc, #-2472]	; e068 <main+0x2b34>
    ea0c:	ebffed0d 	bl	9e48 <get_cgi>
    ea10:	e1a01000 	mov	r1, r0
    ea14:	e51f09b4 	ldr	r0, [pc, #-2484]	; e068 <main+0x2b34>
    ea18:	ebfff0e1 	bl	ada4 <Sncfg_set>
    ea1c:	e3a05001 	mov	r5, #1
    ea20:	e51f09bc 	ldr	r0, [pc, #-2492]	; e06c <main+0x2b38>
    ea24:	ebffed07 	bl	9e48 <get_cgi>
    ea28:	e1a01000 	mov	r1, r0
    ea2c:	e5990000 	ldr	r0, [r9]
    ea30:	ebffebb5 	bl	990c <strcmp@plt>
    ea34:	e3500000 	cmp	r0, #0
    ea38:	0a000005 	beq	ea54 <main+0x3520>
    ea3c:	e51f09d8 	ldr	r0, [pc, #-2520]	; e06c <main+0x2b38>
    ea40:	ebffed00 	bl	9e48 <get_cgi>
    ea44:	e1a01000 	mov	r1, r0
    ea48:	e51f09e4 	ldr	r0, [pc, #-2532]	; e06c <main+0x2b38>
    ea4c:	ebfff0d4 	bl	ada4 <Sncfg_set>
    ea50:	e3a05001 	mov	r5, #1
    ea54:	e51f09ec 	ldr	r0, [pc, #-2540]	; e070 <main+0x2b3c>
    ea58:	ebffecfa 	bl	9e48 <get_cgi>
    ea5c:	e59de028 	ldr	lr, [sp, #40]	; 0x28
    ea60:	e1a01000 	mov	r1, r0
    ea64:	e59e0000 	ldr	r0, [lr]
    ea68:	ebffeba7 	bl	990c <strcmp@plt>
    ea6c:	e3500000 	cmp	r0, #0
    ea70:	0a000005 	beq	ea8c <main+0x3558>
    ea74:	e51f0a0c 	ldr	r0, [pc, #-2572]	; e070 <main+0x2b3c>
    ea78:	ebffecf2 	bl	9e48 <get_cgi>
    ea7c:	e1a01000 	mov	r1, r0
    ea80:	e51f0a18 	ldr	r0, [pc, #-2584]	; e070 <main+0x2b3c>
    ea84:	ebfff0c6 	bl	ada4 <Sncfg_set>
    ea88:	e3a05001 	mov	r5, #1
    ea8c:	e51f0a20 	ldr	r0, [pc, #-2592]	; e074 <main+0x2b40>
    ea90:	ebffecec 	bl	9e48 <get_cgi>
    ea94:	e59d2024 	ldr	r2, [sp, #36]	; 0x24
    ea98:	e1a01000 	mov	r1, r0
    ea9c:	e5920000 	ldr	r0, [r2]
    eaa0:	ebffeb99 	bl	990c <strcmp@plt>
    eaa4:	e3500000 	cmp	r0, #0
    eaa8:	0a000005 	beq	eac4 <main+0x3590>
    eaac:	e51f0a40 	ldr	r0, [pc, #-2624]	; e074 <main+0x2b40>
    eab0:	ebffece4 	bl	9e48 <get_cgi>
    eab4:	e1a01000 	mov	r1, r0
    eab8:	e51f0a4c 	ldr	r0, [pc, #-2636]	; e074 <main+0x2b40>
    eabc:	ebfff0b8 	bl	ada4 <Sncfg_set>
    eac0:	e3a05001 	mov	r5, #1
    eac4:	e51f0a54 	ldr	r0, [pc, #-2644]	; e078 <main+0x2b44>
    eac8:	ebffecde 	bl	9e48 <get_cgi>
    eacc:	e59d3034 	ldr	r3, [sp, #52]	; 0x34
    ead0:	e1a01000 	mov	r1, r0
    ead4:	e5930000 	ldr	r0, [r3]
    ead8:	ebffeb8b 	bl	990c <strcmp@plt>
    eadc:	e3500000 	cmp	r0, #0
    eae0:	0a000005 	beq	eafc <main+0x35c8>
    eae4:	e51f0a74 	ldr	r0, [pc, #-2676]	; e078 <main+0x2b44>
    eae8:	ebffecd6 	bl	9e48 <get_cgi>
    eaec:	e1a01000 	mov	r1, r0
    eaf0:	e51f0a80 	ldr	r0, [pc, #-2688]	; e078 <main+0x2b44>
    eaf4:	ebfff0aa 	bl	ada4 <Sncfg_set>
    eaf8:	e3a07001 	mov	r7, #1
    eafc:	e51f0a88 	ldr	r0, [pc, #-2696]	; e07c <main+0x2b48>
    eb00:	ebffecd0 	bl	9e48 <get_cgi>
    eb04:	e59de030 	ldr	lr, [sp, #48]	; 0x30
    eb08:	e1a01000 	mov	r1, r0
    eb0c:	e59e0000 	ldr	r0, [lr]
    eb10:	ebffeb7d 	bl	990c <strcmp@plt>
    eb14:	e3500000 	cmp	r0, #0
    eb18:	0a000005 	beq	eb34 <main+0x3600>
    eb1c:	e51f0aa8 	ldr	r0, [pc, #-2728]	; e07c <main+0x2b48>
    eb20:	ebffecc8 	bl	9e48 <get_cgi>
    eb24:	e1a01000 	mov	r1, r0
    eb28:	e51f0ab4 	ldr	r0, [pc, #-2740]	; e07c <main+0x2b48>
    eb2c:	ebfff09c 	bl	ada4 <Sncfg_set>
    eb30:	e3a04001 	mov	r4, #1
    eb34:	e51f0abc 	ldr	r0, [pc, #-2748]	; e080 <main+0x2b4c>
    eb38:	ebffecc2 	bl	9e48 <get_cgi>
    eb3c:	e59d202c 	ldr	r2, [sp, #44]	; 0x2c
    eb40:	e1a01000 	mov	r1, r0
    eb44:	e5920000 	ldr	r0, [r2]
    eb48:	ebffeb6f 	bl	990c <strcmp@plt>
    eb4c:	e3500000 	cmp	r0, #0
    eb50:	0a000005 	beq	eb6c <main+0x3638>
    eb54:	e51f0adc 	ldr	r0, [pc, #-2780]	; e080 <main+0x2b4c>
    eb58:	ebffecba 	bl	9e48 <get_cgi>
    eb5c:	e1a01000 	mov	r1, r0
    eb60:	e51f0ae8 	ldr	r0, [pc, #-2792]	; e080 <main+0x2b4c>
    eb64:	ebfff08e 	bl	ada4 <Sncfg_set>
    eb68:	e3a04001 	mov	r4, #1
    eb6c:	ebffeb00 	bl	9774 <sncfg_commit@plt>
    eb70:	e3550000 	cmp	r5, #0
    eb74:	151f0af8 	ldrne	r0, [pc, #-2808]	; e084 <main+0x2b50>
    eb78:	1bffeab8 	blne	9660 <system@plt>
    eb7c:	e3540000 	cmp	r4, #0
    eb80:	151f0b00 	ldrne	r0, [pc, #-2816]	; e088 <main+0x2b54>
    eb84:	1a00000a 	bne	ebb4 <main+0x3680>
    eb88:	e3570000 	cmp	r7, #0
    eb8c:	0a000009 	beq	ebb8 <main+0x3684>
    eb90:	e51f0b0c 	ldr	r0, [pc, #-2828]	; e08c <main+0x2b58>
    eb94:	ebffeab1 	bl	9660 <system@plt>
    eb98:	e51f0b10 	ldr	r0, [pc, #-2832]	; e090 <main+0x2b5c>
    eb9c:	ebffeaaf 	bl	9660 <system@plt>
    eba0:	e51f0b14 	ldr	r0, [pc, #-2836]	; e094 <main+0x2b60>
    eba4:	ebffeaad 	bl	9660 <system@plt>
    eba8:	e51f0b18 	ldr	r0, [pc, #-2840]	; e098 <main+0x2b64>
    ebac:	ebffeaab 	bl	9660 <system@plt>
    ebb0:	e51f0b1c 	ldr	r0, [pc, #-2844]	; e09c <main+0x2b68>
    ebb4:	ebffeaa9 	bl	9660 <system@plt>
    ebb8:	e51f0a04 	ldr	r0, [pc, #-2564]	; e1bc <main+0x2c88>
    ebbc:	ebffeaa4 	bl	9654 <puts@plt>
    ebc0:	e51f0a08 	ldr	r0, [pc, #-2568]	; e1c0 <main+0x2c8c>
    ebc4:	ebffea69 	bl	9570 <printf@plt>
    ebc8:	e3550000 	cmp	r5, #0
    ebcc:	151f0b34 	ldrne	r0, [pc, #-2868]	; e0a0 <main+0x2b6c>
    ebd0:	1a000002 	bne	ebe0 <main+0x36ac>
    ebd4:	e3570000 	cmp	r7, #0
    ebd8:	151f0b3c 	ldrne	r0, [pc, #-2876]	; e0a4 <main+0x2b70>
    ebdc:	051f0b3c 	ldreq	r0, [pc, #-2876]	; e0a8 <main+0x2b74>
    ebe0:	ebffea62 	bl	9570 <printf@plt>
    ebe4:	e51f0a24 	ldr	r0, [pc, #-2596]	; e1c8 <main+0x2c94>
    ebe8:	ebffea60 	bl	9570 <printf@plt>
    ebec:	ea000f37 	b	128d0 <main+0x739c>
    ebf0:	e1a00005 	mov	r0, r5
    ebf4:	e51f1b50 	ldr	r1, [pc, #-2896]	; e0ac <main+0x2b78>
    ebf8:	ebffeb43 	bl	990c <strcmp@plt>
    ebfc:	e3500000 	cmp	r0, #0
    ec00:	1a000002 	bne	ec10 <main+0x36dc>
    ec04:	e51f0b5c 	ldr	r0, [pc, #-2908]	; e0b0 <main+0x2b7c>
    ec08:	ebffea94 	bl	9660 <system@plt>
    ec0c:	ea000f2f 	b	128d0 <main+0x739c>
    ec10:	e1a00005 	mov	r0, r5
    ec14:	e51f1b68 	ldr	r1, [pc, #-2920]	; e0b4 <main+0x2b80>
    ec18:	ebffeb3b 	bl	990c <strcmp@plt>
    ec1c:	e3500000 	cmp	r0, #0
    ec20:	1a000004 	bne	ec38 <main+0x3704>
    ec24:	e51f0a70 	ldr	r0, [pc, #-2672]	; e1bc <main+0x2c88>
    ec28:	ebffea89 	bl	9654 <puts@plt>
    ec2c:	e51f0b7c 	ldr	r0, [pc, #-2940]	; e0b8 <main+0x2b84>
    ec30:	ebffea4e 	bl	9570 <printf@plt>
    ec34:	ea000f25 	b	128d0 <main+0x739c>
    ec38:	e1a00005 	mov	r0, r5
    ec3c:	e51f1b88 	ldr	r1, [pc, #-2952]	; e0bc <main+0x2b88>
    ec40:	ebffeb31 	bl	990c <strcmp@plt>
    ec44:	e3500000 	cmp	r0, #0
    ec48:	1a00000b 	bne	ec7c <main+0x3748>
    ec4c:	e51f0a98 	ldr	r0, [pc, #-2712]	; e1bc <main+0x2c88>
    ec50:	ebffea7f 	bl	9654 <puts@plt>
    ec54:	e51f1b9c 	ldr	r1, [pc, #-2972]	; e0c0 <main+0x2b8c>
    ec58:	e51f0b90 	ldr	r0, [pc, #-2960]	; e0d0 <main+0x2b9c>
    ec5c:	ebffeaaf 	bl	9720 <sncfg_set@plt>
    ec60:	ebffeac3 	bl	9774 <sncfg_commit@plt>
    ec64:	ebffead1 	bl	97b0 <wmxapi_connect_by_auto@plt>
    ec68:	e3500000 	cmp	r0, #0
    ec6c:	1a000f17 	bne	128d0 <main+0x739c>
    ec70:	e51f0bb4 	ldr	r0, [pc, #-2996]	; e0c4 <main+0x2b90>
    ec74:	ebffea3d 	bl	9570 <printf@plt>
    ec78:	ea000f14 	b	128d0 <main+0x739c>
    ec7c:	e1a00005 	mov	r0, r5
    ec80:	e51f1bc0 	ldr	r1, [pc, #-3008]	; e0c8 <main+0x2b94>
    ec84:	ebffeb20 	bl	990c <strcmp@plt>
    ec88:	e3500000 	cmp	r0, #0
    ec8c:	1a00000c 	bne	ecc4 <main+0x3790>
    ec90:	e51f0adc 	ldr	r0, [pc, #-2780]	; e1bc <main+0x2c88>
    ec94:	ebffea6e 	bl	9654 <puts@plt>
    ec98:	e51f3bd4 	ldr	r3, [pc, #-3028]	; e0cc <main+0x2b98>
    ec9c:	e51f0bd4 	ldr	r0, [pc, #-3028]	; e0d0 <main+0x2b9c>
    eca0:	e5931000 	ldr	r1, [r3]
    eca4:	ebffea9d 	bl	9720 <sncfg_set@plt>
    eca8:	ebffeab1 	bl	9774 <sncfg_commit@plt>
    ecac:	ebffea29 	bl	9558 <wmxapi_disconnect@plt>
    ecb0:	e3500000 	cmp	r0, #0
    ecb4:	1a000f05 	bne	128d0 <main+0x739c>
    ecb8:	e51f0bec 	ldr	r0, [pc, #-3052]	; e0d4 <main+0x2ba0>
    ecbc:	ebffea2b 	bl	9570 <printf@plt>
    ecc0:	ea000f02 	b	128d0 <main+0x739c>
    ecc4:	e1a00005 	mov	r0, r5
    ecc8:	e51f1bf8 	ldr	r1, [pc, #-3064]	; e0d8 <main+0x2ba4>
    eccc:	ebffeb0e 	bl	990c <strcmp@plt>
    ecd0:	e3500000 	cmp	r0, #0
    ecd4:	1a000013 	bne	ed28 <main+0x37f4>
    ecd8:	e28d4e12 	add	r4, sp, #288	; 0x120
    ecdc:	e244406c 	sub	r4, r4, #108	; 0x6c
    ece0:	e51f0b2c 	ldr	r0, [pc, #-2860]	; e1bc <main+0x2c88>
    ece4:	ebffea5a 	bl	9654 <puts@plt>
    ece8:	e1a01004 	mov	r1, r4
    ecec:	e51f0c0c 	ldr	r0, [pc, #-3084]	; e0e8 <main+0x2bb4>
    ecf0:	ebffea42 	bl	9600 <sncfg_get@plt>
    ecf4:	e5940000 	ldr	r0, [r4]
    ecf8:	e51f1b9c 	ldr	r1, [pc, #-2972]	; e164 <main+0x2c30>
    ecfc:	ebffeb02 	bl	990c <strcmp@plt>
    ed00:	e3500000 	cmp	r0, #0
    ed04:	1a000ef1 	bne	128d0 <main+0x739c>
    ed08:	e51f1c0c 	ldr	r1, [pc, #-3084]	; e104 <main+0x2bd0>
    ed0c:	e51f0c2c 	ldr	r0, [pc, #-3116]	; e0e8 <main+0x2bb4>
    ed10:	ebffea82 	bl	9720 <sncfg_set@plt>
    ed14:	e51f0c40 	ldr	r0, [pc, #-3136]	; e0dc <main+0x2ba8>
    ed18:	ebffea50 	bl	9660 <system@plt>
    ed1c:	e51f0c44 	ldr	r0, [pc, #-3140]	; e0e0 <main+0x2bac>
    ed20:	ebffea12 	bl	9570 <printf@plt>
    ed24:	ea000ee9 	b	128d0 <main+0x739c>
    ed28:	e1a00005 	mov	r0, r5
    ed2c:	e51f1c50 	ldr	r1, [pc, #-3152]	; e0e4 <main+0x2bb0>
    ed30:	ebffeaf5 	bl	990c <strcmp@plt>
    ed34:	e3500000 	cmp	r0, #0
    ed38:	1a000013 	bne	ed8c <main+0x3858>
    ed3c:	e28d4e12 	add	r4, sp, #288	; 0x120
    ed40:	e2444070 	sub	r4, r4, #112	; 0x70
    ed44:	e51f0b90 	ldr	r0, [pc, #-2960]	; e1bc <main+0x2c88>
    ed48:	ebffea41 	bl	9654 <puts@plt>
    ed4c:	e1a01004 	mov	r1, r4
    ed50:	e51f0c70 	ldr	r0, [pc, #-3184]	; e0e8 <main+0x2bb4>
    ed54:	ebffea29 	bl	9600 <sncfg_get@plt>
    ed58:	e5940000 	ldr	r0, [r4]
    ed5c:	e51f1c60 	ldr	r1, [pc, #-3168]	; e104 <main+0x2bd0>
    ed60:	ebffeae9 	bl	990c <strcmp@plt>
    ed64:	e3500000 	cmp	r0, #0
    ed68:	1a000ed8 	bne	128d0 <main+0x739c>
    ed6c:	e51f1c10 	ldr	r1, [pc, #-3088]	; e164 <main+0x2c30>
    ed70:	e51f0c90 	ldr	r0, [pc, #-3216]	; e0e8 <main+0x2bb4>
    ed74:	ebffea69 	bl	9720 <sncfg_set@plt>
    ed78:	e51f0c94 	ldr	r0, [pc, #-3220]	; e0ec <main+0x2bb8>
    ed7c:	ebffea37 	bl	9660 <system@plt>
    ed80:	e51f0c98 	ldr	r0, [pc, #-3224]	; e0f0 <main+0x2bbc>
    ed84:	ebffe9f9 	bl	9570 <printf@plt>
    ed88:	ea000ed0 	b	128d0 <main+0x739c>
    ed8c:	e1a00005 	mov	r0, r5
    ed90:	e51f1ca4 	ldr	r1, [pc, #-3236]	; e0f4 <main+0x2bc0>
    ed94:	ebffeadc 	bl	990c <strcmp@plt>
    ed98:	e3500000 	cmp	r0, #0
    ed9c:	1a00001b 	bne	ee10 <main+0x38dc>
    eda0:	e51f0bec 	ldr	r0, [pc, #-3052]	; e1bc <main+0x2c88>
    eda4:	ebffea2a 	bl	9654 <puts@plt>
    eda8:	e51f0cb8 	ldr	r0, [pc, #-3256]	; e0f8 <main+0x2bc4>
    edac:	ebffec25 	bl	9e48 <get_cgi>
    edb0:	e51f1c94 	ldr	r1, [pc, #-3220]	; e124 <main+0x2bf0>
    edb4:	ebffead4 	bl	990c <strcmp@plt>
    edb8:	e3500000 	cmp	r0, #0
    edbc:	1a000007 	bne	ede0 <main+0x38ac>
    edc0:	e51f1ccc 	ldr	r1, [pc, #-3276]	; e0fc <main+0x2bc8>
    edc4:	e51f0cc4 	ldr	r0, [pc, #-3268]	; e108 <main+0x2bd4>
    edc8:	ebffea54 	bl	9720 <sncfg_set@plt>
    edcc:	e51f1cd4 	ldr	r1, [pc, #-3284]	; e100 <main+0x2bcc>
    edd0:	e51f0ccc 	ldr	r0, [pc, #-3276]	; e10c <main+0x2bd8>
    edd4:	ebffea51 	bl	9720 <sncfg_set@plt>
    edd8:	e3a00037 	mov	r0, #55	; 0x37
    eddc:	ea000006 	b	edfc <main+0x38c8>
    ede0:	e51f1ce4 	ldr	r1, [pc, #-3300]	; e104 <main+0x2bd0>
    ede4:	e51f0ce4 	ldr	r0, [pc, #-3300]	; e108 <main+0x2bd4>
    ede8:	ebffea4c 	bl	9720 <sncfg_set@plt>
    edec:	e51f0ce8 	ldr	r0, [pc, #-3304]	; e10c <main+0x2bd8>
    edf0:	e51f1c94 	ldr	r1, [pc, #-3220]	; e164 <main+0x2c30>
    edf4:	ebffea49 	bl	9720 <sncfg_set@plt>
    edf8:	e3a00030 	mov	r0, #48	; 0x30
    edfc:	ebffe9cf 	bl	9540 <putchar@plt>
    ee00:	ebffea5b 	bl	9774 <sncfg_commit@plt>
    ee04:	e51f0cfc 	ldr	r0, [pc, #-3324]	; e110 <main+0x2bdc>
    ee08:	ebffea14 	bl	9660 <system@plt>
    ee0c:	ea000eaf 	b	128d0 <main+0x739c>
    ee10:	e1a00005 	mov	r0, r5
    ee14:	e51f1d08 	ldr	r1, [pc, #-3336]	; e114 <main+0x2be0>
    ee18:	ebffeabb 	bl	990c <strcmp@plt>
    ee1c:	e3500000 	cmp	r0, #0
    ee20:	1a000028 	bne	eec8 <main+0x3994>
    ee24:	e51f0c70 	ldr	r0, [pc, #-3184]	; e1bc <main+0x2c88>
    ee28:	ebffea09 	bl	9654 <puts@plt>
    ee2c:	e51f0d1c 	ldr	r0, [pc, #-3356]	; e118 <main+0x2be4>
    ee30:	ebffec04 	bl	9e48 <get_cgi>
    ee34:	e51f1d18 	ldr	r1, [pc, #-3352]	; e124 <main+0x2bf0>
    ee38:	ebffeab3 	bl	990c <strcmp@plt>
    ee3c:	e3500000 	cmp	r0, #0
    ee40:	1a000004 	bne	ee58 <main+0x3924>
    ee44:	e51f0d30 	ldr	r0, [pc, #-3376]	; e11c <main+0x2be8>
    ee48:	ebffea04 	bl	9660 <system@plt>
    ee4c:	e3a00031 	mov	r0, #49	; 0x31
    ee50:	ebffe9ba 	bl	9540 <putchar@plt>
    ee54:	ea000e9d 	b	128d0 <main+0x739c>
    ee58:	e51f0d40 	ldr	r0, [pc, #-3392]	; e120 <main+0x2bec>
    ee5c:	ebffebf9 	bl	9e48 <get_cgi>
    ee60:	e51f1d44 	ldr	r1, [pc, #-3396]	; e124 <main+0x2bf0>
    ee64:	ebffeaa8 	bl	990c <strcmp@plt>
    ee68:	e3500000 	cmp	r0, #0
    ee6c:	1a000e97 	bne	128d0 <main+0x739c>
    ee70:	e51f0d50 	ldr	r0, [pc, #-3408]	; e128 <main+0x2bf4>
    ee74:	ebffebf3 	bl	9e48 <get_cgi>
    ee78:	ebffefdf 	bl	adfc <check_pin_code>
    ee7c:	e3500001 	cmp	r0, #1
    ee80:	1a00000d 	bne	eebc <main+0x3988>
    ee84:	e51f0d64 	ldr	r0, [pc, #-3428]	; e128 <main+0x2bf4>
    ee88:	ebffebee 	bl	9e48 <get_cgi>
    ee8c:	e28d4c71 	add	r4, sp, #28928	; 0x7100
    ee90:	e2844020 	add	r4, r4, #32
    ee94:	e244403c 	sub	r4, r4, #60	; 0x3c
    ee98:	e1a02000 	mov	r2, r0
    ee9c:	e51f1d78 	ldr	r1, [pc, #-3448]	; e12c <main+0x2bf8>
    eea0:	e1a00004 	mov	r0, r4
    eea4:	ebffea9e 	bl	9924 <sprintf@plt>
    eea8:	e1a00004 	mov	r0, r4
    eeac:	ebffe9eb 	bl	9660 <system@plt>
    eeb0:	e3a00032 	mov	r0, #50	; 0x32
    eeb4:	ebffe9a1 	bl	9540 <putchar@plt>
    eeb8:	ea000e84 	b	128d0 <main+0x739c>
    eebc:	e3a00030 	mov	r0, #48	; 0x30
    eec0:	ebffe99e 	bl	9540 <putchar@plt>
    eec4:	ea000e81 	b	128d0 <main+0x739c>
    eec8:	e1a00005 	mov	r0, r5
    eecc:	e51f1da4 	ldr	r1, [pc, #-3492]	; e130 <main+0x2bfc>
    eed0:	ebffea8d 	bl	990c <strcmp@plt>
    eed4:	e3500000 	cmp	r0, #0
    eed8:	1a000031 	bne	efa4 <main+0x3a70>
    eedc:	e28d4e12 	add	r4, sp, #288	; 0x120
    eee0:	e1a01007 	mov	r1, r7
    eee4:	e2444074 	sub	r4, r4, #116	; 0x74
    eee8:	e51f0dbc 	ldr	r0, [pc, #-3516]	; e134 <main+0x2c00>
    eeec:	ebffec56 	bl	a04c <init_obj>
    eef0:	e1a01004 	mov	r1, r4
    eef4:	e51f0db4 	ldr	r0, [pc, #-3508]	; e148 <main+0x2c14>
    eef8:	ebffe9c0 	bl	9600 <sncfg_get@plt>
    eefc:	e51f0dcc 	ldr	r0, [pc, #-3532]	; e138 <main+0x2c04>
    ef00:	ebffebd0 	bl	9e48 <get_cgi>
    ef04:	e1a01000 	mov	r1, r0
    ef08:	e51f0dd8 	ldr	r0, [pc, #-3544]	; e138 <main+0x2c04>
    ef0c:	ebffefa4 	bl	ada4 <Sncfg_set>
    ef10:	e51f0dd0 	ldr	r0, [pc, #-3536]	; e148 <main+0x2c14>
    ef14:	ebffebcb 	bl	9e48 <get_cgi>
    ef18:	e1a01000 	mov	r1, r0
    ef1c:	e51f0ddc 	ldr	r0, [pc, #-3548]	; e148 <main+0x2c14>
    ef20:	ebffef9f 	bl	ada4 <Sncfg_set>
    ef24:	e51f0df0 	ldr	r0, [pc, #-3568]	; e13c <main+0x2c08>
    ef28:	ebfff174 	bl	b500 <get_checkbox>
    ef2c:	e1a01000 	mov	r1, r0
    ef30:	e51f0dfc 	ldr	r0, [pc, #-3580]	; e13c <main+0x2c08>
    ef34:	ebffef9a 	bl	ada4 <Sncfg_set>
    ef38:	e51f0e00 	ldr	r0, [pc, #-3584]	; e140 <main+0x2c0c>
    ef3c:	ebfff16f 	bl	b500 <get_checkbox>
    ef40:	e1a01000 	mov	r1, r0
    ef44:	e51f0e0c 	ldr	r0, [pc, #-3596]	; e140 <main+0x2c0c>
    ef48:	ebffef95 	bl	ada4 <Sncfg_set>
    ef4c:	ebffea08 	bl	9774 <sncfg_commit@plt>
    ef50:	e51f0e14 	ldr	r0, [pc, #-3604]	; e144 <main+0x2c10>
    ef54:	ebffe9c1 	bl	9660 <system@plt>
    ef58:	e51f0e18 	ldr	r0, [pc, #-3608]	; e148 <main+0x2c14>
    ef5c:	ebffebb9 	bl	9e48 <get_cgi>
    ef60:	e1a01000 	mov	r1, r0
    ef64:	e5940000 	ldr	r0, [r4]
    ef68:	ebffea67 	bl	990c <strcmp@plt>
    ef6c:	e3500000 	cmp	r0, #0
    ef70:	151f0e2c 	ldrne	r0, [pc, #-3628]	; e14c <main+0x2c18>
    ef74:	1bffe9b9 	blne	9660 <system@plt>
    ef78:	e51f0e30 	ldr	r0, [pc, #-3632]	; e150 <main+0x2c1c>
    ef7c:	ebffe9b7 	bl	9660 <system@plt>
    ef80:	e51f0dcc 	ldr	r0, [pc, #-3532]	; e1bc <main+0x2c88>
    ef84:	ebffe9b2 	bl	9654 <puts@plt>
    ef88:	e51f0dd0 	ldr	r0, [pc, #-3536]	; e1c0 <main+0x2c8c>
    ef8c:	ebffe977 	bl	9570 <printf@plt>
    ef90:	e51f0e44 	ldr	r0, [pc, #-3652]	; e154 <main+0x2c20>
    ef94:	ebffe975 	bl	9570 <printf@plt>
    ef98:	e51f0dd8 	ldr	r0, [pc, #-3544]	; e1c8 <main+0x2c94>
    ef9c:	ebffe973 	bl	9570 <printf@plt>
    efa0:	ea000e4a 	b	128d0 <main+0x739c>
    efa4:	e1a00005 	mov	r0, r5
    efa8:	e51f1e58 	ldr	r1, [pc, #-3672]	; e158 <main+0x2c24>
    efac:	ebffea56 	bl	990c <strcmp@plt>
    efb0:	e3500000 	cmp	r0, #0
    efb4:	1a000045 	bne	f0d0 <main+0x3b9c>
    efb8:	e1a01007 	mov	r1, r7
    efbc:	e51f0e68 	ldr	r0, [pc, #-3688]	; e15c <main+0x2c28>
    efc0:	ebffec21 	bl	a04c <init_obj>
    efc4:	e51f0e6c 	ldr	r0, [pc, #-3692]	; e160 <main+0x2c2c>
    efc8:	ebffeb9e 	bl	9e48 <get_cgi>
    efcc:	e28d1e12 	add	r1, sp, #288	; 0x120
    efd0:	e1a04000 	mov	r4, r0
    efd4:	e2411078 	sub	r1, r1, #120	; 0x78
    efd8:	e51f0e80 	ldr	r0, [pc, #-3712]	; e160 <main+0x2c2c>
    efdc:	ebffe987 	bl	9600 <sncfg_get@plt>
    efe0:	e51f0e88 	ldr	r0, [pc, #-3720]	; e160 <main+0x2c2c>
    efe4:	e1a01004 	mov	r1, r4
    efe8:	ebffef6d 	bl	ada4 <Sncfg_set>
    efec:	e1a00004 	mov	r0, r4
    eff0:	e51f1e94 	ldr	r1, [pc, #-3732]	; e164 <main+0x2c30>
    eff4:	ebffea44 	bl	990c <strcmp@plt>
    eff8:	e3500000 	cmp	r0, #0
    effc:	1a000013 	bne	f050 <main+0x3b1c>
    f000:	e51f0ea0 	ldr	r0, [pc, #-3744]	; e168 <main+0x2c34>
    f004:	ebffeb8f 	bl	9e48 <get_cgi>
    f008:	e1a01000 	mov	r1, r0
    f00c:	e51f0eac 	ldr	r0, [pc, #-3756]	; e168 <main+0x2c34>
    f010:	ebffef63 	bl	ada4 <Sncfg_set>
    f014:	e51f0eb0 	ldr	r0, [pc, #-3760]	; e16c <main+0x2c38>
    f018:	ebffeb8a 	bl	9e48 <get_cgi>
    f01c:	e1a01000 	mov	r1, r0
    f020:	e51f0ebc 	ldr	r0, [pc, #-3772]	; e16c <main+0x2c38>
    f024:	ebffef5e 	bl	ada4 <Sncfg_set>
    f028:	e51f0ec0 	ldr	r0, [pc, #-3776]	; e170 <main+0x2c3c>
    f02c:	ebffeb85 	bl	9e48 <get_cgi>
    f030:	e1a01000 	mov	r1, r0
    f034:	e51f0ecc 	ldr	r0, [pc, #-3788]	; e170 <main+0x2c3c>
    f038:	ebffef59 	bl	ada4 <Sncfg_set>
    f03c:	e51f0ed0 	ldr	r0, [pc, #-3792]	; e174 <main+0x2c40>
    f040:	ebffeb80 	bl	9e48 <get_cgi>
    f044:	e1a01000 	mov	r1, r0
    f048:	e51f0edc 	ldr	r0, [pc, #-3804]	; e174 <main+0x2c40>
    f04c:	ebffef54 	bl	ada4 <Sncfg_set>
    f050:	e51f0ee0 	ldr	r0, [pc, #-3808]	; e178 <main+0x2c44>
    f054:	ebffeb7b 	bl	9e48 <get_cgi>
    f058:	e1a01000 	mov	r1, r0
    f05c:	e51f0eec 	ldr	r0, [pc, #-3820]	; e178 <main+0x2c44>
    f060:	ebffef4f 	bl	ada4 <Sncfg_set>
    f064:	e51f0ef0 	ldr	r0, [pc, #-3824]	; e17c <main+0x2c48>
    f068:	ebffeb76 	bl	9e48 <get_cgi>
    f06c:	e1a01000 	mov	r1, r0
    f070:	e51f0ef8 	ldr	r0, [pc, #-3832]	; e180 <main+0x2c4c>
    f074:	ebffe9a9 	bl	9720 <sncfg_set@plt>
    f078:	e51f0efc 	ldr	r0, [pc, #-3836]	; e184 <main+0x2c50>
    f07c:	ebffeb71 	bl	9e48 <get_cgi>
    f080:	e1a01000 	mov	r1, r0
    f084:	e51f0f08 	ldr	r0, [pc, #-3848]	; e184 <main+0x2c50>
    f088:	ebffe9a4 	bl	9720 <sncfg_set@plt>
    f08c:	e51f0f0c 	ldr	r0, [pc, #-3852]	; e188 <main+0x2c54>
    f090:	ebffeb6c 	bl	9e48 <get_cgi>
    f094:	e1a01000 	mov	r1, r0
    f098:	e51f0f18 	ldr	r0, [pc, #-3864]	; e188 <main+0x2c54>
    f09c:	ebffe99f 	bl	9720 <sncfg_set@plt>
    f0a0:	ebffe9b3 	bl	9774 <sncfg_commit@plt>
    f0a4:	e51f0f20 	ldr	r0, [pc, #-3872]	; e18c <main+0x2c58>
    f0a8:	ebffe96c 	bl	9660 <system@plt>
    f0ac:	e51f0ef8 	ldr	r0, [pc, #-3832]	; e1bc <main+0x2c88>
    f0b0:	ebffe967 	bl	9654 <puts@plt>
    f0b4:	e51f0efc 	ldr	r0, [pc, #-3836]	; e1c0 <main+0x2c8c>
    f0b8:	ebffe92c 	bl	9570 <printf@plt>
    f0bc:	e51f0f34 	ldr	r0, [pc, #-3892]	; e190 <main+0x2c5c>
    f0c0:	ebffe92a 	bl	9570 <printf@plt>
    f0c4:	e51f0f04 	ldr	r0, [pc, #-3844]	; e1c8 <main+0x2c94>
    f0c8:	ebffe928 	bl	9570 <printf@plt>
    f0cc:	ea000dff 	b	128d0 <main+0x739c>
    f0d0:	e1a00005 	mov	r0, r5
    f0d4:	e51f1f48 	ldr	r1, [pc, #-3912]	; e194 <main+0x2c60>
    f0d8:	ebffea0b 	bl	990c <strcmp@plt>
    f0dc:	e3500000 	cmp	r0, #0
    f0e0:	1a00002e 	bne	f1a0 <main+0x3c6c>
    f0e4:	e1a01007 	mov	r1, r7
    f0e8:	e51f0f58 	ldr	r0, [pc, #-3928]	; e198 <main+0x2c64>
    f0ec:	ebffebd6 	bl	a04c <init_obj>
    f0f0:	e51f0f5c 	ldr	r0, [pc, #-3932]	; e19c <main+0x2c68>
    f0f4:	ebfff101 	bl	b500 <get_checkbox>
    f0f8:	e1a01000 	mov	r1, r0
    f0fc:	e51f0f68 	ldr	r0, [pc, #-3944]	; e19c <main+0x2c68>
    f100:	ebffef27 	bl	ada4 <Sncfg_set>
    f104:	e51f0f6c 	ldr	r0, [pc, #-3948]	; e1a0 <main+0x2c6c>
    f108:	ebfff0fc 	bl	b500 <get_checkbox>
    f10c:	e1a01000 	mov	r1, r0
    f110:	e51f0f78 	ldr	r0, [pc, #-3960]	; e1a0 <main+0x2c6c>
    f114:	ebffef22 	bl	ada4 <Sncfg_set>
    f118:	e51f0f7c 	ldr	r0, [pc, #-3964]	; e1a4 <main+0x2c70>
    f11c:	ebfff0f7 	bl	b500 <get_checkbox>
    f120:	e1a01000 	mov	r1, r0
    f124:	e51f0f88 	ldr	r0, [pc, #-3976]	; e1a4 <main+0x2c70>
    f128:	ebffef1d 	bl	ada4 <Sncfg_set>
    f12c:	e51f0f8c 	ldr	r0, [pc, #-3980]	; e1a8 <main+0x2c74>
    f130:	ebfff0f2 	bl	b500 <get_checkbox>
    f134:	e1a01000 	mov	r1, r0
    f138:	e51f0f98 	ldr	r0, [pc, #-3992]	; e1a8 <main+0x2c74>
    f13c:	ebffef18 	bl	ada4 <Sncfg_set>
    f140:	e51f0f9c 	ldr	r0, [pc, #-3996]	; e1ac <main+0x2c78>
    f144:	ebfff0ed 	bl	b500 <get_checkbox>
    f148:	e1a01000 	mov	r1, r0
    f14c:	e51f0fa8 	ldr	r0, [pc, #-4008]	; e1ac <main+0x2c78>
    f150:	ebffef13 	bl	ada4 <Sncfg_set>
    f154:	e51f0fac 	ldr	r0, [pc, #-4012]	; e1b0 <main+0x2c7c>
    f158:	ebffeb3a 	bl	9e48 <get_cgi>
    f15c:	e1a01000 	mov	r1, r0
    f160:	e51f0fb8 	ldr	r0, [pc, #-4024]	; e1b0 <main+0x2c7c>
    f164:	ebffef0e 	bl	ada4 <Sncfg_set>
    f168:	ebffe981 	bl	9774 <sncfg_commit@plt>
    f16c:	e51f0fc0 	ldr	r0, [pc, #-4032]	; e1b4 <main+0x2c80>
    f170:	ebffe93a 	bl	9660 <system@plt>
    f174:	e51f0fc4 	ldr	r0, [pc, #-4036]	; e1b8 <main+0x2c84>
    f178:	ebffe938 	bl	9660 <system@plt>
    f17c:	e51f0fc8 	ldr	r0, [pc, #-4040]	; e1bc <main+0x2c88>
    f180:	ebffe933 	bl	9654 <puts@plt>
    f184:	e51f0fcc 	ldr	r0, [pc, #-4044]	; e1c0 <main+0x2c8c>
    f188:	ebffe8f8 	bl	9570 <printf@plt>
    f18c:	e51f0fd0 	ldr	r0, [pc, #-4048]	; e1c4 <main+0x2c90>
    f190:	ebffe8f6 	bl	9570 <printf@plt>
    f194:	e51f0fd4 	ldr	r0, [pc, #-4052]	; e1c8 <main+0x2c94>
    f198:	ebffe8f4 	bl	9570 <printf@plt>
    f19c:	ea000dcb 	b	128d0 <main+0x739c>
    f1a0:	e1a00005 	mov	r0, r5
    f1a4:	e51f1fe0 	ldr	r1, [pc, #-4064]	; e1cc <main+0x2c98>
    f1a8:	ebffe9d7 	bl	990c <strcmp@plt>
    f1ac:	e3500000 	cmp	r0, #0
    f1b0:	1a000018 	bne	f218 <main+0x3ce4>
    f1b4:	e1a01007 	mov	r1, r7
    f1b8:	e51f0ff0 	ldr	r0, [pc, #-4080]	; e1d0 <main+0x2c9c>
    f1bc:	ebffeba2 	bl	a04c <init_obj>
    f1c0:	e51f0ff4 	ldr	r0, [pc, #-4084]	; e1d4 <main+0x2ca0>
    f1c4:	ebfff0cd 	bl	b500 <get_checkbox>
    f1c8:	e1a01000 	mov	r1, r0
    f1cc:	e59f0fec 	ldr	r0, [pc, #4076]	; 101c0 <main+0x4c8c>
    f1d0:	ebffeef3 	bl	ada4 <Sncfg_set>
    f1d4:	e59f0fe8 	ldr	r0, [pc, #4072]	; 101c4 <main+0x4c90>
    f1d8:	ebfff0c8 	bl	b500 <get_checkbox>
    f1dc:	e1a01000 	mov	r1, r0
    f1e0:	e59f0fdc 	ldr	r0, [pc, #4060]	; 101c4 <main+0x4c90>
    f1e4:	ebffeeee 	bl	ada4 <Sncfg_set>
    f1e8:	ebffe961 	bl	9774 <sncfg_commit@plt>
    f1ec:	e59f0fd4 	ldr	r0, [pc, #4052]	; 101c8 <main+0x4c94>
    f1f0:	ebffe91a 	bl	9660 <system@plt>
    f1f4:	e59f0fd0 	ldr	r0, [pc, #4048]	; 101cc <main+0x4c98>
    f1f8:	ebffe915 	bl	9654 <puts@plt>
    f1fc:	e59f0fcc 	ldr	r0, [pc, #4044]	; 101d0 <main+0x4c9c>
    f200:	ebffe8da 	bl	9570 <printf@plt>
    f204:	e59f0fc8 	ldr	r0, [pc, #4040]	; 101d4 <main+0x4ca0>
    f208:	ebffe8d8 	bl	9570 <printf@plt>
    f20c:	e59f0fc4 	ldr	r0, [pc, #4036]	; 101d8 <main+0x4ca4>
    f210:	ebffe8d6 	bl	9570 <printf@plt>
    f214:	ea000dad 	b	128d0 <main+0x739c>
    f218:	e1a00005 	mov	r0, r5
    f21c:	e59f1fb8 	ldr	r1, [pc, #4024]	; 101dc <main+0x4ca8>
    f220:	ebffe9b9 	bl	990c <strcmp@plt>
    f224:	e3500000 	cmp	r0, #0
    f228:	1a000013 	bne	f27c <main+0x3d48>
    f22c:	e1a01007 	mov	r1, r7
    f230:	e59f0fa8 	ldr	r0, [pc, #4008]	; 101e0 <main+0x4cac>
    f234:	ebffeb84 	bl	a04c <init_obj>
    f238:	e59f0fa4 	ldr	r0, [pc, #4004]	; 101e4 <main+0x4cb0>
    f23c:	ebffeb01 	bl	9e48 <get_cgi>
    f240:	e1a01000 	mov	r1, r0
    f244:	e59f0f98 	ldr	r0, [pc, #3992]	; 101e4 <main+0x4cb0>
    f248:	ebffeed5 	bl	ada4 <Sncfg_set>
    f24c:	ebffe948 	bl	9774 <sncfg_commit@plt>
    f250:	e59f0f90 	ldr	r0, [pc, #3984]	; 101e8 <main+0x4cb4>
    f254:	ebffe901 	bl	9660 <system@plt>
    f258:	e59f0f6c 	ldr	r0, [pc, #3948]	; 101cc <main+0x4c98>
    f25c:	ebffe8fc 	bl	9654 <puts@plt>
    f260:	e59f0f68 	ldr	r0, [pc, #3944]	; 101d0 <main+0x4c9c>
    f264:	ebffe8c1 	bl	9570 <printf@plt>
    f268:	e59f0f7c 	ldr	r0, [pc, #3964]	; 101ec <main+0x4cb8>
    f26c:	ebffe8bf 	bl	9570 <printf@plt>
    f270:	e59f0f60 	ldr	r0, [pc, #3936]	; 101d8 <main+0x4ca4>
    f274:	ebffe8bd 	bl	9570 <printf@plt>
    f278:	ea000d94 	b	128d0 <main+0x739c>
    f27c:	e1a00005 	mov	r0, r5
    f280:	e59f1f68 	ldr	r1, [pc, #3944]	; 101f0 <main+0x4cbc>
    f284:	ebffe9a0 	bl	990c <strcmp@plt>
    f288:	e3500000 	cmp	r0, #0
    f28c:	1a000013 	bne	f2e0 <main+0x3dac>
    f290:	e1a01007 	mov	r1, r7
    f294:	e59f0f58 	ldr	r0, [pc, #3928]	; 101f4 <main+0x4cc0>
    f298:	ebffeb6b 	bl	a04c <init_obj>
    f29c:	e59f0f54 	ldr	r0, [pc, #3924]	; 101f8 <main+0x4cc4>
    f2a0:	ebffeae8 	bl	9e48 <get_cgi>
    f2a4:	e1a01000 	mov	r1, r0
    f2a8:	e59f0f48 	ldr	r0, [pc, #3912]	; 101f8 <main+0x4cc4>
    f2ac:	ebffeebc 	bl	ada4 <Sncfg_set>
    f2b0:	ebffe92f 	bl	9774 <sncfg_commit@plt>
    f2b4:	e59f0f40 	ldr	r0, [pc, #3904]	; 101fc <main+0x4cc8>
    f2b8:	ebffe8e8 	bl	9660 <system@plt>
    f2bc:	e59f0f08 	ldr	r0, [pc, #3848]	; 101cc <main+0x4c98>
    f2c0:	ebffe8e3 	bl	9654 <puts@plt>
    f2c4:	e59f0f04 	ldr	r0, [pc, #3844]	; 101d0 <main+0x4c9c>
    f2c8:	ebffe8a8 	bl	9570 <printf@plt>
    f2cc:	e59f0f2c 	ldr	r0, [pc, #3884]	; 10200 <main+0x4ccc>
    f2d0:	ebffe8a6 	bl	9570 <printf@plt>
    f2d4:	e59f0efc 	ldr	r0, [pc, #3836]	; 101d8 <main+0x4ca4>
    f2d8:	ebffe8a4 	bl	9570 <printf@plt>
    f2dc:	ea000d7b 	b	128d0 <main+0x739c>
    f2e0:	e1a00005 	mov	r0, r5
    f2e4:	e59f1f18 	ldr	r1, [pc, #3864]	; 10204 <main+0x4cd0>
    f2e8:	ebffe987 	bl	990c <strcmp@plt>
    f2ec:	e3500000 	cmp	r0, #0
    f2f0:	1a00005c 	bne	f468 <main+0x3f34>
    f2f4:	e1a01007 	mov	r1, r7
    f2f8:	e59f0f08 	ldr	r0, [pc, #3848]	; 10208 <main+0x4cd4>
    f2fc:	ebffeb52 	bl	a04c <init_obj>
    f300:	e59f0f04 	ldr	r0, [pc, #3844]	; 1020c <main+0x4cd8>
    f304:	ebfff07d 	bl	b500 <get_checkbox>
    f308:	e28d5e12 	add	r5, sp, #288	; 0x120
    f30c:	e245507c 	sub	r5, r5, #124	; 0x7c
    f310:	e1a04000 	mov	r4, r0
    f314:	e1a01005 	mov	r1, r5
    f318:	e59f0eec 	ldr	r0, [pc, #3820]	; 1020c <main+0x4cd8>
    f31c:	ebffe8b7 	bl	9600 <sncfg_get@plt>
    f320:	e59f0ee4 	ldr	r0, [pc, #3812]	; 1020c <main+0x4cd8>
    f324:	e1a01004 	mov	r1, r4
    f328:	ebffee9d 	bl	ada4 <Sncfg_set>
    f32c:	e1a00004 	mov	r0, r4
    f330:	e59f1ed8 	ldr	r1, [pc, #3800]	; 10210 <main+0x4cdc>
    f334:	ebffe974 	bl	990c <strcmp@plt>
    f338:	e3500000 	cmp	r0, #0
    f33c:	1a00001d 	bne	f3b8 <main+0x3e84>
    f340:	e59f0ecc 	ldr	r0, [pc, #3788]	; 10214 <main+0x4ce0>
    f344:	ebffeabf 	bl	9e48 <get_cgi>
    f348:	e1a01000 	mov	r1, r0
    f34c:	e59f0ec0 	ldr	r0, [pc, #3776]	; 10214 <main+0x4ce0>
    f350:	ebffee93 	bl	ada4 <Sncfg_set>
    f354:	e59f0ebc 	ldr	r0, [pc, #3772]	; 10218 <main+0x4ce4>
    f358:	ebffeaba 	bl	9e48 <get_cgi>
    f35c:	e1a01000 	mov	r1, r0
    f360:	e59f0eb0 	ldr	r0, [pc, #3760]	; 10218 <main+0x4ce4>
    f364:	ebffee8e 	bl	ada4 <Sncfg_set>
    f368:	e59f0eac 	ldr	r0, [pc, #3756]	; 1021c <main+0x4ce8>
    f36c:	ebffeab5 	bl	9e48 <get_cgi>
    f370:	e1a01000 	mov	r1, r0
    f374:	e59f0ea0 	ldr	r0, [pc, #3744]	; 1021c <main+0x4ce8>
    f378:	ebffee89 	bl	ada4 <Sncfg_set>
    f37c:	e59f0e9c 	ldr	r0, [pc, #3740]	; 10220 <main+0x4cec>
    f380:	ebffeab0 	bl	9e48 <get_cgi>
    f384:	e1a01000 	mov	r1, r0
    f388:	e59f0e90 	ldr	r0, [pc, #3728]	; 10220 <main+0x4cec>
    f38c:	ebffee84 	bl	ada4 <Sncfg_set>
    f390:	e59f0e8c 	ldr	r0, [pc, #3724]	; 10224 <main+0x4cf0>
    f394:	ebffeaab 	bl	9e48 <get_cgi>
    f398:	e1a01000 	mov	r1, r0
    f39c:	e59f0e80 	ldr	r0, [pc, #3712]	; 10224 <main+0x4cf0>
    f3a0:	ebffee7f 	bl	ada4 <Sncfg_set>
    f3a4:	e59f0e7c 	ldr	r0, [pc, #3708]	; 10228 <main+0x4cf4>
    f3a8:	ebffeaa6 	bl	9e48 <get_cgi>
    f3ac:	e1a01000 	mov	r1, r0
    f3b0:	e59f0e70 	ldr	r0, [pc, #3696]	; 10228 <main+0x4cf4>
    f3b4:	ebffee7a 	bl	ada4 <Sncfg_set>
    f3b8:	ebffe8ed 	bl	9774 <sncfg_commit@plt>
    f3bc:	e5950000 	ldr	r0, [r5]
    f3c0:	e59f1e64 	ldr	r1, [pc, #3684]	; 1022c <main+0x4cf8>
    f3c4:	ebffe950 	bl	990c <strcmp@plt>
    f3c8:	e3500000 	cmp	r0, #0
    f3cc:	1a000005 	bne	f3e8 <main+0x3eb4>
    f3d0:	e1a00004 	mov	r0, r4
    f3d4:	e59f1e34 	ldr	r1, [pc, #3636]	; 10210 <main+0x4cdc>
    f3d8:	ebffe94b 	bl	990c <strcmp@plt>
    f3dc:	e3500000 	cmp	r0, #0
    f3e0:	059f0e48 	ldreq	r0, [pc, #3656]	; 10230 <main+0x4cfc>
    f3e4:	0a000015 	beq	f440 <main+0x3f0c>
    f3e8:	e5950000 	ldr	r0, [r5]
    f3ec:	e59f1e1c 	ldr	r1, [pc, #3612]	; 10210 <main+0x4cdc>
    f3f0:	ebffe945 	bl	990c <strcmp@plt>
    f3f4:	e3500000 	cmp	r0, #0
    f3f8:	1a000005 	bne	f414 <main+0x3ee0>
    f3fc:	e1a00004 	mov	r0, r4
    f400:	e59f1e24 	ldr	r1, [pc, #3620]	; 1022c <main+0x4cf8>
    f404:	ebffe940 	bl	990c <strcmp@plt>
    f408:	e3500000 	cmp	r0, #0
    f40c:	059f0e20 	ldreq	r0, [pc, #3616]	; 10234 <main+0x4d00>
    f410:	0a00000a 	beq	f440 <main+0x3f0c>
    f414:	e5950000 	ldr	r0, [r5]
    f418:	e59f1df0 	ldr	r1, [pc, #3568]	; 10210 <main+0x4cdc>
    f41c:	ebffe93a 	bl	990c <strcmp@plt>
    f420:	e3500000 	cmp	r0, #0
    f424:	1a000006 	bne	f444 <main+0x3f10>
    f428:	e1a00004 	mov	r0, r4
    f42c:	e59f1ddc 	ldr	r1, [pc, #3548]	; 10210 <main+0x4cdc>
    f430:	ebffe935 	bl	990c <strcmp@plt>
    f434:	e3500000 	cmp	r0, #0
    f438:	1a000001 	bne	f444 <main+0x3f10>
    f43c:	e59f0df4 	ldr	r0, [pc, #3572]	; 10238 <main+0x4d04>
    f440:	ebffe886 	bl	9660 <system@plt>
    f444:	e59f0d80 	ldr	r0, [pc, #3456]	; 101cc <main+0x4c98>
    f448:	ebffe881 	bl	9654 <puts@plt>
    f44c:	e59f0d7c 	ldr	r0, [pc, #3452]	; 101d0 <main+0x4c9c>
    f450:	ebffe846 	bl	9570 <printf@plt>
    f454:	e59f0de0 	ldr	r0, [pc, #3552]	; 1023c <main+0x4d08>
    f458:	ebffe844 	bl	9570 <printf@plt>
    f45c:	e59f0d74 	ldr	r0, [pc, #3444]	; 101d8 <main+0x4ca4>
    f460:	ebffe842 	bl	9570 <printf@plt>
    f464:	ea000d19 	b	128d0 <main+0x739c>
    f468:	e1a00005 	mov	r0, r5
    f46c:	e59f1dcc 	ldr	r1, [pc, #3532]	; 10240 <main+0x4d0c>
    f470:	ebffe925 	bl	990c <strcmp@plt>
    f474:	e3500000 	cmp	r0, #0
    f478:	1a000040 	bne	f580 <main+0x404c>
    f47c:	e1a01007 	mov	r1, r7
    f480:	e59f0dbc 	ldr	r0, [pc, #3516]	; 10244 <main+0x4d10>
    f484:	ebffeaf0 	bl	a04c <init_obj>
    f488:	e59f0db8 	ldr	r0, [pc, #3512]	; 10248 <main+0x4d14>
    f48c:	ebfff01b 	bl	b500 <get_checkbox>
    f490:	e1a01000 	mov	r1, r0
    f494:	e59f0dac 	ldr	r0, [pc, #3500]	; 10248 <main+0x4d14>
    f498:	ebffee41 	bl	ada4 <Sncfg_set>
    f49c:	e59f0da8 	ldr	r0, [pc, #3496]	; 1024c <main+0x4d18>
    f4a0:	ebffea68 	bl	9e48 <get_cgi>
    f4a4:	e1a01000 	mov	r1, r0
    f4a8:	e59f0d9c 	ldr	r0, [pc, #3484]	; 1024c <main+0x4d18>
    f4ac:	ebffee3c 	bl	ada4 <Sncfg_set>
    f4b0:	e59f0d98 	ldr	r0, [pc, #3480]	; 10250 <main+0x4d1c>
    f4b4:	ebffea63 	bl	9e48 <get_cgi>
    f4b8:	e1a01000 	mov	r1, r0
    f4bc:	e59f0d8c 	ldr	r0, [pc, #3468]	; 10250 <main+0x4d1c>
    f4c0:	ebffee37 	bl	ada4 <Sncfg_set>
    f4c4:	e59f0d88 	ldr	r0, [pc, #3464]	; 10254 <main+0x4d20>
    f4c8:	ebffea5e 	bl	9e48 <get_cgi>
    f4cc:	e1a01000 	mov	r1, r0
    f4d0:	e59f0d7c 	ldr	r0, [pc, #3452]	; 10254 <main+0x4d20>
    f4d4:	ebffee32 	bl	ada4 <Sncfg_set>
    f4d8:	e59f0d78 	ldr	r0, [pc, #3448]	; 10258 <main+0x4d24>
    f4dc:	ebffea59 	bl	9e48 <get_cgi>
    f4e0:	e1a01000 	mov	r1, r0
    f4e4:	e59f0d6c 	ldr	r0, [pc, #3436]	; 10258 <main+0x4d24>
    f4e8:	ebffee2d 	bl	ada4 <Sncfg_set>
    f4ec:	e59f0d68 	ldr	r0, [pc, #3432]	; 1025c <main+0x4d28>
    f4f0:	ebffea54 	bl	9e48 <get_cgi>
    f4f4:	e1a01000 	mov	r1, r0
    f4f8:	e59f0d5c 	ldr	r0, [pc, #3420]	; 1025c <main+0x4d28>
    f4fc:	ebffee28 	bl	ada4 <Sncfg_set>
    f500:	e59f0d58 	ldr	r0, [pc, #3416]	; 10260 <main+0x4d2c>
    f504:	ebffea4f 	bl	9e48 <get_cgi>
    f508:	e1a01000 	mov	r1, r0
    f50c:	e59f0d4c 	ldr	r0, [pc, #3404]	; 10260 <main+0x4d2c>
    f510:	ebffee23 	bl	ada4 <Sncfg_set>
    f514:	e59f0d48 	ldr	r0, [pc, #3400]	; 10264 <main+0x4d30>
    f518:	ebffea4a 	bl	9e48 <get_cgi>
    f51c:	e1a01000 	mov	r1, r0
    f520:	e59f0d3c 	ldr	r0, [pc, #3388]	; 10264 <main+0x4d30>
    f524:	ebffee1e 	bl	ada4 <Sncfg_set>
    f528:	e59f0d38 	ldr	r0, [pc, #3384]	; 10268 <main+0x4d34>
    f52c:	ebffea45 	bl	9e48 <get_cgi>
    f530:	e1a01000 	mov	r1, r0
    f534:	e59f0d2c 	ldr	r0, [pc, #3372]	; 10268 <main+0x4d34>
    f538:	ebffee19 	bl	ada4 <Sncfg_set>
    f53c:	e59f0d28 	ldr	r0, [pc, #3368]	; 1026c <main+0x4d38>
    f540:	ebffea40 	bl	9e48 <get_cgi>
    f544:	e1a01000 	mov	r1, r0
    f548:	e59f0d1c 	ldr	r0, [pc, #3356]	; 1026c <main+0x4d38>
    f54c:	ebffee14 	bl	ada4 <Sncfg_set>
    f550:	ebffe887 	bl	9774 <sncfg_commit@plt>
    f554:	e59f0d14 	ldr	r0, [pc, #3348]	; 10270 <main+0x4d3c>
    f558:	ebffe840 	bl	9660 <system@plt>
    f55c:	e59f0c68 	ldr	r0, [pc, #3176]	; 101cc <main+0x4c98>
    f560:	ebffe83b 	bl	9654 <puts@plt>
    f564:	e59f0c64 	ldr	r0, [pc, #3172]	; 101d0 <main+0x4c9c>
    f568:	ebffe800 	bl	9570 <printf@plt>
    f56c:	e59f0d00 	ldr	r0, [pc, #3328]	; 10274 <main+0x4d40>
    f570:	ebffe7fe 	bl	9570 <printf@plt>
    f574:	e59f0c5c 	ldr	r0, [pc, #3164]	; 101d8 <main+0x4ca4>
    f578:	ebffe7fc 	bl	9570 <printf@plt>
    f57c:	ea000cd3 	b	128d0 <main+0x739c>
    f580:	e1a00005 	mov	r0, r5
    f584:	e59f1cec 	ldr	r1, [pc, #3308]	; 10278 <main+0x4d44>
    f588:	ebffe8df 	bl	990c <strcmp@plt>
    f58c:	e3500000 	cmp	r0, #0
    f590:	1a000048 	bne	f6b8 <main+0x4184>
    f594:	e1a01007 	mov	r1, r7
    f598:	e59f0cdc 	ldr	r0, [pc, #3292]	; 1027c <main+0x4d48>
    f59c:	ebffeaaa 	bl	a04c <init_obj>
    f5a0:	e59f0cd8 	ldr	r0, [pc, #3288]	; 10280 <main+0x4d4c>
    f5a4:	ebffea27 	bl	9e48 <get_cgi>
    f5a8:	e1a01000 	mov	r1, r0
    f5ac:	e59f0cd0 	ldr	r0, [pc, #3280]	; 10284 <main+0x4d50>
    f5b0:	ebffe85a 	bl	9720 <sncfg_set@plt>
    f5b4:	e59f0ccc 	ldr	r0, [pc, #3276]	; 10288 <main+0x4d54>
    f5b8:	ebffea22 	bl	9e48 <get_cgi>
    f5bc:	e1a01000 	mov	r1, r0
    f5c0:	e59f0cc4 	ldr	r0, [pc, #3268]	; 1028c <main+0x4d58>
    f5c4:	ebffe855 	bl	9720 <sncfg_set@plt>
    f5c8:	e59f0cc0 	ldr	r0, [pc, #3264]	; 10290 <main+0x4d5c>
    f5cc:	ebffea1d 	bl	9e48 <get_cgi>
    f5d0:	e1a01000 	mov	r1, r0
    f5d4:	e59f0cb8 	ldr	r0, [pc, #3256]	; 10294 <main+0x4d60>
    f5d8:	ebffe850 	bl	9720 <sncfg_set@plt>
    f5dc:	e59f0cb4 	ldr	r0, [pc, #3252]	; 10298 <main+0x4d64>
    f5e0:	ebffea18 	bl	9e48 <get_cgi>
    f5e4:	e1a01000 	mov	r1, r0
    f5e8:	e59f0cac 	ldr	r0, [pc, #3244]	; 1029c <main+0x4d68>
    f5ec:	ebffe84b 	bl	9720 <sncfg_set@plt>
    f5f0:	e59f0ca8 	ldr	r0, [pc, #3240]	; 102a0 <main+0x4d6c>
    f5f4:	ebffea13 	bl	9e48 <get_cgi>
    f5f8:	e1a01000 	mov	r1, r0
    f5fc:	e59f0ca0 	ldr	r0, [pc, #3232]	; 102a4 <main+0x4d70>
    f600:	ebffe846 	bl	9720 <sncfg_set@plt>
    f604:	e59f0c9c 	ldr	r0, [pc, #3228]	; 102a8 <main+0x4d74>
    f608:	ebffea0e 	bl	9e48 <get_cgi>
    f60c:	e1a01000 	mov	r1, r0
    f610:	e59f0c94 	ldr	r0, [pc, #3220]	; 102ac <main+0x4d78>
    f614:	ebffe841 	bl	9720 <sncfg_set@plt>
    f618:	e59f0c90 	ldr	r0, [pc, #3216]	; 102b0 <main+0x4d7c>
    f61c:	ebffea09 	bl	9e48 <get_cgi>
    f620:	e1a01000 	mov	r1, r0
    f624:	e59f0c88 	ldr	r0, [pc, #3208]	; 102b4 <main+0x4d80>
    f628:	ebffe83c 	bl	9720 <sncfg_set@plt>
    f62c:	e59f0c84 	ldr	r0, [pc, #3204]	; 102b8 <main+0x4d84>
    f630:	ebffea04 	bl	9e48 <get_cgi>
    f634:	e1a01000 	mov	r1, r0
    f638:	e59f0c7c 	ldr	r0, [pc, #3196]	; 102bc <main+0x4d88>
    f63c:	ebffe837 	bl	9720 <sncfg_set@plt>
    f640:	e59f0c78 	ldr	r0, [pc, #3192]	; 102c0 <main+0x4d8c>
    f644:	ebffe9ff 	bl	9e48 <get_cgi>
    f648:	e1a01000 	mov	r1, r0
    f64c:	e59f0c70 	ldr	r0, [pc, #3184]	; 102c4 <main+0x4d90>
    f650:	ebffe832 	bl	9720 <sncfg_set@plt>
    f654:	e59f0c6c 	ldr	r0, [pc, #3180]	; 102c8 <main+0x4d94>
    f658:	ebffe9fa 	bl	9e48 <get_cgi>
    f65c:	e1a01000 	mov	r1, r0
    f660:	e59f0c64 	ldr	r0, [pc, #3172]	; 102cc <main+0x4d98>
    f664:	ebffe82d 	bl	9720 <sncfg_set@plt>
    f668:	e59f0c60 	ldr	r0, [pc, #3168]	; 102d0 <main+0x4d9c>
    f66c:	ebffe9f5 	bl	9e48 <get_cgi>
    f670:	e1a01000 	mov	r1, r0
    f674:	e59f0c58 	ldr	r0, [pc, #3160]	; 102d4 <main+0x4da0>
    f678:	ebffe828 	bl	9720 <sncfg_set@plt>
    f67c:	e59f0c54 	ldr	r0, [pc, #3156]	; 102d8 <main+0x4da4>
    f680:	ebffe9f0 	bl	9e48 <get_cgi>
    f684:	e1a01000 	mov	r1, r0
    f688:	e59f0c48 	ldr	r0, [pc, #3144]	; 102d8 <main+0x4da4>
    f68c:	ebffe823 	bl	9720 <sncfg_set@plt>
    f690:	ebffe837 	bl	9774 <sncfg_commit@plt>
    f694:	e59f0b30 	ldr	r0, [pc, #2864]	; 101cc <main+0x4c98>
    f698:	ebffe7ed 	bl	9654 <puts@plt>
    f69c:	e59f0b2c 	ldr	r0, [pc, #2860]	; 101d0 <main+0x4c9c>
    f6a0:	ebffe7b2 	bl	9570 <printf@plt>
    f6a4:	e59f0c30 	ldr	r0, [pc, #3120]	; 102dc <main+0x4da8>
    f6a8:	ebffe7b0 	bl	9570 <printf@plt>
    f6ac:	e59f0b24 	ldr	r0, [pc, #2852]	; 101d8 <main+0x4ca4>
    f6b0:	ebffe7ae 	bl	9570 <printf@plt>
    f6b4:	ea000c85 	b	128d0 <main+0x739c>
    f6b8:	e1a00005 	mov	r0, r5
    f6bc:	e59f1c1c 	ldr	r1, [pc, #3100]	; 102e0 <main+0x4dac>
    f6c0:	ebffe891 	bl	990c <strcmp@plt>
    f6c4:	e3500000 	cmp	r0, #0
    f6c8:	1a00004a 	bne	f7f8 <main+0x42c4>
    f6cc:	e1a01007 	mov	r1, r7
    f6d0:	e59f0c0c 	ldr	r0, [pc, #3084]	; 102e4 <main+0x4db0>
    f6d4:	ebffea5c 	bl	a04c <init_obj>
    f6d8:	e59f0c08 	ldr	r0, [pc, #3080]	; 102e8 <main+0x4db4>
    f6dc:	ebffef87 	bl	b500 <get_checkbox>
    f6e0:	e1a01000 	mov	r1, r0
    f6e4:	e59f0bfc 	ldr	r0, [pc, #3068]	; 102e8 <main+0x4db4>
    f6e8:	ebffedad 	bl	ada4 <Sncfg_set>
    f6ec:	e59f0bf8 	ldr	r0, [pc, #3064]	; 102ec <main+0x4db8>
    f6f0:	ebffe9d4 	bl	9e48 <get_cgi>
    f6f4:	e1a01000 	mov	r1, r0
    f6f8:	e59f0bec 	ldr	r0, [pc, #3052]	; 102ec <main+0x4db8>
    f6fc:	ebffeda8 	bl	ada4 <Sncfg_set>
    f700:	e59f0be8 	ldr	r0, [pc, #3048]	; 102f0 <main+0x4dbc>
    f704:	ebffe9cf 	bl	9e48 <get_cgi>
    f708:	e1a01000 	mov	r1, r0
    f70c:	e59f0bdc 	ldr	r0, [pc, #3036]	; 102f0 <main+0x4dbc>
    f710:	ebffeda3 	bl	ada4 <Sncfg_set>
    f714:	e59f0bd8 	ldr	r0, [pc, #3032]	; 102f4 <main+0x4dc0>
    f718:	ebffe9ca 	bl	9e48 <get_cgi>
    f71c:	e1a01000 	mov	r1, r0
    f720:	e59f0bcc 	ldr	r0, [pc, #3020]	; 102f4 <main+0x4dc0>
    f724:	ebffed9e 	bl	ada4 <Sncfg_set>
    f728:	e59f0bc8 	ldr	r0, [pc, #3016]	; 102f8 <main+0x4dc4>
    f72c:	ebffe9c5 	bl	9e48 <get_cgi>
    f730:	e1a01000 	mov	r1, r0
    f734:	e59f0bbc 	ldr	r0, [pc, #3004]	; 102f8 <main+0x4dc4>
    f738:	ebffed99 	bl	ada4 <Sncfg_set>
    f73c:	e59f0bb8 	ldr	r0, [pc, #3000]	; 102fc <main+0x4dc8>
    f740:	ebffe9c0 	bl	9e48 <get_cgi>
    f744:	e1a01000 	mov	r1, r0
    f748:	e59f0bac 	ldr	r0, [pc, #2988]	; 102fc <main+0x4dc8>
    f74c:	ebffed94 	bl	ada4 <Sncfg_set>
    f750:	e59f0ba8 	ldr	r0, [pc, #2984]	; 10300 <main+0x4dcc>
    f754:	ebffe9bb 	bl	9e48 <get_cgi>
    f758:	e1a01000 	mov	r1, r0
    f75c:	e59f0b9c 	ldr	r0, [pc, #2972]	; 10300 <main+0x4dcc>
    f760:	ebffed8f 	bl	ada4 <Sncfg_set>
    f764:	e59f0b98 	ldr	r0, [pc, #2968]	; 10304 <main+0x4dd0>
    f768:	ebffe9b6 	bl	9e48 <get_cgi>
    f76c:	e1a01000 	mov	r1, r0
    f770:	e59f0b8c 	ldr	r0, [pc, #2956]	; 10304 <main+0x4dd0>
    f774:	ebffed8a 	bl	ada4 <Sncfg_set>
    f778:	e59f0b88 	ldr	r0, [pc, #2952]	; 10308 <main+0x4dd4>
    f77c:	ebffe9b1 	bl	9e48 <get_cgi>
    f780:	e1a01000 	mov	r1, r0
    f784:	e59f0b7c 	ldr	r0, [pc, #2940]	; 10308 <main+0x4dd4>
    f788:	ebffed85 	bl	ada4 <Sncfg_set>
    f78c:	e59f0b78 	ldr	r0, [pc, #2936]	; 1030c <main+0x4dd8>
    f790:	ebffe9ac 	bl	9e48 <get_cgi>
    f794:	e1a01000 	mov	r1, r0
    f798:	e59f0b6c 	ldr	r0, [pc, #2924]	; 1030c <main+0x4dd8>
    f79c:	ebffed80 	bl	ada4 <Sncfg_set>
    f7a0:	e59f0ac4 	ldr	r0, [pc, #2756]	; 1026c <main+0x4d38>
    f7a4:	ebffe9a7 	bl	9e48 <get_cgi>
    f7a8:	e1a01000 	mov	r1, r0
    f7ac:	e59f0ab8 	ldr	r0, [pc, #2744]	; 1026c <main+0x4d38>
    f7b0:	ebffed7b 	bl	ada4 <Sncfg_set>
    f7b4:	e59f0b54 	ldr	r0, [pc, #2900]	; 10310 <main+0x4ddc>
    f7b8:	ebffe9a2 	bl	9e48 <get_cgi>
    f7bc:	e1a01000 	mov	r1, r0
    f7c0:	e59f0b48 	ldr	r0, [pc, #2888]	; 10310 <main+0x4ddc>
    f7c4:	ebffed76 	bl	ada4 <Sncfg_set>
    f7c8:	ebffe7e9 	bl	9774 <sncfg_commit@plt>
    f7cc:	e59f0b40 	ldr	r0, [pc, #2880]	; 10314 <main+0x4de0>
    f7d0:	ebffe7a2 	bl	9660 <system@plt>
    f7d4:	e59f09f0 	ldr	r0, [pc, #2544]	; 101cc <main+0x4c98>
    f7d8:	ebffe79d 	bl	9654 <puts@plt>
    f7dc:	e59f09ec 	ldr	r0, [pc, #2540]	; 101d0 <main+0x4c9c>
    f7e0:	ebffe762 	bl	9570 <printf@plt>
    f7e4:	e59f0b2c 	ldr	r0, [pc, #2860]	; 10318 <main+0x4de4>
    f7e8:	ebffe760 	bl	9570 <printf@plt>
    f7ec:	e59f09e4 	ldr	r0, [pc, #2532]	; 101d8 <main+0x4ca4>
    f7f0:	ebffe75e 	bl	9570 <printf@plt>
    f7f4:	ea000c35 	b	128d0 <main+0x739c>
    f7f8:	e1a00005 	mov	r0, r5
    f7fc:	e59f1b18 	ldr	r1, [pc, #2840]	; 1031c <main+0x4de8>
    f800:	ebffe841 	bl	990c <strcmp@plt>
    f804:	e3500000 	cmp	r0, #0
    f808:	1a00004d 	bne	f944 <main+0x4410>
    f80c:	e1a01007 	mov	r1, r7
    f810:	e59f0b08 	ldr	r0, [pc, #2824]	; 10320 <main+0x4dec>
    f814:	ebffea0c 	bl	a04c <init_obj>
    f818:	e59f0b04 	ldr	r0, [pc, #2820]	; 10324 <main+0x4df0>
    f81c:	ebffe989 	bl	9e48 <get_cgi>
    f820:	e1a01000 	mov	r1, r0
    f824:	e59f0afc 	ldr	r0, [pc, #2812]	; 10328 <main+0x4df4>
    f828:	ebffe7bc 	bl	9720 <sncfg_set@plt>
    f82c:	e59f0af8 	ldr	r0, [pc, #2808]	; 1032c <main+0x4df8>
    f830:	ebffe984 	bl	9e48 <get_cgi>
    f834:	e1a01000 	mov	r1, r0
    f838:	e59f0af0 	ldr	r0, [pc, #2800]	; 10330 <main+0x4dfc>
    f83c:	ebffe7b7 	bl	9720 <sncfg_set@plt>
    f840:	e59f0aec 	ldr	r0, [pc, #2796]	; 10334 <main+0x4e00>
    f844:	ebffe97f 	bl	9e48 <get_cgi>
    f848:	e1a01000 	mov	r1, r0
    f84c:	e59f0ae4 	ldr	r0, [pc, #2788]	; 10338 <main+0x4e04>
    f850:	ebffe7b2 	bl	9720 <sncfg_set@plt>
    f854:	e59f0ae0 	ldr	r0, [pc, #2784]	; 1033c <main+0x4e08>
    f858:	ebffe97a 	bl	9e48 <get_cgi>
    f85c:	e1a01000 	mov	r1, r0
    f860:	e59f0ad8 	ldr	r0, [pc, #2776]	; 10340 <main+0x4e0c>
    f864:	ebffe7ad 	bl	9720 <sncfg_set@plt>
    f868:	e59f0ad4 	ldr	r0, [pc, #2772]	; 10344 <main+0x4e10>
    f86c:	ebffe975 	bl	9e48 <get_cgi>
    f870:	e1a01000 	mov	r1, r0
    f874:	e59f0acc 	ldr	r0, [pc, #2764]	; 10348 <main+0x4e14>
    f878:	ebffe7a8 	bl	9720 <sncfg_set@plt>
    f87c:	e59f0ac8 	ldr	r0, [pc, #2760]	; 1034c <main+0x4e18>
    f880:	ebffe970 	bl	9e48 <get_cgi>
    f884:	e1a01000 	mov	r1, r0
    f888:	e59f0ac0 	ldr	r0, [pc, #2752]	; 10350 <main+0x4e1c>
    f88c:	ebffe7a3 	bl	9720 <sncfg_set@plt>
    f890:	e59f0abc 	ldr	r0, [pc, #2748]	; 10354 <main+0x4e20>
    f894:	ebffe96b 	bl	9e48 <get_cgi>
    f898:	e1a01000 	mov	r1, r0
    f89c:	e59f0ab4 	ldr	r0, [pc, #2740]	; 10358 <main+0x4e24>
    f8a0:	ebffe79e 	bl	9720 <sncfg_set@plt>
    f8a4:	e59f0ab0 	ldr	r0, [pc, #2736]	; 1035c <main+0x4e28>
    f8a8:	ebffe966 	bl	9e48 <get_cgi>
    f8ac:	e1a01000 	mov	r1, r0
    f8b0:	e59f0aa8 	ldr	r0, [pc, #2728]	; 10360 <main+0x4e2c>
    f8b4:	ebffe799 	bl	9720 <sncfg_set@plt>
    f8b8:	e59f0aa4 	ldr	r0, [pc, #2724]	; 10364 <main+0x4e30>
    f8bc:	ebffe961 	bl	9e48 <get_cgi>
    f8c0:	e1a01000 	mov	r1, r0
    f8c4:	e59f0a9c 	ldr	r0, [pc, #2716]	; 10368 <main+0x4e34>
    f8c8:	ebffe794 	bl	9720 <sncfg_set@plt>
    f8cc:	e59f0a98 	ldr	r0, [pc, #2712]	; 1036c <main+0x4e38>
    f8d0:	ebffe95c 	bl	9e48 <get_cgi>
    f8d4:	e1a01000 	mov	r1, r0
    f8d8:	e59f0a90 	ldr	r0, [pc, #2704]	; 10370 <main+0x4e3c>
    f8dc:	ebffe78f 	bl	9720 <sncfg_set@plt>
    f8e0:	e59f0a8c 	ldr	r0, [pc, #2700]	; 10374 <main+0x4e40>
    f8e4:	ebffe957 	bl	9e48 <get_cgi>
    f8e8:	e1a01000 	mov	r1, r0
    f8ec:	e59f0a84 	ldr	r0, [pc, #2692]	; 10378 <main+0x4e44>
    f8f0:	ebffe78a 	bl	9720 <sncfg_set@plt>
    f8f4:	e59f0a80 	ldr	r0, [pc, #2688]	; 1037c <main+0x4e48>
    f8f8:	ebffe952 	bl	9e48 <get_cgi>
    f8fc:	e1a01000 	mov	r1, r0
    f900:	e59f0a78 	ldr	r0, [pc, #2680]	; 10380 <main+0x4e4c>
    f904:	ebffe785 	bl	9720 <sncfg_set@plt>
    f908:	e59f0a74 	ldr	r0, [pc, #2676]	; 10384 <main+0x4e50>
    f90c:	ebffe94d 	bl	9e48 <get_cgi>
    f910:	e1a01000 	mov	r1, r0
    f914:	e59f0a68 	ldr	r0, [pc, #2664]	; 10384 <main+0x4e50>
    f918:	ebffe780 	bl	9720 <sncfg_set@plt>
    f91c:	ebffe794 	bl	9774 <sncfg_commit@plt>
    f920:	e59f08a4 	ldr	r0, [pc, #2212]	; 101cc <main+0x4c98>
    f924:	ebffe74a 	bl	9654 <puts@plt>
    f928:	e59f08a0 	ldr	r0, [pc, #2208]	; 101d0 <main+0x4c9c>
    f92c:	ebffe70f 	bl	9570 <printf@plt>
    f930:	e59f0a50 	ldr	r0, [pc, #2640]	; 10388 <main+0x4e54>
    f934:	ebffe70d 	bl	9570 <printf@plt>
    f938:	e59f0898 	ldr	r0, [pc, #2200]	; 101d8 <main+0x4ca4>
    f93c:	ebffe70b 	bl	9570 <printf@plt>
    f940:	ea000be2 	b	128d0 <main+0x739c>
    f944:	e1a00005 	mov	r0, r5
    f948:	e59f1a3c 	ldr	r1, [pc, #2620]	; 1038c <main+0x4e58>
    f94c:	ebffe7ee 	bl	990c <strcmp@plt>
    f950:	e3500000 	cmp	r0, #0
    f954:	1a00009a 	bne	fbc4 <main+0x4690>
    f958:	e1a01007 	mov	r1, r7
    f95c:	e59f0a2c 	ldr	r0, [pc, #2604]	; 10390 <main+0x4e5c>
    f960:	ebffe9b9 	bl	a04c <init_obj>
    f964:	e59f0a28 	ldr	r0, [pc, #2600]	; 10394 <main+0x4e60>
    f968:	ebffe936 	bl	9e48 <get_cgi>
    f96c:	ebffe80a 	bl	999c <atoi@plt>
    f970:	e1a07000 	mov	r7, r0
    f974:	e59f0a1c 	ldr	r0, [pc, #2588]	; 10398 <main+0x4e64>
    f978:	ebffe932 	bl	9e48 <get_cgi>
    f97c:	e59f1a18 	ldr	r1, [pc, #2584]	; 1039c <main+0x4e68>
    f980:	ebffe7e1 	bl	990c <strcmp@plt>
    f984:	e3500000 	cmp	r0, #0
    f988:	1a00005d 	bne	fb04 <main+0x45d0>
    f98c:	e59f0a0c 	ldr	r0, [pc, #2572]	; 103a0 <main+0x4e6c>
    f990:	ebffe92c 	bl	9e48 <get_cgi>
    f994:	ebffe800 	bl	999c <atoi@plt>
    f998:	e1a04007 	mov	r4, r7
    f99c:	e1a0b000 	mov	fp, r0
    f9a0:	e154000b 	cmp	r4, fp
    f9a4:	ca00007a 	bgt	fb94 <main+0x4660>
    f9a8:	e28d6c5f 	add	r6, sp, #24320	; 0x5f00
    f9ac:	e28d3c5e 	add	r3, sp, #24064	; 0x5e00
    f9b0:	e28d1e12 	add	r1, sp, #288	; 0x120
    f9b4:	e2866060 	add	r6, r6, #96	; 0x60
    f9b8:	e28d2e12 	add	r2, sp, #288	; 0x120
    f9bc:	e28d7c5f 	add	r7, sp, #24320	; 0x5f00
    f9c0:	e2411084 	sub	r1, r1, #132	; 0x84
    f9c4:	e2466010 	sub	r6, r6, #16
    f9c8:	e2422088 	sub	r2, r2, #136	; 0x88
    f9cc:	e28330e0 	add	r3, r3, #224	; 0xe0
    f9d0:	e28dee12 	add	lr, sp, #288	; 0x120
    f9d4:	e2877060 	add	r7, r7, #96	; 0x60
    f9d8:	e28d8c5f 	add	r8, sp, #24320	; 0x5f00
    f9dc:	e2433030 	sub	r3, r3, #48	; 0x30
    f9e0:	e24ee080 	sub	lr, lr, #128	; 0x80
    f9e4:	e58d1018 	str	r1, [sp, #24]
    f9e8:	e58d2014 	str	r2, [sp, #20]
    f9ec:	e59f19b0 	ldr	r1, [pc, #2480]	; 103a4 <main+0x4e70>
    f9f0:	e1a02004 	mov	r2, r4
    f9f4:	e2477030 	sub	r7, r7, #48	; 0x30
    f9f8:	e1a00006 	mov	r0, r6
    f9fc:	e2888020 	add	r8, r8, #32
    fa00:	e58d3020 	str	r3, [sp, #32]
    fa04:	e58de01c 	str	lr, [sp, #28]
    fa08:	e2488010 	sub	r8, r8, #16
    fa0c:	ebffe7c4 	bl	9924 <sprintf@plt>
    fa10:	e1a02004 	mov	r2, r4
    fa14:	e59f198c 	ldr	r1, [pc, #2444]	; 103a8 <main+0x4e74>
    fa18:	e1a00007 	mov	r0, r7
    fa1c:	ebffe7c0 	bl	9924 <sprintf@plt>
    fa20:	e28dac5f 	add	sl, sp, #24320	; 0x5f00
    fa24:	e1a02004 	mov	r2, r4
    fa28:	e59f197c 	ldr	r1, [pc, #2428]	; 103ac <main+0x4e78>
    fa2c:	e28d9c5e 	add	r9, sp, #24064	; 0x5e00
    fa30:	e1a00008 	mov	r0, r8
    fa34:	ebffe7ba 	bl	9924 <sprintf@plt>
    fa38:	e28aa020 	add	sl, sl, #32
    fa3c:	e2845001 	add	r5, r4, #1
    fa40:	e28990e0 	add	r9, r9, #224	; 0xe0
    fa44:	e154000b 	cmp	r4, fp
    fa48:	e24aa030 	sub	sl, sl, #48	; 0x30
    fa4c:	e2499010 	sub	r9, r9, #16
    fa50:	e1a00006 	mov	r0, r6
    fa54:	e59f1954 	ldr	r1, [pc, #2388]	; 103b0 <main+0x4e7c>
    fa58:	e1a02005 	mov	r2, r5
    fa5c:	1a000006 	bne	fa7c <main+0x4548>
    fa60:	ebffe72e 	bl	9720 <sncfg_set@plt>
    fa64:	e59f1944 	ldr	r1, [pc, #2372]	; 103b0 <main+0x4e7c>
    fa68:	e1a00007 	mov	r0, r7
    fa6c:	ebffe72b 	bl	9720 <sncfg_set@plt>
    fa70:	e59f193c 	ldr	r1, [pc, #2364]	; 103b4 <main+0x4e80>
    fa74:	e1a00008 	mov	r0, r8
    fa78:	ea00001e 	b	faf8 <main+0x45c4>
    fa7c:	e59f1920 	ldr	r1, [pc, #2336]	; 103a4 <main+0x4e70>
    fa80:	e1a0000a 	mov	r0, sl
    fa84:	ebffe7a6 	bl	9924 <sprintf@plt>
    fa88:	e1a02005 	mov	r2, r5
    fa8c:	e59f1914 	ldr	r1, [pc, #2324]	; 103a8 <main+0x4e74>
    fa90:	e1a00009 	mov	r0, r9
    fa94:	ebffe7a2 	bl	9924 <sprintf@plt>
    fa98:	e1a02005 	mov	r2, r5
    fa9c:	e59f1908 	ldr	r1, [pc, #2312]	; 103ac <main+0x4e78>
    faa0:	e59d0020 	ldr	r0, [sp, #32]
    faa4:	ebffe79e 	bl	9924 <sprintf@plt>
    faa8:	e59d101c 	ldr	r1, [sp, #28]
    faac:	e1a0000a 	mov	r0, sl
    fab0:	ebffe6d2 	bl	9600 <sncfg_get@plt>
    fab4:	e59d1018 	ldr	r1, [sp, #24]
    fab8:	e1a00009 	mov	r0, r9
    fabc:	ebffe6cf 	bl	9600 <sncfg_get@plt>
    fac0:	e59d1014 	ldr	r1, [sp, #20]
    fac4:	e59d0020 	ldr	r0, [sp, #32]
    fac8:	ebffe6cc 	bl	9600 <sncfg_get@plt>
    facc:	e59d301c 	ldr	r3, [sp, #28]
    fad0:	e1a00006 	mov	r0, r6
    fad4:	e5931000 	ldr	r1, [r3]
    fad8:	ebffe710 	bl	9720 <sncfg_set@plt>
    fadc:	e59d5018 	ldr	r5, [sp, #24]
    fae0:	e1a00007 	mov	r0, r7
    fae4:	e5951000 	ldr	r1, [r5]
    fae8:	ebffe70c 	bl	9720 <sncfg_set@plt>
    faec:	e59de014 	ldr	lr, [sp, #20]
    faf0:	e59e1000 	ldr	r1, [lr]
    faf4:	e1a00008 	mov	r0, r8
    faf8:	ebffe708 	bl	9720 <sncfg_set@plt>
    fafc:	e2844001 	add	r4, r4, #1
    fb00:	eaffffa6 	b	f9a0 <main+0x446c>
    fb04:	e28d4c5f 	add	r4, sp, #24320	; 0x5f00
    fb08:	e2844060 	add	r4, r4, #96	; 0x60
    fb0c:	e28d5c5f 	add	r5, sp, #24320	; 0x5f00
    fb10:	e2444010 	sub	r4, r4, #16
    fb14:	e2855060 	add	r5, r5, #96	; 0x60
    fb18:	e28d6c5f 	add	r6, sp, #24320	; 0x5f00
    fb1c:	e2455030 	sub	r5, r5, #48	; 0x30
    fb20:	e59f187c 	ldr	r1, [pc, #2172]	; 103a4 <main+0x4e70>
    fb24:	e1a02007 	mov	r2, r7
    fb28:	e1a00004 	mov	r0, r4
    fb2c:	e2866020 	add	r6, r6, #32
    fb30:	ebffe77b 	bl	9924 <sprintf@plt>
    fb34:	e2466010 	sub	r6, r6, #16
    fb38:	e59f1868 	ldr	r1, [pc, #2152]	; 103a8 <main+0x4e74>
    fb3c:	e1a02007 	mov	r2, r7
    fb40:	e1a00005 	mov	r0, r5
    fb44:	ebffe776 	bl	9924 <sprintf@plt>
    fb48:	e1a02007 	mov	r2, r7
    fb4c:	e59f1858 	ldr	r1, [pc, #2136]	; 103ac <main+0x4e78>
    fb50:	e1a00006 	mov	r0, r6
    fb54:	ebffe772 	bl	9924 <sprintf@plt>
    fb58:	e59f0858 	ldr	r0, [pc, #2136]	; 103b8 <main+0x4e84>
    fb5c:	ebffe8b9 	bl	9e48 <get_cgi>
    fb60:	e1a01000 	mov	r1, r0
    fb64:	e1a00004 	mov	r0, r4
    fb68:	ebffe6ec 	bl	9720 <sncfg_set@plt>
    fb6c:	e59f0848 	ldr	r0, [pc, #2120]	; 103bc <main+0x4e88>
    fb70:	ebffe8b4 	bl	9e48 <get_cgi>
    fb74:	e1a01000 	mov	r1, r0
    fb78:	e1a00005 	mov	r0, r5
    fb7c:	ebffe6e7 	bl	9720 <sncfg_set@plt>
    fb80:	e59f0838 	ldr	r0, [pc, #2104]	; 103c0 <main+0x4e8c>
    fb84:	ebffe8af 	bl	9e48 <get_cgi>
    fb88:	e1a01000 	mov	r1, r0
    fb8c:	e1a00006 	mov	r0, r6
    fb90:	ebffe6e2 	bl	9720 <sncfg_set@plt>
    fb94:	ebffe6f6 	bl	9774 <sncfg_commit@plt>
    fb98:	e59f0824 	ldr	r0, [pc, #2084]	; 103c4 <main+0x4e90>
    fb9c:	ebffe6af 	bl	9660 <system@plt>
    fba0:	e59f0624 	ldr	r0, [pc, #1572]	; 101cc <main+0x4c98>
    fba4:	ebffe6aa 	bl	9654 <puts@plt>
    fba8:	e59f0620 	ldr	r0, [pc, #1568]	; 101d0 <main+0x4c9c>
    fbac:	ebffe66f 	bl	9570 <printf@plt>
    fbb0:	e59f0810 	ldr	r0, [pc, #2064]	; 103c8 <main+0x4e94>
    fbb4:	ebffe66d 	bl	9570 <printf@plt>
    fbb8:	e59f0618 	ldr	r0, [pc, #1560]	; 101d8 <main+0x4ca4>
    fbbc:	ebffe66b 	bl	9570 <printf@plt>
    fbc0:	ea000b42 	b	128d0 <main+0x739c>
    fbc4:	e1a00005 	mov	r0, r5
    fbc8:	e59f17fc 	ldr	r1, [pc, #2044]	; 103cc <main+0x4e98>
    fbcc:	ebffe74e 	bl	990c <strcmp@plt>
    fbd0:	e3500000 	cmp	r0, #0
    fbd4:	1a000027 	bne	fc78 <main+0x4744>
    fbd8:	e59f07f0 	ldr	r0, [pc, #2032]	; 103d0 <main+0x4e9c>
    fbdc:	ebffe899 	bl	9e48 <get_cgi>
    fbe0:	e1a01000 	mov	r1, r0
    fbe4:	e59f07e4 	ldr	r0, [pc, #2020]	; 103d0 <main+0x4e9c>
    fbe8:	ebffe6cc 	bl	9720 <sncfg_set@plt>
    fbec:	e59f07e0 	ldr	r0, [pc, #2016]	; 103d4 <main+0x4ea0>
    fbf0:	ebffe894 	bl	9e48 <get_cgi>
    fbf4:	e1a01000 	mov	r1, r0
    fbf8:	e59f07d4 	ldr	r0, [pc, #2004]	; 103d4 <main+0x4ea0>
    fbfc:	ebffe6c7 	bl	9720 <sncfg_set@plt>
    fc00:	e59f07d0 	ldr	r0, [pc, #2000]	; 103d8 <main+0x4ea4>
    fc04:	ebffe88f 	bl	9e48 <get_cgi>
    fc08:	e1a01000 	mov	r1, r0
    fc0c:	e59f07c4 	ldr	r0, [pc, #1988]	; 103d8 <main+0x4ea4>
    fc10:	ebffe6c2 	bl	9720 <sncfg_set@plt>
    fc14:	e59f07c0 	ldr	r0, [pc, #1984]	; 103dc <main+0x4ea8>
    fc18:	ebffe88a 	bl	9e48 <get_cgi>
    fc1c:	e1a01000 	mov	r1, r0
    fc20:	e59f07b4 	ldr	r0, [pc, #1972]	; 103dc <main+0x4ea8>
    fc24:	ebffe6bd 	bl	9720 <sncfg_set@plt>
    fc28:	e59f07b0 	ldr	r0, [pc, #1968]	; 103e0 <main+0x4eac>
    fc2c:	ebffe885 	bl	9e48 <get_cgi>
    fc30:	e1a01000 	mov	r1, r0
    fc34:	e59f07a4 	ldr	r0, [pc, #1956]	; 103e0 <main+0x4eac>
    fc38:	ebffe6b8 	bl	9720 <sncfg_set@plt>
    fc3c:	e59f07a0 	ldr	r0, [pc, #1952]	; 103e4 <main+0x4eb0>
    fc40:	ebffe880 	bl	9e48 <get_cgi>
    fc44:	e1a01000 	mov	r1, r0
    fc48:	e59f0794 	ldr	r0, [pc, #1940]	; 103e4 <main+0x4eb0>
    fc4c:	ebffe6b3 	bl	9720 <sncfg_set@plt>
    fc50:	ebffe6c7 	bl	9774 <sncfg_commit@plt>
    fc54:	e59f0570 	ldr	r0, [pc, #1392]	; 101cc <main+0x4c98>
    fc58:	ebffe67d 	bl	9654 <puts@plt>
    fc5c:	e59f056c 	ldr	r0, [pc, #1388]	; 101d0 <main+0x4c9c>
    fc60:	ebffe642 	bl	9570 <printf@plt>
    fc64:	e59f077c 	ldr	r0, [pc, #1916]	; 103e8 <main+0x4eb4>
    fc68:	ebffe640 	bl	9570 <printf@plt>
    fc6c:	e59f0564 	ldr	r0, [pc, #1380]	; 101d8 <main+0x4ca4>
    fc70:	ebffe63e 	bl	9570 <printf@plt>
    fc74:	ea000b10 	b	128bc <main+0x7388>
    fc78:	e1a00005 	mov	r0, r5
    fc7c:	e59f1768 	ldr	r1, [pc, #1896]	; 103ec <main+0x4eb8>
    fc80:	ebffe721 	bl	990c <strcmp@plt>
    fc84:	e3500000 	cmp	r0, #0
    fc88:	1a00001f 	bne	fd0c <main+0x47d8>
    fc8c:	e59f075c 	ldr	r0, [pc, #1884]	; 103f0 <main+0x4ebc>
    fc90:	ebffe672 	bl	9660 <system@plt>
    fc94:	e28d4c5d 	add	r4, sp, #23808	; 0x5d00
    fc98:	e59f0754 	ldr	r0, [pc, #1876]	; 103f4 <main+0x4ec0>
    fc9c:	ebffe66f 	bl	9660 <system@plt>
    fca0:	e28d5c71 	add	r5, sp, #28928	; 0x7100
    fca4:	e28440e0 	add	r4, r4, #224	; 0xe0
    fca8:	e59f0748 	ldr	r0, [pc, #1864]	; 103f8 <main+0x4ec4>
    fcac:	ebffe66b 	bl	9660 <system@plt>
    fcb0:	e2444030 	sub	r4, r4, #48	; 0x30
    fcb4:	e2855020 	add	r5, r5, #32
    fcb8:	e59f073c 	ldr	r0, [pc, #1852]	; 103fc <main+0x4ec8>
    fcbc:	ebffe667 	bl	9660 <system@plt>
    fcc0:	e245503c 	sub	r5, r5, #60	; 0x3c
    fcc4:	e5981000 	ldr	r1, [r8]
    fcc8:	e1a00004 	mov	r0, r4
    fccc:	ebffebbb 	bl	abc0 <upload_bin>
    fcd0:	e1a02004 	mov	r2, r4
    fcd4:	e59f1724 	ldr	r1, [pc, #1828]	; 10400 <main+0x4ecc>
    fcd8:	e1a00005 	mov	r0, r5
    fcdc:	ebffe710 	bl	9924 <sprintf@plt>
    fce0:	e1a00005 	mov	r0, r5
    fce4:	ebffe65d 	bl	9660 <system@plt>
    fce8:	e59f04dc 	ldr	r0, [pc, #1244]	; 101cc <main+0x4c98>
    fcec:	ebffe658 	bl	9654 <puts@plt>
    fcf0:	e59f04d8 	ldr	r0, [pc, #1240]	; 101d0 <main+0x4c9c>
    fcf4:	ebffe61d 	bl	9570 <printf@plt>
    fcf8:	e59f0704 	ldr	r0, [pc, #1796]	; 10404 <main+0x4ed0>
    fcfc:	ebffe61b 	bl	9570 <printf@plt>
    fd00:	e59f04d0 	ldr	r0, [pc, #1232]	; 101d8 <main+0x4ca4>
    fd04:	ebffe619 	bl	9570 <printf@plt>
    fd08:	ea000af0 	b	128d0 <main+0x739c>
    fd0c:	e1a00005 	mov	r0, r5
    fd10:	e59f16f0 	ldr	r1, [pc, #1776]	; 10408 <main+0x4ed4>
    fd14:	ebffe6fc 	bl	990c <strcmp@plt>
    fd18:	e3500000 	cmp	r0, #0
    fd1c:	1a00000c 	bne	fd54 <main+0x4820>
    fd20:	e28d4c59 	add	r4, sp, #22784	; 0x5900
    fd24:	e28440e0 	add	r4, r4, #224	; 0xe0
    fd28:	e2444030 	sub	r4, r4, #48	; 0x30
    fd2c:	e59f16d8 	ldr	r1, [pc, #1752]	; 1040c <main+0x4ed8>
    fd30:	e3a02059 	mov	r2, #89	; 0x59
    fd34:	e1a00004 	mov	r0, r4
    fd38:	ebffe63f 	bl	963c <memcpy@plt>
    fd3c:	e1a00004 	mov	r0, r4
    fd40:	ebffe646 	bl	9660 <system@plt>
    fd44:	ebffe603 	bl	9558 <wmxapi_disconnect@plt>
    fd48:	e59f047c 	ldr	r0, [pc, #1148]	; 101cc <main+0x4c98>
    fd4c:	ebffe640 	bl	9654 <puts@plt>
    fd50:	ea000ade 	b	128d0 <main+0x739c>
    fd54:	e1a00005 	mov	r0, r5
    fd58:	e59f16b0 	ldr	r1, [pc, #1712]	; 10410 <main+0x4edc>
    fd5c:	ebffe6ea 	bl	990c <strcmp@plt>
    fd60:	e3500000 	cmp	r0, #0
    fd64:	1a000014 	bne	fdbc <main+0x4888>
    fd68:	e59f06a4 	ldr	r0, [pc, #1700]	; 10414 <main+0x4ee0>
    fd6c:	ebffe835 	bl	9e48 <get_cgi>
    fd70:	e1a01000 	mov	r1, r0
    fd74:	e59f069c 	ldr	r0, [pc, #1692]	; 10418 <main+0x4ee4>
    fd78:	ebffe668 	bl	9720 <sncfg_set@plt>
    fd7c:	ebffe67c 	bl	9774 <sncfg_commit@plt>
    fd80:	e59f068c 	ldr	r0, [pc, #1676]	; 10414 <main+0x4ee0>
    fd84:	ebffe82f 	bl	9e48 <get_cgi>
    fd88:	e28d4c55 	add	r4, sp, #21760	; 0x5500
    fd8c:	e28440e0 	add	r4, r4, #224	; 0xe0
    fd90:	e2444030 	sub	r4, r4, #48	; 0x30
    fd94:	e1a02000 	mov	r2, r0
    fd98:	e59f167c 	ldr	r1, [pc, #1660]	; 1041c <main+0x4ee8>
    fd9c:	e1a00004 	mov	r0, r4
    fda0:	ebffe6df 	bl	9924 <sprintf@plt>
    fda4:	e1a00004 	mov	r0, r4
    fda8:	ebffe62c 	bl	9660 <system@plt>
    fdac:	ebffe5e9 	bl	9558 <wmxapi_disconnect@plt>
    fdb0:	e59f0414 	ldr	r0, [pc, #1044]	; 101cc <main+0x4c98>
    fdb4:	ebffe626 	bl	9654 <puts@plt>
    fdb8:	ea000ac4 	b	128d0 <main+0x739c>
    fdbc:	e1a00005 	mov	r0, r5
    fdc0:	e59f1658 	ldr	r1, [pc, #1624]	; 10420 <main+0x4eec>
    fdc4:	ebffe6d0 	bl	990c <strcmp@plt>
    fdc8:	e3500000 	cmp	r0, #0
    fdcc:	1a000004 	bne	fde4 <main+0x48b0>
    fdd0:	e59f064c 	ldr	r0, [pc, #1612]	; 10424 <main+0x4ef0>
    fdd4:	ebffe621 	bl	9660 <system@plt>
    fdd8:	e59f0648 	ldr	r0, [pc, #1608]	; 10428 <main+0x4ef4>
    fddc:	ebffe61f 	bl	9660 <system@plt>
    fde0:	ea000aba 	b	128d0 <main+0x739c>
    fde4:	e1a00005 	mov	r0, r5
    fde8:	e59f163c 	ldr	r1, [pc, #1596]	; 1042c <main+0x4ef8>
    fdec:	ebffe6c6 	bl	990c <strcmp@plt>
    fdf0:	e3500000 	cmp	r0, #0
    fdf4:	1a00001a 	bne	fe64 <main+0x4930>
    fdf8:	e59f0630 	ldr	r0, [pc, #1584]	; 10430 <main+0x4efc>
    fdfc:	ebffe617 	bl	9660 <system@plt>
    fe00:	e59f062c 	ldr	r0, [pc, #1580]	; 10434 <main+0x4f00>
    fe04:	ebffe615 	bl	9660 <system@plt>
    fe08:	e59f03bc 	ldr	r0, [pc, #956]	; 101cc <main+0x4c98>
    fe0c:	ebffe610 	bl	9654 <puts@plt>
    fe10:	e59f0620 	ldr	r0, [pc, #1568]	; 10438 <main+0x4f04>
    fe14:	e59f185c 	ldr	r1, [pc, #2140]	; 10678 <main+0x5144>
    fe18:	ebffe6a3 	bl	98ac <fopen@plt>
    fe1c:	e2504000 	subs	r4, r0, #0
    fe20:	1a000002 	bne	fe30 <main+0x48fc>
    fe24:	e59f07e8 	ldr	r0, [pc, #2024]	; 10614 <main+0x50e0>
    fe28:	ebffe5d0 	bl	9570 <printf@plt>
    fe2c:	ea000009 	b	fe58 <main+0x4924>
    fe30:	e28d0c53 	add	r0, sp, #21248	; 0x5300
    fe34:	e28000e0 	add	r0, r0, #224	; 0xe0
    fe38:	e2400024 	sub	r0, r0, #36	; 0x24
    fe3c:	e3a01f7d 	mov	r1, #500	; 0x1f4
    fe40:	e1a02004 	mov	r2, r4
    fe44:	ebffe5f6 	bl	9624 <fgets@plt>
    fe48:	e3500000 	cmp	r0, #0
    fe4c:	13a00031 	movne	r0, #49	; 0x31
    fe50:	03a00030 	moveq	r0, #48	; 0x30
    fe54:	ebffe5b9 	bl	9540 <putchar@plt>
    fe58:	e1a00004 	mov	r0, r4
    fe5c:	ebffe6a1 	bl	98e8 <fclose@plt>
    fe60:	ea000a9a 	b	128d0 <main+0x739c>
    fe64:	e1a00005 	mov	r0, r5
    fe68:	e59f15cc 	ldr	r1, [pc, #1484]	; 1043c <main+0x4f08>
    fe6c:	ebffe6a6 	bl	990c <strcmp@plt>
    fe70:	e3500000 	cmp	r0, #0
    fe74:	1a000032 	bne	ff44 <main+0x4a10>
    fe78:	e59f05c0 	ldr	r0, [pc, #1472]	; 10440 <main+0x4f0c>
    fe7c:	ebffe5f7 	bl	9660 <system@plt>
    fe80:	e59f05bc 	ldr	r0, [pc, #1468]	; 10444 <main+0x4f10>
    fe84:	ebffe7ef 	bl	9e48 <get_cgi>
    fe88:	e59f15b8 	ldr	r1, [pc, #1464]	; 10448 <main+0x4f14>
    fe8c:	ebffe671 	bl	9858 <strtok@plt>
    fe90:	e59f15b4 	ldr	r1, [pc, #1460]	; 1044c <main+0x4f18>
    fe94:	ebffe66f 	bl	9858 <strtok@plt>
    fe98:	e28d4c4f 	add	r4, sp, #20224	; 0x4f00
    fe9c:	e28440e0 	add	r4, r4, #224	; 0xe0
    fea0:	e2444024 	sub	r4, r4, #36	; 0x24
    fea4:	e1a02000 	mov	r2, r0
    fea8:	e59f15a0 	ldr	r1, [pc, #1440]	; 10450 <main+0x4f1c>
    feac:	e1a00004 	mov	r0, r4
    feb0:	ebffe69b 	bl	9924 <sprintf@plt>
    feb4:	e1a00004 	mov	r0, r4
    feb8:	ebffe5e8 	bl	9660 <system@plt>
    febc:	e59f0308 	ldr	r0, [pc, #776]	; 101cc <main+0x4c98>
    fec0:	ebffe5e3 	bl	9654 <puts@plt>
    fec4:	e59f0588 	ldr	r0, [pc, #1416]	; 10454 <main+0x4f20>
    fec8:	e59f17a8 	ldr	r1, [pc, #1960]	; 10678 <main+0x5144>
    fecc:	ebffe676 	bl	98ac <fopen@plt>
    fed0:	e2505000 	subs	r5, r0, #0
    fed4:	059f0738 	ldreq	r0, [pc, #1848]	; 10614 <main+0x50e0>
    fed8:	0a000015 	beq	ff34 <main+0x4a00>
    fedc:	e3a07001 	mov	r7, #1
    fee0:	ea000006 	b	ff00 <main+0x49cc>
    fee4:	ebffe5ce 	bl	9624 <fgets@plt>
    fee8:	e3500000 	cmp	r0, #0
    feec:	e1a01004 	mov	r1, r4
    fef0:	e59f0720 	ldr	r0, [pc, #1824]	; 10618 <main+0x50e4>
    fef4:	0a00000b 	beq	ff28 <main+0x49f4>
    fef8:	e1a07006 	mov	r7, r6
    fefc:	ebffe59b 	bl	9570 <printf@plt>
    ff00:	e1a00005 	mov	r0, r5
    ff04:	ebffe5d8 	bl	966c <feof@plt>
    ff08:	e28d4c4d 	add	r4, sp, #19712	; 0x4d00
    ff0c:	e28440e0 	add	r4, r4, #224	; 0xe0
    ff10:	e2444018 	sub	r4, r4, #24
    ff14:	e2506000 	subs	r6, r0, #0
    ff18:	e3a01f7d 	mov	r1, #500	; 0x1f4
    ff1c:	e1a02005 	mov	r2, r5
    ff20:	e1a00004 	mov	r0, r4
    ff24:	0affffee 	beq	fee4 <main+0x49b0>
    ff28:	e3570001 	cmp	r7, #1
    ff2c:	1a000001 	bne	ff38 <main+0x4a04>
    ff30:	e59f0520 	ldr	r0, [pc, #1312]	; 10458 <main+0x4f24>
    ff34:	ebffe58d 	bl	9570 <printf@plt>
    ff38:	e1a00005 	mov	r0, r5
    ff3c:	ebffe669 	bl	98e8 <fclose@plt>
    ff40:	ea000a62 	b	128d0 <main+0x739c>
    ff44:	e1a00005 	mov	r0, r5
    ff48:	e59f150c 	ldr	r1, [pc, #1292]	; 1045c <main+0x4f28>
    ff4c:	ebffe66e 	bl	990c <strcmp@plt>
    ff50:	e3500000 	cmp	r0, #0
    ff54:	1a000032 	bne	10024 <main+0x4af0>
    ff58:	e59f026c 	ldr	r0, [pc, #620]	; 101cc <main+0x4c98>
    ff5c:	ebffe5bc 	bl	9654 <puts@plt>
    ff60:	e59f04f8 	ldr	r0, [pc, #1272]	; 10460 <main+0x4f2c>
    ff64:	e59f170c 	ldr	r1, [pc, #1804]	; 10678 <main+0x5144>
    ff68:	ebffe64f 	bl	98ac <fopen@plt>
    ff6c:	e2505000 	subs	r5, r0, #0
    ff70:	1a000007 	bne	ff94 <main+0x4a60>
    ff74:	e59f0698 	ldr	r0, [pc, #1688]	; 10614 <main+0x50e0>
    ff78:	ebffe57c 	bl	9570 <printf@plt>
    ff7c:	ea00000e 	b	ffbc <main+0x4a88>
    ff80:	ebffe5a7 	bl	9624 <fgets@plt>
    ff84:	e3500000 	cmp	r0, #0
    ff88:	e1a01004 	mov	r1, r4
    ff8c:	e59f0684 	ldr	r0, [pc, #1668]	; 10618 <main+0x50e4>
    ff90:	1bffe576 	blne	9570 <printf@plt>
    ff94:	e1a00005 	mov	r0, r5
    ff98:	ebffe5b3 	bl	966c <feof@plt>
    ff9c:	e28d4c4b 	add	r4, sp, #19200	; 0x4b00
    ffa0:	e28440e0 	add	r4, r4, #224	; 0xe0
    ffa4:	e244400c 	sub	r4, r4, #12
    ffa8:	e3500000 	cmp	r0, #0
    ffac:	e3a01f7d 	mov	r1, #500	; 0x1f4
    ffb0:	e1a02005 	mov	r2, r5
    ffb4:	e1a00004 	mov	r0, r4
    ffb8:	0afffff0 	beq	ff80 <main+0x4a4c>
    ffbc:	e59f04a0 	ldr	r0, [pc, #1184]	; 10464 <main+0x4f30>
    ffc0:	e59f16b0 	ldr	r1, [pc, #1712]	; 10678 <main+0x5144>
    ffc4:	ebffe638 	bl	98ac <fopen@plt>
    ffc8:	e2505000 	subs	r5, r0, #0
    ffcc:	0a000a3f 	beq	128d0 <main+0x739c>
    ffd0:	e59f0490 	ldr	r0, [pc, #1168]	; 10468 <main+0x4f34>
    ffd4:	ebffe565 	bl	9570 <printf@plt>
    ffd8:	ea000004 	b	fff0 <main+0x4abc>
    ffdc:	ebffe590 	bl	9624 <fgets@plt>
    ffe0:	e3500000 	cmp	r0, #0
    ffe4:	e1a01004 	mov	r1, r4
    ffe8:	e59f0628 	ldr	r0, [pc, #1576]	; 10618 <main+0x50e4>
    ffec:	1bffe55f 	blne	9570 <printf@plt>
    fff0:	e1a00005 	mov	r0, r5
    fff4:	ebffe59c 	bl	966c <feof@plt>
    fff8:	e28d4c4b 	add	r4, sp, #19200	; 0x4b00
    fffc:	e28440e0 	add	r4, r4, #224	; 0xe0
   10000:	e244400c 	sub	r4, r4, #12
   10004:	e3500000 	cmp	r0, #0
   10008:	e3a01f7d 	mov	r1, #500	; 0x1f4
   1000c:	e1a02005 	mov	r2, r5
   10010:	e1a00004 	mov	r0, r4
   10014:	0afffff0 	beq	ffdc <main+0x4aa8>
   10018:	e1a00005 	mov	r0, r5
   1001c:	ebffe631 	bl	98e8 <fclose@plt>
   10020:	ea000a2a 	b	128d0 <main+0x739c>
   10024:	e1a00005 	mov	r0, r5
   10028:	e59f143c 	ldr	r1, [pc, #1084]	; 1046c <main+0x4f38>
   1002c:	ebffe636 	bl	990c <strcmp@plt>
   10030:	e3500000 	cmp	r0, #0
   10034:	1a00019a 	bne	106a4 <main+0x5170>
   10038:	e28d4e12 	add	r4, sp, #288	; 0x120
   1003c:	e1a01007 	mov	r1, r7
   10040:	e59f0428 	ldr	r0, [pc, #1064]	; 10470 <main+0x4f3c>
   10044:	e244408c 	sub	r4, r4, #140	; 0x8c
   10048:	ebffe7ff 	bl	a04c <init_obj>
   1004c:	e59f0420 	ldr	r0, [pc, #1056]	; 10474 <main+0x4f40>
   10050:	e1a01004 	mov	r1, r4
   10054:	ebffe569 	bl	9600 <sncfg_get@plt>
   10058:	e3500001 	cmp	r0, #1
   1005c:	0a00004e 	beq	1019c <main+0x4c68>
   10060:	e5943000 	ldr	r3, [r4]
   10064:	e3530000 	cmp	r3, #0
   10068:	0a00004b 	beq	1019c <main+0x4c68>
   1006c:	e59f0400 	ldr	r0, [pc, #1024]	; 10474 <main+0x4f40>
   10070:	ebffe774 	bl	9e48 <get_cgi>
   10074:	e1a01000 	mov	r1, r0
   10078:	e1a05000 	mov	r5, r0
   1007c:	e59f03f0 	ldr	r0, [pc, #1008]	; 10474 <main+0x4f40>
   10080:	ebffeb47 	bl	ada4 <Sncfg_set>
   10084:	e59f03ec 	ldr	r0, [pc, #1004]	; 10478 <main+0x4f44>
   10088:	ebffe76e 	bl	9e48 <get_cgi>
   1008c:	e1a01000 	mov	r1, r0
   10090:	e59f03e0 	ldr	r0, [pc, #992]	; 10478 <main+0x4f44>
   10094:	ebffeb42 	bl	ada4 <Sncfg_set>
   10098:	e59f03dc 	ldr	r0, [pc, #988]	; 1047c <main+0x4f48>
   1009c:	ebffe769 	bl	9e48 <get_cgi>
   100a0:	e1a01000 	mov	r1, r0
   100a4:	e59f03d0 	ldr	r0, [pc, #976]	; 1047c <main+0x4f48>
   100a8:	ebffeb3d 	bl	ada4 <Sncfg_set>
   100ac:	e59f03cc 	ldr	r0, [pc, #972]	; 10480 <main+0x4f4c>
   100b0:	ebffe764 	bl	9e48 <get_cgi>
   100b4:	e1a01000 	mov	r1, r0
   100b8:	e59f03c0 	ldr	r0, [pc, #960]	; 10480 <main+0x4f4c>
   100bc:	ebffeb38 	bl	ada4 <Sncfg_set>
   100c0:	e59f03bc 	ldr	r0, [pc, #956]	; 10484 <main+0x4f50>
   100c4:	ebffe75f 	bl	9e48 <get_cgi>
   100c8:	e1a01000 	mov	r1, r0
   100cc:	e59f03b0 	ldr	r0, [pc, #944]	; 10484 <main+0x4f50>
   100d0:	ebffeb33 	bl	ada4 <Sncfg_set>
   100d4:	e59f03ac 	ldr	r0, [pc, #940]	; 10488 <main+0x4f54>
   100d8:	ebffe75a 	bl	9e48 <get_cgi>
   100dc:	e1a01000 	mov	r1, r0
   100e0:	e59f03a0 	ldr	r0, [pc, #928]	; 10488 <main+0x4f54>
   100e4:	ebffeb2e 	bl	ada4 <Sncfg_set>
   100e8:	e59f039c 	ldr	r0, [pc, #924]	; 1048c <main+0x4f58>
   100ec:	ebffe755 	bl	9e48 <get_cgi>
   100f0:	e1a01000 	mov	r1, r0
   100f4:	e59f0390 	ldr	r0, [pc, #912]	; 1048c <main+0x4f58>
   100f8:	ebffeb29 	bl	ada4 <Sncfg_set>
   100fc:	e59f038c 	ldr	r0, [pc, #908]	; 10490 <main+0x4f5c>
   10100:	ebffe750 	bl	9e48 <get_cgi>
   10104:	e1a01000 	mov	r1, r0
   10108:	e59f0380 	ldr	r0, [pc, #896]	; 10490 <main+0x4f5c>
   1010c:	ebffeb24 	bl	ada4 <Sncfg_set>
   10110:	ebffe597 	bl	9774 <sncfg_commit@plt>
   10114:	e5940000 	ldr	r0, [r4]
   10118:	e59f110c 	ldr	r1, [pc, #268]	; 1022c <main+0x4cf8>
   1011c:	ebffe5fa 	bl	990c <strcmp@plt>
   10120:	e3500000 	cmp	r0, #0
   10124:	1a000005 	bne	10140 <main+0x4c0c>
   10128:	e1a00005 	mov	r0, r5
   1012c:	e59f10dc 	ldr	r1, [pc, #220]	; 10210 <main+0x4cdc>
   10130:	ebffe5f5 	bl	990c <strcmp@plt>
   10134:	e3500000 	cmp	r0, #0
   10138:	059f0354 	ldreq	r0, [pc, #852]	; 10494 <main+0x4f60>
   1013c:	0a000015 	beq	10198 <main+0x4c64>
   10140:	e5940000 	ldr	r0, [r4]
   10144:	e59f10c4 	ldr	r1, [pc, #196]	; 10210 <main+0x4cdc>
   10148:	ebffe5ef 	bl	990c <strcmp@plt>
   1014c:	e3500000 	cmp	r0, #0
   10150:	1a000005 	bne	1016c <main+0x4c38>
   10154:	e1a00005 	mov	r0, r5
   10158:	e59f10b0 	ldr	r1, [pc, #176]	; 10210 <main+0x4cdc>
   1015c:	ebffe5ea 	bl	990c <strcmp@plt>
   10160:	e3500000 	cmp	r0, #0
   10164:	059f032c 	ldreq	r0, [pc, #812]	; 10498 <main+0x4f64>
   10168:	0a00000a 	beq	10198 <main+0x4c64>
   1016c:	e5940000 	ldr	r0, [r4]
   10170:	e59f1098 	ldr	r1, [pc, #152]	; 10210 <main+0x4cdc>
   10174:	ebffe5e4 	bl	990c <strcmp@plt>
   10178:	e3500000 	cmp	r0, #0
   1017c:	1a000006 	bne	1019c <main+0x4c68>
   10180:	e1a00005 	mov	r0, r5
   10184:	e59f10a0 	ldr	r1, [pc, #160]	; 1022c <main+0x4cf8>
   10188:	ebffe5df 	bl	990c <strcmp@plt>
   1018c:	e3500000 	cmp	r0, #0
   10190:	1a000001 	bne	1019c <main+0x4c68>
   10194:	e59f0300 	ldr	r0, [pc, #768]	; 1049c <main+0x4f68>
   10198:	ebffe530 	bl	9660 <system@plt>
   1019c:	e59f0028 	ldr	r0, [pc, #40]	; 101cc <main+0x4c98>
   101a0:	ebffe52b 	bl	9654 <puts@plt>
   101a4:	e59f0024 	ldr	r0, [pc, #36]	; 101d0 <main+0x4c9c>
   101a8:	ebffe4f0 	bl	9570 <printf@plt>
   101ac:	e59f02ec 	ldr	r0, [pc, #748]	; 104a0 <main+0x4f6c>
   101b0:	ebffe4ee 	bl	9570 <printf@plt>
   101b4:	e59f001c 	ldr	r0, [pc, #28]	; 101d8 <main+0x4ca4>
   101b8:	ebffe4ec 	bl	9570 <printf@plt>
   101bc:	ea0009c3 	b	128d0 <main+0x739c>
   101c0:	0001706c 	andeq	r7, r1, ip, rrx
   101c4:	00017080 	andeq	r7, r1, r0, lsl #1
   101c8:	00017094 	muleq	r1, r4, r0
   101cc:	000153f8 	strdeq	r5, [r1], -r8
   101d0:	00015410 	andeq	r5, r1, r0, lsl r4
   101d4:	000170c0 	andeq	r7, r1, r0, asr #1
   101d8:	00015450 	andeq	r5, r1, r0, asr r4
   101dc:	00014dc0 	andeq	r4, r1, r0, asr #27
   101e0:	000170e0 	andeq	r7, r1, r0, ror #1
   101e4:	000170f8 	strdeq	r7, [r1], -r8
   101e8:	00017110 	andeq	r7, r1, r0, lsl r1
   101ec:	00017140 	andeq	r7, r1, r0, asr #2
   101f0:	00014e08 	andeq	r4, r1, r8, lsl #28
   101f4:	0001716c 	andeq	r7, r1, ip, ror #2
   101f8:	00017184 	andeq	r7, r1, r4, lsl #3
   101fc:	0001719c 	muleq	r1, ip, r1
   10200:	000171cc 	andeq	r7, r1, ip, asr #3
   10204:	00014e4c 	andeq	r4, r1, ip, asr #28
   10208:	000171f4 	strdeq	r7, [r1], -r4
   1020c:	00017204 	andeq	r7, r1, r4, lsl #4
   10210:	000156f0 	strdeq	r5, [r1], -r0
   10214:	00017210 	andeq	r7, r1, r0, lsl r2
   10218:	00017220 	andeq	r7, r1, r0, lsr #4
   1021c:	0001722c 	andeq	r7, r1, ip, lsr #4
   10220:	00017238 	andeq	r7, r1, r8, lsr r2
   10224:	00017244 	andeq	r7, r1, r4, asr #4
   10228:	00017254 	andeq	r7, r1, r4, asr r2
   1022c:	00015778 	andeq	r5, r1, r8, ror r7
   10230:	00017264 	andeq	r7, r1, r4, ror #4
   10234:	00017288 	andeq	r7, r1, r8, lsl #5
   10238:	000172ac 	andeq	r7, r1, ip, lsr #5
   1023c:	000172d0 	ldrdeq	r7, [r1], -r0
   10240:	000150c0 	andeq	r5, r1, r0, asr #1
   10244:	000172f0 	strdeq	r7, [r1], -r0
   10248:	00017308 	andeq	r7, r1, r8, lsl #6
   1024c:	00017318 	andeq	r7, r1, r8, lsl r3
   10250:	00017324 	andeq	r7, r1, r4, lsr #6
   10254:	00017330 	andeq	r7, r1, r0, lsr r3
   10258:	00017340 	andeq	r7, r1, r0, asr #6
   1025c:	00017350 	andeq	r7, r1, r0, asr r3
   10260:	00017360 	andeq	r7, r1, r0, ror #6
   10264:	00017370 	andeq	r7, r1, r0, ror r3
   10268:	0001737c 	andeq	r7, r1, ip, ror r3
   1026c:	00017388 	andeq	r7, r1, r8, lsl #7
   10270:	00017398 	muleq	r1, r8, r3
   10274:	000173c8 	andeq	r7, r1, r8, asr #7
   10278:	000152a0 	andeq	r5, r1, r0, lsr #5
   1027c:	000173f0 	strdeq	r7, [r1], -r0
   10280:	00017408 	andeq	r7, r1, r8, lsl #8
   10284:	0001741c 	andeq	r7, r1, ip, lsl r4
   10288:	0001742c 	andeq	r7, r1, ip, lsr #8
   1028c:	0001743c 	andeq	r7, r1, ip, lsr r4
   10290:	00017448 	andeq	r7, r1, r8, asr #8
   10294:	00017458 	andeq	r7, r1, r8, asr r4
   10298:	00017464 	andeq	r7, r1, r4, ror #8
   1029c:	00017478 	andeq	r7, r1, r8, ror r4
   102a0:	00017488 	andeq	r7, r1, r8, lsl #9
   102a4:	0001749c 	muleq	r1, ip, r4
   102a8:	000174ac 	andeq	r7, r1, ip, lsr #9
   102ac:	000174c0 	andeq	r7, r1, r0, asr #9
   102b0:	000174d0 	ldrdeq	r7, [r1], -r0
   102b4:	000174e0 	andeq	r7, r1, r0, ror #9
   102b8:	000174ec 	andeq	r7, r1, ip, ror #9
   102bc:	00017500 	andeq	r7, r1, r0, lsl #10
   102c0:	00017510 	andeq	r7, r1, r0, lsl r5
   102c4:	00017524 	andeq	r7, r1, r4, lsr #10
   102c8:	00017534 	andeq	r7, r1, r4, lsr r5
   102cc:	0001754c 	andeq	r7, r1, ip, asr #10
   102d0:	00017560 	andeq	r7, r1, r0, ror #10
   102d4:	00017578 	andeq	r7, r1, r8, ror r5
   102d8:	0001758c 	andeq	r7, r1, ip, lsl #11
   102dc:	00017598 	muleq	r1, r8, r5
   102e0:	0001525c 	andeq	r5, r1, ip, asr r2
   102e4:	000175c0 	andeq	r7, r1, r0, asr #11
   102e8:	000175d8 	ldrdeq	r7, [r1], -r8
   102ec:	000175e8 	andeq	r7, r1, r8, ror #11
   102f0:	000175f4 	strdeq	r7, [r1], -r4
   102f4:	00017600 	andeq	r7, r1, r0, lsl #12
   102f8:	0001760c 	andeq	r7, r1, ip, lsl #12
   102fc:	0001761c 	andeq	r7, r1, ip, lsl r6
   10300:	0001762c 	andeq	r7, r1, ip, lsr #12
   10304:	0001763c 	andeq	r7, r1, ip, lsr r6
   10308:	0001764c 	andeq	r7, r1, ip, asr #12
   1030c:	00017658 	andeq	r7, r1, r8, asr r6
   10310:	00017664 	andeq	r7, r1, r4, ror #12
   10314:	00017670 	andeq	r7, r1, r0, ror r6
   10318:	000176a0 	andeq	r7, r1, r0, lsr #13
   1031c:	00015218 	andeq	r5, r1, r8, lsl r2
   10320:	000176c8 	andeq	r7, r1, r8, asr #13
   10324:	000176e0 	andeq	r7, r1, r0, ror #13
   10328:	000176f4 	strdeq	r7, [r1], -r4
   1032c:	00017704 	andeq	r7, r1, r4, lsl #14
   10330:	00017714 	andeq	r7, r1, r4, lsl r7
   10334:	00017720 	andeq	r7, r1, r0, lsr #14
   10338:	00017730 	andeq	r7, r1, r0, lsr r7
   1033c:	0001773c 	andeq	r7, r1, ip, lsr r7
   10340:	0001774c 	andeq	r7, r1, ip, asr #14
   10344:	00017758 	andeq	r7, r1, r8, asr r7
   10348:	0001776c 	andeq	r7, r1, ip, ror #14
   1034c:	0001777c 	andeq	r7, r1, ip, ror r7
   10350:	00017790 	muleq	r1, r0, r7
   10354:	000177a0 	andeq	r7, r1, r0, lsr #15
   10358:	000177b4 			; <UNDEFINED> instruction: 0x000177b4
   1035c:	000177c4 	andeq	r7, r1, r4, asr #15
   10360:	000177d4 	ldrdeq	r7, [r1], -r4
   10364:	000177e0 	andeq	r7, r1, r0, ror #15
   10368:	000177f4 	strdeq	r7, [r1], -r4
   1036c:	00017804 	andeq	r7, r1, r4, lsl #16
   10370:	00017818 	andeq	r7, r1, r8, lsl r8
   10374:	00017828 	andeq	r7, r1, r8, lsr #16
   10378:	00017840 	andeq	r7, r1, r0, asr #16
   1037c:	00017854 	andeq	r7, r1, r4, asr r8
   10380:	0001786c 	andeq	r7, r1, ip, ror #16
   10384:	00017880 	andeq	r7, r1, r0, lsl #17
   10388:	0001788c 	andeq	r7, r1, ip, lsl #17
   1038c:	000151d4 	ldrdeq	r5, [r1], -r4
   10390:	000178b4 			; <UNDEFINED> instruction: 0x000178b4
   10394:	000178cc 	andeq	r7, r1, ip, asr #17
   10398:	000178d8 	ldrdeq	r7, [r1], -r8
   1039c:	000178e8 	andeq	r7, r1, r8, ror #17
   103a0:	000178f4 	strdeq	r7, [r1], -r4
   103a4:	00017904 	andeq	r7, r1, r4, lsl #18
   103a8:	00017914 	andeq	r7, r1, r4, lsl r9
   103ac:	00017928 	andeq	r7, r1, r8, lsr #18
   103b0:	000143d8 	ldrdeq	r4, [r1], -r8
   103b4:	00017938 	andeq	r7, r1, r8, lsr r9
   103b8:	000179b4 			; <UNDEFINED> instruction: 0x000179b4
   103bc:	000179c4 	andeq	r7, r1, r4, asr #19
   103c0:	000179d8 	ldrdeq	r7, [r1], -r8
   103c4:	000179ec 	andeq	r7, r1, ip, ror #19
   103c8:	00017a1c 	andeq	r7, r1, ip, lsl sl
   103cc:	00017a44 	andeq	r7, r1, r4, asr #20
   103d0:	00017a5c 	andeq	r7, r1, ip, asr sl
   103d4:	00017a6c 	andeq	r7, r1, ip, ror #20
   103d8:	00017a78 	andeq	r7, r1, r8, ror sl
   103dc:	00017a84 	andeq	r7, r1, r4, lsl #21
   103e0:	00017a94 	muleq	r1, r4, sl
   103e4:	00017aa0 	andeq	r7, r1, r0, lsr #21
   103e8:	00017aac 	andeq	r7, r1, ip, lsr #21
   103ec:	00014fc8 	andeq	r4, r1, r8, asr #31
   103f0:	00017ad0 	ldrdeq	r7, [r1], -r0
   103f4:	00017af8 	strdeq	r7, [r1], -r8
   103f8:	00017b20 	andeq	r7, r1, r0, lsr #22
   103fc:	00017b48 	andeq	r7, r1, r8, asr #22
   10400:	00017b6c 	andeq	r7, r1, ip, ror #22
   10404:	00017b84 	andeq	r7, r1, r4, lsl #23
   10408:	00017bac 	andeq	r7, r1, ip, lsr #23
   1040c:	00017bc0 	andeq	r7, r1, r0, asr #23
   10410:	00017c1c 	andeq	r7, r1, ip, lsl ip
   10414:	00017c30 	andeq	r7, r1, r0, lsr ip
   10418:	00017c3c 	andeq	r7, r1, ip, lsr ip
   1041c:	00017c58 	andeq	r7, r1, r8, asr ip
   10420:	00017cac 	andeq	r7, r1, ip, lsr #25
   10424:	00017cb8 			; <UNDEFINED> instruction: 0x00017cb8
   10428:	00017ccc 	andeq	r7, r1, ip, asr #25
   1042c:	00017ce8 	andeq	r7, r1, r8, ror #25
   10430:	00017cf8 	strdeq	r7, [r1], -r8
   10434:	00017d0c 	andeq	r7, r1, ip, lsl #26
   10438:	00017d30 	andeq	r7, r1, r0, lsr sp
   1043c:	00017d40 	andeq	r7, r1, r0, asr #26
   10440:	00017d4c 	andeq	r7, r1, ip, asr #26
   10444:	00017d60 	andeq	r7, r1, r0, ror #26
   10448:	00017ba8 	andeq	r7, r1, r8, lsr #23
   1044c:	00017d64 	andeq	r7, r1, r4, ror #26
   10450:	00017d68 	andeq	r7, r1, r8, ror #26
   10454:	00017d90 	muleq	r1, r0, sp
   10458:	00017da0 	andeq	r7, r1, r0, lsr #27
   1045c:	00017dc0 	andeq	r7, r1, r0, asr #27
   10460:	00017dcc 	andeq	r7, r1, ip, asr #27
   10464:	00017de0 	andeq	r7, r1, r0, ror #27
   10468:	00017df4 	strdeq	r7, [r1], -r4
   1046c:	00014ef4 	strdeq	r4, [r1], -r4	; <UNPREDICTABLE>
   10470:	00017e30 	andeq	r7, r1, r0, lsr lr
   10474:	00017e44 	andeq	r7, r1, r4, asr #28
   10478:	00017e50 	andeq	r7, r1, r0, asr lr
   1047c:	00017e5c 	andeq	r7, r1, ip, asr lr
   10480:	00017e68 	andeq	r7, r1, r8, ror #28
   10484:	00017e74 	andeq	r7, r1, r4, ror lr
   10488:	00017e88 	andeq	r7, r1, r8, lsl #29
   1048c:	00017e9c 	muleq	r1, ip, lr
   10490:	00017ea8 	andeq	r7, r1, r8, lsr #29
   10494:	00017eb4 			; <UNDEFINED> instruction: 0x00017eb4
   10498:	00017edc 	ldrdeq	r7, [r1], -ip
   1049c:	00017f04 	andeq	r7, r1, r4, lsl #30
   104a0:	000168bc 			; <UNDEFINED> instruction: 0x000168bc
   104a4:	00014f2c 	andeq	r4, r1, ip, lsr #30
   104a8:	00017f2c 	andeq	r7, r1, ip, lsr #30
   104ac:	00017f40 	andeq	r7, r1, r0, asr #30
   104b0:	00017f4c 	andeq	r7, r1, ip, asr #30
   104b4:	00017f5c 	andeq	r7, r1, ip, asr pc
   104b8:	00017f6c 	andeq	r7, r1, ip, ror #30
   104bc:	00017f7c 	andeq	r7, r1, ip, ror pc
   104c0:	00017f8c 	andeq	r7, r1, ip, lsl #31
   104c4:	00017f9c 	muleq	r1, ip, pc	; <UNPREDICTABLE>
   104c8:	00017fac 	andeq	r7, r1, ip, lsr #31
   104cc:	00017fbc 			; <UNDEFINED> instruction: 0x00017fbc
   104d0:	00017fcc 	andeq	r7, r1, ip, asr #31
   104d4:	00017fe0 	andeq	r7, r1, r0, ror #31
   104d8:	00017fec 	andeq	r7, r1, ip, ror #31
   104dc:	00018014 	andeq	r8, r1, r4, lsl r0
   104e0:	00018040 	andeq	r8, r1, r0, asr #32
   104e4:	00018068 	andeq	r8, r1, r8, rrx
   104e8:	0001808c 	andeq	r8, r1, ip, lsl #1
   104ec:	00018098 	muleq	r1, r8, r0
   104f0:	000180a8 	andeq	r8, r1, r8, lsr #1
   104f4:	000180c4 	andeq	r8, r1, r4, asr #1
   104f8:	000180e0 	andeq	r8, r1, r0, ror #1
   104fc:	00018100 	andeq	r8, r1, r0, lsl #2
   10500:	0001811c 	andeq	r8, r1, ip, lsl r1
   10504:	00018140 	andeq	r8, r1, r0, asr #2
   10508:	00018160 	andeq	r8, r1, r0, ror #2
   1050c:	00018184 	andeq	r8, r1, r4, lsl #3
   10510:	000181a8 	andeq	r8, r1, r8, lsr #3
   10514:	000181d0 	ldrdeq	r8, [r1], -r0
   10518:	000181f4 	strdeq	r8, [r1], -r4
   1051c:	00018214 	andeq	r8, r1, r4, lsl r2
   10520:	00018234 	andeq	r8, r1, r4, lsr r2
   10524:	00018254 	andeq	r8, r1, r4, asr r2
   10528:	00018270 	andeq	r8, r1, r0, ror r2
   1052c:	00018294 	muleq	r1, r4, r2
   10530:	000182b0 			; <UNDEFINED> instruction: 0x000182b0
   10534:	000182cc 	andeq	r8, r1, ip, asr #5
   10538:	000156f0 	strdeq	r5, [r1], -r0
   1053c:	000182ec 	andeq	r8, r1, ip, ror #5
   10540:	00018314 	andeq	r8, r1, r4, lsl r3
   10544:	0001833c 	andeq	r8, r1, ip, lsr r3
   10548:	00014b3c 	andeq	r4, r1, ip, lsr fp
   1054c:	00018360 	andeq	r8, r1, r0, ror #6
   10550:	00018374 	andeq	r8, r1, r4, ror r3
   10554:	00018380 	andeq	r8, r1, r0, lsl #7
   10558:	00018390 	muleq	r1, r0, r3
   1055c:	0001839c 	muleq	r1, ip, r3
   10560:	000183ac 	andeq	r8, r1, ip, lsr #7
   10564:	000183b4 			; <UNDEFINED> instruction: 0x000183b4
   10568:	000183bc 			; <UNDEFINED> instruction: 0x000183bc
   1056c:	000183c8 	andeq	r8, r1, r8, asr #7
   10570:	000183d0 	ldrdeq	r8, [r1], -r0
   10574:	000183d8 	ldrdeq	r8, [r1], -r8	; <UNPREDICTABLE>
   10578:	000183e0 	andeq	r8, r1, r0, ror #7
   1057c:	000183e8 	andeq	r8, r1, r8, ror #7
   10580:	000183f4 	strdeq	r8, [r1], -r4
   10584:	0001841c 	andeq	r8, r1, ip, lsl r4
   10588:	00018448 	andeq	r8, r1, r8, asr #8
   1058c:	00014af8 	strdeq	r4, [r1], -r8
   10590:	0001586c 	andeq	r5, r1, ip, ror #16
   10594:	0001846c 	andeq	r8, r1, ip, ror #8
   10598:	00015778 	andeq	r5, r1, r8, ror r7
   1059c:	0001847c 	andeq	r8, r1, ip, ror r4
   105a0:	00018488 	andeq	r8, r1, r8, lsl #9
   105a4:	00018494 	muleq	r1, r4, r4
   105a8:	000184bc 			; <UNDEFINED> instruction: 0x000184bc
   105ac:	000184cc 	andeq	r8, r1, ip, asr #9
   105b0:	000184dc 	ldrdeq	r8, [r1], -ip
   105b4:	00018504 	andeq	r8, r1, r4, lsl #10
   105b8:	0001850c 	andeq	r8, r1, ip, lsl #10
   105bc:	00018520 	andeq	r8, r1, r0, lsr #10
   105c0:	00018534 	andeq	r8, r1, r4, lsr r5
   105c4:	00018550 	andeq	r8, r1, r0, asr r5
   105c8:	00015108 	andeq	r5, r1, r8, lsl #2
   105cc:	0001856c 	andeq	r8, r1, ip, ror #10
   105d0:	00015410 	andeq	r5, r1, r0, lsl r4
   105d4:	000185a4 	andeq	r8, r1, r4, lsr #11
   105d8:	000185b8 			; <UNDEFINED> instruction: 0x000185b8
   105dc:	00015450 	andeq	r5, r1, r0, asr r4
   105e0:	000185dc 	ldrdeq	r8, [r1], -ip
   105e4:	000185f0 	strdeq	r8, [r1], -r0
   105e8:	00015494 	muleq	r1, r4, r4
   105ec:	00018630 	andeq	r8, r1, r0, lsr r6
   105f0:	00018638 	andeq	r8, r1, r8, lsr r6
   105f4:	0001864c 	andeq	r8, r1, ip, asr #12
   105f8:	00018660 	andeq	r8, r1, r0, ror #12
   105fc:	00018678 	andeq	r8, r1, r8, ror r6
   10600:	0001869c 	muleq	r1, ip, r6
   10604:	000186b4 			; <UNDEFINED> instruction: 0x000186b4
   10608:	000186cc 	andeq	r8, r1, ip, asr #13
   1060c:	000186e4 	andeq	r8, r1, r4, ror #13
   10610:	00018708 	andeq	r8, r1, r8, lsl #14
   10614:	00018720 	andeq	r8, r1, r0, lsr #14
   10618:	0001908c 	andeq	r9, r1, ip, lsl #1
   1061c:	00018734 	andeq	r8, r1, r4, lsr r7
   10620:	00019100 	andeq	r9, r1, r0, lsl #2
   10624:	00018760 	andeq	r8, r1, r0, ror #14
   10628:	00018778 	andeq	r8, r1, r8, ror r7
   1062c:	00018780 	andeq	r8, r1, r0, lsl #15
   10630:	00018794 	muleq	r1, r4, r7
   10634:	00018798 	muleq	r1, r8, r7
   10638:	000187b0 			; <UNDEFINED> instruction: 0x000187b0
   1063c:	00019108 	andeq	r9, r1, r8, lsl #2
   10640:	00016bd8 	ldrdeq	r6, [r1], -r8
   10644:	000187c8 	andeq	r8, r1, r8, asr #15
   10648:	000187e4 	andeq	r8, r1, r4, ror #15
   1064c:	0001911c 	andeq	r9, r1, ip, lsl r1
   10650:	00018824 	andeq	r8, r1, r4, lsr #16
   10654:	00018828 	andeq	r8, r1, r8, lsr #16
   10658:	00019130 	andeq	r9, r1, r0, lsr r1
   1065c:	00018844 	andeq	r8, r1, r4, asr #16
   10660:	00018854 	andeq	r8, r1, r4, asr r8
   10664:	0001885c 	andeq	r8, r1, ip, asr r8
   10668:	00019144 	andeq	r9, r1, r4, asr #2
   1066c:	00018874 	andeq	r8, r1, r4, ror r8
   10670:	0001888c 	andeq	r8, r1, ip, lsl #17
   10674:	000188a4 	andeq	r8, r1, r4, lsr #17
   10678:	000187ac 	andeq	r8, r1, ip, lsr #15
   1067c:	000188bc 			; <UNDEFINED> instruction: 0x000188bc
   10680:	000188c0 	andeq	r8, r1, r0, asr #17
   10684:	000188c4 	andeq	r8, r1, r4, asr #17
   10688:	00019178 	andeq	r9, r1, r8, ror r1
   1068c:	000188ec 	andeq	r8, r1, ip, ror #17
   10690:	00019250 	andeq	r9, r1, r0, asr r2
   10694:	00018910 	andeq	r8, r1, r0, lsl r9
   10698:	00019280 	andeq	r9, r1, r0, lsl #5
   1069c:	00018928 	andeq	r8, r1, r8, lsr #18
   106a0:	000153f8 	strdeq	r5, [r1], -r8
   106a4:	e1a00005 	mov	r0, r5
   106a8:	e51f120c 	ldr	r1, [pc, #-524]	; 104a4 <main+0x4f70>
   106ac:	ebffe496 	bl	990c <strcmp@plt>
   106b0:	e3500000 	cmp	r0, #0
   106b4:	1a000070 	bne	1087c <main+0x5348>
   106b8:	e28d4e12 	add	r4, sp, #288	; 0x120
   106bc:	e1a01007 	mov	r1, r7
   106c0:	e51f0220 	ldr	r0, [pc, #-544]	; 104a8 <main+0x4f74>
   106c4:	e2444090 	sub	r4, r4, #144	; 0x90
   106c8:	ebffe65f 	bl	a04c <init_obj>
   106cc:	e51f0228 	ldr	r0, [pc, #-552]	; 104ac <main+0x4f78>
   106d0:	e1a01004 	mov	r1, r4
   106d4:	ebffe3c9 	bl	9600 <sncfg_get@plt>
   106d8:	e3500001 	cmp	r0, #1
   106dc:	0a00005d 	beq	10858 <main+0x5324>
   106e0:	e5943000 	ldr	r3, [r4]
   106e4:	e3530000 	cmp	r3, #0
   106e8:	0a00005a 	beq	10858 <main+0x5324>
   106ec:	e51f0248 	ldr	r0, [pc, #-584]	; 104ac <main+0x4f78>
   106f0:	ebffe5d4 	bl	9e48 <get_cgi>
   106f4:	e1a01000 	mov	r1, r0
   106f8:	e1a05000 	mov	r5, r0
   106fc:	e51f0258 	ldr	r0, [pc, #-600]	; 104ac <main+0x4f78>
   10700:	ebffe9a7 	bl	ada4 <Sncfg_set>
   10704:	e51f025c 	ldr	r0, [pc, #-604]	; 104b0 <main+0x4f7c>
   10708:	ebffe5ce 	bl	9e48 <get_cgi>
   1070c:	e1a01000 	mov	r1, r0
   10710:	e51f0268 	ldr	r0, [pc, #-616]	; 104b0 <main+0x4f7c>
   10714:	ebffe9a2 	bl	ada4 <Sncfg_set>
   10718:	e51f026c 	ldr	r0, [pc, #-620]	; 104b4 <main+0x4f80>
   1071c:	ebffe5c9 	bl	9e48 <get_cgi>
   10720:	e1a01000 	mov	r1, r0
   10724:	e51f0278 	ldr	r0, [pc, #-632]	; 104b4 <main+0x4f80>
   10728:	ebffe99d 	bl	ada4 <Sncfg_set>
   1072c:	e51f027c 	ldr	r0, [pc, #-636]	; 104b8 <main+0x4f84>
   10730:	ebffe5c4 	bl	9e48 <get_cgi>
   10734:	e1a01000 	mov	r1, r0
   10738:	e51f0288 	ldr	r0, [pc, #-648]	; 104b8 <main+0x4f84>
   1073c:	ebffe998 	bl	ada4 <Sncfg_set>
   10740:	e51f028c 	ldr	r0, [pc, #-652]	; 104bc <main+0x4f88>
   10744:	ebffe5bf 	bl	9e48 <get_cgi>
   10748:	e1a01000 	mov	r1, r0
   1074c:	e51f0298 	ldr	r0, [pc, #-664]	; 104bc <main+0x4f88>
   10750:	ebffe993 	bl	ada4 <Sncfg_set>
   10754:	e51f029c 	ldr	r0, [pc, #-668]	; 104c0 <main+0x4f8c>
   10758:	ebffe5ba 	bl	9e48 <get_cgi>
   1075c:	e1a01000 	mov	r1, r0
   10760:	e51f02a8 	ldr	r0, [pc, #-680]	; 104c0 <main+0x4f8c>
   10764:	ebffe98e 	bl	ada4 <Sncfg_set>
   10768:	e51f02ac 	ldr	r0, [pc, #-684]	; 104c4 <main+0x4f90>
   1076c:	ebffe5b5 	bl	9e48 <get_cgi>
   10770:	e1a01000 	mov	r1, r0
   10774:	e51f02b8 	ldr	r0, [pc, #-696]	; 104c4 <main+0x4f90>
   10778:	ebffe989 	bl	ada4 <Sncfg_set>
   1077c:	e51f02bc 	ldr	r0, [pc, #-700]	; 104c8 <main+0x4f94>
   10780:	ebffe5b0 	bl	9e48 <get_cgi>
   10784:	e1a01000 	mov	r1, r0
   10788:	e51f02c8 	ldr	r0, [pc, #-712]	; 104c8 <main+0x4f94>
   1078c:	ebffe984 	bl	ada4 <Sncfg_set>
   10790:	e51f02cc 	ldr	r0, [pc, #-716]	; 104cc <main+0x4f98>
   10794:	ebffe5ab 	bl	9e48 <get_cgi>
   10798:	e1a01000 	mov	r1, r0
   1079c:	e51f02d8 	ldr	r0, [pc, #-728]	; 104cc <main+0x4f98>
   107a0:	ebffe97f 	bl	ada4 <Sncfg_set>
   107a4:	e51f02dc 	ldr	r0, [pc, #-732]	; 104d0 <main+0x4f9c>
   107a8:	ebffe5a6 	bl	9e48 <get_cgi>
   107ac:	e1a01000 	mov	r1, r0
   107b0:	e51f02e8 	ldr	r0, [pc, #-744]	; 104d0 <main+0x4f9c>
   107b4:	ebffe97a 	bl	ada4 <Sncfg_set>
   107b8:	e51f02ec 	ldr	r0, [pc, #-748]	; 104d4 <main+0x4fa0>
   107bc:	ebffe5a1 	bl	9e48 <get_cgi>
   107c0:	e1a01000 	mov	r1, r0
   107c4:	e51f02f8 	ldr	r0, [pc, #-760]	; 104d4 <main+0x4fa0>
   107c8:	ebffe975 	bl	ada4 <Sncfg_set>
   107cc:	ebffe3e8 	bl	9774 <sncfg_commit@plt>
   107d0:	e5940000 	ldr	r0, [r4]
   107d4:	e51f1244 	ldr	r1, [pc, #-580]	; 10598 <main+0x5064>
   107d8:	ebffe44b 	bl	990c <strcmp@plt>
   107dc:	e3500000 	cmp	r0, #0
   107e0:	1a000005 	bne	107fc <main+0x52c8>
   107e4:	e1a00005 	mov	r0, r5
   107e8:	e51f12b8 	ldr	r1, [pc, #-696]	; 10538 <main+0x5004>
   107ec:	ebffe446 	bl	990c <strcmp@plt>
   107f0:	e3500000 	cmp	r0, #0
   107f4:	051f0324 	ldreq	r0, [pc, #-804]	; 104d8 <main+0x4fa4>
   107f8:	0a000015 	beq	10854 <main+0x5320>
   107fc:	e5940000 	ldr	r0, [r4]
   10800:	e51f12d0 	ldr	r1, [pc, #-720]	; 10538 <main+0x5004>
   10804:	ebffe440 	bl	990c <strcmp@plt>
   10808:	e3500000 	cmp	r0, #0
   1080c:	1a000005 	bne	10828 <main+0x52f4>
   10810:	e1a00005 	mov	r0, r5
   10814:	e51f12e4 	ldr	r1, [pc, #-740]	; 10538 <main+0x5004>
   10818:	ebffe43b 	bl	990c <strcmp@plt>
   1081c:	e3500000 	cmp	r0, #0
   10820:	051f034c 	ldreq	r0, [pc, #-844]	; 104dc <main+0x4fa8>
   10824:	0a00000a 	beq	10854 <main+0x5320>
   10828:	e5940000 	ldr	r0, [r4]
   1082c:	e51f12fc 	ldr	r1, [pc, #-764]	; 10538 <main+0x5004>
   10830:	ebffe435 	bl	990c <strcmp@plt>
   10834:	e3500000 	cmp	r0, #0
   10838:	1a000006 	bne	10858 <main+0x5324>
   1083c:	e1a00005 	mov	r0, r5
   10840:	e51f12b0 	ldr	r1, [pc, #-688]	; 10598 <main+0x5064>
   10844:	ebffe430 	bl	990c <strcmp@plt>
   10848:	e3500000 	cmp	r0, #0
   1084c:	1a000001 	bne	10858 <main+0x5324>
   10850:	e51f0378 	ldr	r0, [pc, #-888]	; 104e0 <main+0x4fac>
   10854:	ebffe381 	bl	9660 <system@plt>
   10858:	e51f01c0 	ldr	r0, [pc, #-448]	; 106a0 <main+0x516c>
   1085c:	ebffe37c 	bl	9654 <puts@plt>
   10860:	e51f0298 	ldr	r0, [pc, #-664]	; 105d0 <main+0x509c>
   10864:	ebffe341 	bl	9570 <printf@plt>
   10868:	e51f038c 	ldr	r0, [pc, #-908]	; 104e4 <main+0x4fb0>
   1086c:	ebffe33f 	bl	9570 <printf@plt>
   10870:	e51f029c 	ldr	r0, [pc, #-668]	; 105dc <main+0x50a8>
   10874:	ebffe33d 	bl	9570 <printf@plt>
   10878:	ea000814 	b	128d0 <main+0x739c>
   1087c:	e1a00005 	mov	r0, r5
   10880:	e51f13a0 	ldr	r1, [pc, #-928]	; 104e8 <main+0x4fb4>
   10884:	ebffe420 	bl	990c <strcmp@plt>
   10888:	e3500000 	cmp	r0, #0
   1088c:	1a000041 	bne	10998 <main+0x5464>
   10890:	e1a01007 	mov	r1, r7
   10894:	e51f03b0 	ldr	r0, [pc, #-944]	; 104ec <main+0x4fb8>
   10898:	ebffe5eb 	bl	a04c <init_obj>
   1089c:	e51f03b4 	ldr	r0, [pc, #-948]	; 104f0 <main+0x4fbc>
   108a0:	ebffeb16 	bl	b500 <get_checkbox>
   108a4:	e1a01000 	mov	r1, r0
   108a8:	e51f03bc 	ldr	r0, [pc, #-956]	; 104f4 <main+0x4fc0>
   108ac:	ebffe93c 	bl	ada4 <Sncfg_set>
   108b0:	e51f03c0 	ldr	r0, [pc, #-960]	; 104f8 <main+0x4fc4>
   108b4:	ebffe563 	bl	9e48 <get_cgi>
   108b8:	e1a01000 	mov	r1, r0
   108bc:	e51f03c8 	ldr	r0, [pc, #-968]	; 104fc <main+0x4fc8>
   108c0:	ebffe937 	bl	ada4 <Sncfg_set>
   108c4:	e51f03cc 	ldr	r0, [pc, #-972]	; 10500 <main+0x4fcc>
   108c8:	ebffe55e 	bl	9e48 <get_cgi>
   108cc:	e1a01000 	mov	r1, r0
   108d0:	e51f03d4 	ldr	r0, [pc, #-980]	; 10504 <main+0x4fd0>
   108d4:	ebffe932 	bl	ada4 <Sncfg_set>
   108d8:	e51f03d8 	ldr	r0, [pc, #-984]	; 10508 <main+0x4fd4>
   108dc:	ebffe559 	bl	9e48 <get_cgi>
   108e0:	e1a01000 	mov	r1, r0
   108e4:	e51f03e0 	ldr	r0, [pc, #-992]	; 1050c <main+0x4fd8>
   108e8:	ebffe92d 	bl	ada4 <Sncfg_set>
   108ec:	e51f03e4 	ldr	r0, [pc, #-996]	; 10510 <main+0x4fdc>
   108f0:	ebffe554 	bl	9e48 <get_cgi>
   108f4:	e1a01000 	mov	r1, r0
   108f8:	e51f03ec 	ldr	r0, [pc, #-1004]	; 10514 <main+0x4fe0>
   108fc:	ebffe928 	bl	ada4 <Sncfg_set>
   10900:	e51f03f0 	ldr	r0, [pc, #-1008]	; 10518 <main+0x4fe4>
   10904:	ebffe54f 	bl	9e48 <get_cgi>
   10908:	e1a01000 	mov	r1, r0
   1090c:	e51f03f8 	ldr	r0, [pc, #-1016]	; 1051c <main+0x4fe8>
   10910:	ebffe923 	bl	ada4 <Sncfg_set>
   10914:	e51f03fc 	ldr	r0, [pc, #-1020]	; 10520 <main+0x4fec>
   10918:	ebffe54a 	bl	9e48 <get_cgi>
   1091c:	e1a01000 	mov	r1, r0
   10920:	e51f0404 	ldr	r0, [pc, #-1028]	; 10524 <main+0x4ff0>
   10924:	ebffe91e 	bl	ada4 <Sncfg_set>
   10928:	e51f0408 	ldr	r0, [pc, #-1032]	; 10528 <main+0x4ff4>
   1092c:	ebffe545 	bl	9e48 <get_cgi>
   10930:	e1a01000 	mov	r1, r0
   10934:	e51f0410 	ldr	r0, [pc, #-1040]	; 1052c <main+0x4ff8>
   10938:	ebffe919 	bl	ada4 <Sncfg_set>
   1093c:	e51f0410 	ldr	r0, [pc, #-1040]	; 10534 <main+0x5000>
   10940:	ebffeaee 	bl	b500 <get_checkbox>
   10944:	e1a01000 	mov	r1, r0
   10948:	e51f0420 	ldr	r0, [pc, #-1056]	; 10530 <main+0x4ffc>
   1094c:	ebffe914 	bl	ada4 <Sncfg_set>
   10950:	ebffe387 	bl	9774 <sncfg_commit@plt>
   10954:	e51f0428 	ldr	r0, [pc, #-1064]	; 10534 <main+0x5000>
   10958:	ebffeae8 	bl	b500 <get_checkbox>
   1095c:	e51f142c 	ldr	r1, [pc, #-1068]	; 10538 <main+0x5004>
   10960:	ebffe3e9 	bl	990c <strcmp@plt>
   10964:	e3500000 	cmp	r0, #0
   10968:	051f0434 	ldreq	r0, [pc, #-1076]	; 1053c <main+0x5008>
   1096c:	151f0434 	ldrne	r0, [pc, #-1076]	; 10540 <main+0x500c>
   10970:	ebffe33a 	bl	9660 <system@plt>
   10974:	e51f02dc 	ldr	r0, [pc, #-732]	; 106a0 <main+0x516c>
   10978:	ebffe335 	bl	9654 <puts@plt>
   1097c:	e51f03b4 	ldr	r0, [pc, #-948]	; 105d0 <main+0x509c>
   10980:	ebffe2fa 	bl	9570 <printf@plt>
   10984:	e51f0448 	ldr	r0, [pc, #-1096]	; 10544 <main+0x5010>
   10988:	ebffe2f8 	bl	9570 <printf@plt>
   1098c:	e51f03b8 	ldr	r0, [pc, #-952]	; 105dc <main+0x50a8>
   10990:	ebffe2f6 	bl	9570 <printf@plt>
   10994:	ea0007cd 	b	128d0 <main+0x739c>
   10998:	e1a00005 	mov	r0, r5
   1099c:	e51f145c 	ldr	r1, [pc, #-1116]	; 10548 <main+0x5014>
   109a0:	ebffe3d9 	bl	990c <strcmp@plt>
   109a4:	e3500000 	cmp	r0, #0
   109a8:	1a00005b 	bne	10b1c <main+0x55e8>
   109ac:	e1a01007 	mov	r1, r7
   109b0:	e51f046c 	ldr	r0, [pc, #-1132]	; 1054c <main+0x5018>
   109b4:	ebffe5a4 	bl	a04c <init_obj>
   109b8:	e51f0470 	ldr	r0, [pc, #-1136]	; 10550 <main+0x501c>
   109bc:	ebffeacf 	bl	b500 <get_checkbox>
   109c0:	e1a01000 	mov	r1, r0
   109c4:	e1a04000 	mov	r4, r0
   109c8:	e51f0480 	ldr	r0, [pc, #-1152]	; 10550 <main+0x501c>
   109cc:	ebffe8f4 	bl	ada4 <Sncfg_set>
   109d0:	e51f0484 	ldr	r0, [pc, #-1156]	; 10554 <main+0x5020>
   109d4:	ebffeac9 	bl	b500 <get_checkbox>
   109d8:	e1a01000 	mov	r1, r0
   109dc:	e51f0490 	ldr	r0, [pc, #-1168]	; 10554 <main+0x5020>
   109e0:	ebffe8ef 	bl	ada4 <Sncfg_set>
   109e4:	e51f0494 	ldr	r0, [pc, #-1172]	; 10558 <main+0x5024>
   109e8:	ebffe582 	bl	9ff8 <get_obj>
   109ec:	ebffe3ea 	bl	999c <atoi@plt>
   109f0:	e3500001 	cmp	r0, #1
   109f4:	0a000004 	beq	10a0c <main+0x54d8>
   109f8:	e51f04a8 	ldr	r0, [pc, #-1192]	; 10558 <main+0x5024>
   109fc:	ebffe57d 	bl	9ff8 <get_obj>
   10a00:	ebffe3e5 	bl	999c <atoi@plt>
   10a04:	e3500003 	cmp	r0, #3
   10a08:	1a000009 	bne	10a34 <main+0x5500>
   10a0c:	e51f04b8 	ldr	r0, [pc, #-1208]	; 1055c <main+0x5028>
   10a10:	ebffe50c 	bl	9e48 <get_cgi>
   10a14:	e1a01000 	mov	r1, r0
   10a18:	e51f04c4 	ldr	r0, [pc, #-1220]	; 1055c <main+0x5028>
   10a1c:	ebffe33f 	bl	9720 <sncfg_set@plt>
   10a20:	e51f04c8 	ldr	r0, [pc, #-1224]	; 10560 <main+0x502c>
   10a24:	ebffe507 	bl	9e48 <get_cgi>
   10a28:	e1a01000 	mov	r1, r0
   10a2c:	e51f04d4 	ldr	r0, [pc, #-1236]	; 10560 <main+0x502c>
   10a30:	ebffe33a 	bl	9720 <sncfg_set@plt>
   10a34:	e1a00004 	mov	r0, r4
   10a38:	e51f14a8 	ldr	r1, [pc, #-1192]	; 10598 <main+0x5064>
   10a3c:	ebffe3b2 	bl	990c <strcmp@plt>
   10a40:	e3500000 	cmp	r0, #0
   10a44:	1a00001e 	bne	10ac4 <main+0x5590>
   10a48:	e51f04ec 	ldr	r0, [pc, #-1260]	; 10564 <main+0x5030>
   10a4c:	ebffe4fd 	bl	9e48 <get_cgi>
   10a50:	e1a01000 	mov	r1, r0
   10a54:	e51f04f8 	ldr	r0, [pc, #-1272]	; 10564 <main+0x5030>
   10a58:	ebffe330 	bl	9720 <sncfg_set@plt>
   10a5c:	e51f04fc 	ldr	r0, [pc, #-1276]	; 10568 <main+0x5034>
   10a60:	ebffe4f8 	bl	9e48 <get_cgi>
   10a64:	e1a01000 	mov	r1, r0
   10a68:	e51f0508 	ldr	r0, [pc, #-1288]	; 10568 <main+0x5034>
   10a6c:	ebffe32b 	bl	9720 <sncfg_set@plt>
   10a70:	e51f050c 	ldr	r0, [pc, #-1292]	; 1056c <main+0x5038>
   10a74:	ebffe4f3 	bl	9e48 <get_cgi>
   10a78:	e1a01000 	mov	r1, r0
   10a7c:	e51f0518 	ldr	r0, [pc, #-1304]	; 1056c <main+0x5038>
   10a80:	ebffe326 	bl	9720 <sncfg_set@plt>
   10a84:	e51f051c 	ldr	r0, [pc, #-1308]	; 10570 <main+0x503c>
   10a88:	ebffe4ee 	bl	9e48 <get_cgi>
   10a8c:	e1a01000 	mov	r1, r0
   10a90:	e51f0528 	ldr	r0, [pc, #-1320]	; 10570 <main+0x503c>
   10a94:	ebffe321 	bl	9720 <sncfg_set@plt>
   10a98:	e51f052c 	ldr	r0, [pc, #-1324]	; 10574 <main+0x5040>
   10a9c:	ebffe4e9 	bl	9e48 <get_cgi>
   10aa0:	e1a01000 	mov	r1, r0
   10aa4:	e51f0538 	ldr	r0, [pc, #-1336]	; 10574 <main+0x5040>
   10aa8:	ebffe31c 	bl	9720 <sncfg_set@plt>
   10aac:	e51f053c 	ldr	r0, [pc, #-1340]	; 10578 <main+0x5044>
   10ab0:	ebffe4e4 	bl	9e48 <get_cgi>
   10ab4:	e1a01000 	mov	r1, r0
   10ab8:	e51f0548 	ldr	r0, [pc, #-1352]	; 10578 <main+0x5044>
   10abc:	ebffe317 	bl	9720 <sncfg_set@plt>
   10ac0:	ea000004 	b	10ad8 <main+0x55a4>
   10ac4:	e51f0550 	ldr	r0, [pc, #-1360]	; 1057c <main+0x5048>
   10ac8:	ebffe4de 	bl	9e48 <get_cgi>
   10acc:	e1a01000 	mov	r1, r0
   10ad0:	e51f055c 	ldr	r0, [pc, #-1372]	; 1057c <main+0x5048>
   10ad4:	ebffe8b2 	bl	ada4 <Sncfg_set>
   10ad8:	ebffe325 	bl	9774 <sncfg_commit@plt>
   10adc:	e51f154c 	ldr	r1, [pc, #-1356]	; 10598 <main+0x5064>
   10ae0:	e1a00004 	mov	r0, r4
   10ae4:	ebffe388 	bl	990c <strcmp@plt>
   10ae8:	e3500000 	cmp	r0, #0
   10aec:	051f0574 	ldreq	r0, [pc, #-1396]	; 10580 <main+0x504c>
   10af0:	151f0574 	ldrne	r0, [pc, #-1396]	; 10584 <main+0x5050>
   10af4:	ebffe2d9 	bl	9660 <system@plt>
   10af8:	e51f0460 	ldr	r0, [pc, #-1120]	; 106a0 <main+0x516c>
   10afc:	ebffe2d4 	bl	9654 <puts@plt>
   10b00:	e51f0538 	ldr	r0, [pc, #-1336]	; 105d0 <main+0x509c>
   10b04:	ebffe299 	bl	9570 <printf@plt>
   10b08:	e51f0588 	ldr	r0, [pc, #-1416]	; 10588 <main+0x5054>
   10b0c:	ebffe297 	bl	9570 <printf@plt>
   10b10:	e51f053c 	ldr	r0, [pc, #-1340]	; 105dc <main+0x50a8>
   10b14:	ebffe295 	bl	9570 <printf@plt>
   10b18:	ea00076c 	b	128d0 <main+0x739c>
   10b1c:	e1a00005 	mov	r0, r5
   10b20:	e51f159c 	ldr	r1, [pc, #-1436]	; 1058c <main+0x5058>
   10b24:	ebffe378 	bl	990c <strcmp@plt>
   10b28:	e3500000 	cmp	r0, #0
   10b2c:	1a000030 	bne	10bf4 <main+0x56c0>
   10b30:	e51f0498 	ldr	r0, [pc, #-1176]	; 106a0 <main+0x516c>
   10b34:	ebffe2c6 	bl	9654 <puts@plt>
   10b38:	e51f0570 	ldr	r0, [pc, #-1392]	; 105d0 <main+0x509c>
   10b3c:	ebffe28b 	bl	9570 <printf@plt>
   10b40:	e51f15b8 	ldr	r1, [pc, #-1464]	; 10590 <main+0x505c>
   10b44:	e1a00007 	mov	r0, r7
   10b48:	ebffe36f 	bl	990c <strcmp@plt>
   10b4c:	e3500000 	cmp	r0, #0
   10b50:	028d1e12 	addeq	r1, sp, #288	; 0x120
   10b54:	02411094 	subeq	r1, r1, #148	; 0x94
   10b58:	051f05cc 	ldreq	r0, [pc, #-1484]	; 10594 <main+0x5060>
   10b5c:	0a000007 	beq	10b80 <main+0x564c>
   10b60:	e51f15d0 	ldr	r1, [pc, #-1488]	; 10598 <main+0x5064>
   10b64:	e1a00007 	mov	r0, r7
   10b68:	ebffe367 	bl	990c <strcmp@plt>
   10b6c:	e3500000 	cmp	r0, #0
   10b70:	e28d1e12 	add	r1, sp, #288	; 0x120
   10b74:	051f05e0 	ldreq	r0, [pc, #-1504]	; 1059c <main+0x5068>
   10b78:	151f05e0 	ldrne	r0, [pc, #-1504]	; 105a0 <main+0x506c>
   10b7c:	e2411094 	sub	r1, r1, #148	; 0x94
   10b80:	ebffe29e 	bl	9600 <sncfg_get@plt>
   10b84:	e51f05e4 	ldr	r0, [pc, #-1508]	; 105a8 <main+0x5074>
   10b88:	ebffe4ae 	bl	9e48 <get_cgi>
   10b8c:	e28d5e12 	add	r5, sp, #288	; 0x120
   10b90:	e2455094 	sub	r5, r5, #148	; 0x94
   10b94:	e1a01000 	mov	r1, r0
   10b98:	e3a02000 	mov	r2, #0
   10b9c:	e5950000 	ldr	r0, [r5]
   10ba0:	ebffe2e7 	bl	9744 <sncfg_check_passwd@plt>
   10ba4:	e3500000 	cmp	r0, #0
   10ba8:	aa000002 	bge	10bb8 <main+0x5684>
   10bac:	e51f0610 	ldr	r0, [pc, #-1552]	; 105a4 <main+0x5070>
   10bb0:	ebffe26e 	bl	9570 <printf@plt>
   10bb4:	ea000009 	b	10be0 <main+0x56ac>
   10bb8:	e51f0618 	ldr	r0, [pc, #-1560]	; 105a8 <main+0x5074>
   10bbc:	ebffe4a1 	bl	9e48 <get_cgi>
   10bc0:	e1a04000 	mov	r4, r0
   10bc4:	e51f0620 	ldr	r0, [pc, #-1568]	; 105ac <main+0x5078>
   10bc8:	ebffe49e 	bl	9e48 <get_cgi>
   10bcc:	e1a01004 	mov	r1, r4
   10bd0:	e1a02000 	mov	r2, r0
   10bd4:	e5950000 	ldr	r0, [r5]
   10bd8:	ebffe38a 	bl	9a08 <sncfg_update_password@plt>
   10bdc:	ebffe2e4 	bl	9774 <sncfg_commit@plt>
   10be0:	e51f0638 	ldr	r0, [pc, #-1592]	; 105b0 <main+0x507c>
   10be4:	ebffe261 	bl	9570 <printf@plt>
   10be8:	e51f0614 	ldr	r0, [pc, #-1556]	; 105dc <main+0x50a8>
   10bec:	ebffe25f 	bl	9570 <printf@plt>
   10bf0:	ea000736 	b	128d0 <main+0x739c>
   10bf4:	e1a00005 	mov	r0, r5
   10bf8:	e51f164c 	ldr	r1, [pc, #-1612]	; 105b4 <main+0x5080>
   10bfc:	ebffe342 	bl	990c <strcmp@plt>
   10c00:	e2506000 	subs	r6, r0, #0
   10c04:	1a00002f 	bne	10cc8 <main+0x5794>
   10c08:	e51f0658 	ldr	r0, [pc, #-1624]	; 105b8 <main+0x5084>
   10c0c:	ebffe48d 	bl	9e48 <get_cgi>
   10c10:	e1a04000 	mov	r4, r0
   10c14:	e51f0660 	ldr	r0, [pc, #-1632]	; 105bc <main+0x5088>
   10c18:	ebffe48a 	bl	9e48 <get_cgi>
   10c1c:	e1a02006 	mov	r2, r6
   10c20:	e1a01000 	mov	r1, r0
   10c24:	e1a00004 	mov	r0, r4
   10c28:	ebffe2c5 	bl	9744 <sncfg_check_passwd@plt>
   10c2c:	e1e04000 	mvn	r4, r0
   10c30:	e1a04fa4 	lsr	r4, r4, #31
   10c34:	e1a05000 	mov	r5, r0
   10c38:	e51f05a0 	ldr	r0, [pc, #-1440]	; 106a0 <main+0x516c>
   10c3c:	ebffe284 	bl	9654 <puts@plt>
   10c40:	e3540000 	cmp	r4, #0
   10c44:	1a000009 	bne	10c70 <main+0x573c>
   10c48:	e51f0680 	ldr	r0, [pc, #-1664]	; 105d0 <main+0x509c>
   10c4c:	ebffe247 	bl	9570 <printf@plt>
   10c50:	e1a01005 	mov	r1, r5
   10c54:	e51f069c 	ldr	r0, [pc, #-1692]	; 105c0 <main+0x508c>
   10c58:	ebffe244 	bl	9570 <printf@plt>
   10c5c:	e51f06a0 	ldr	r0, [pc, #-1696]	; 105c4 <main+0x5090>
   10c60:	ebffe242 	bl	9570 <printf@plt>
   10c64:	e51f0690 	ldr	r0, [pc, #-1680]	; 105dc <main+0x50a8>
   10c68:	ebffe240 	bl	9570 <printf@plt>
   10c6c:	ea000717 	b	128d0 <main+0x739c>
   10c70:	e51f06b0 	ldr	r0, [pc, #-1712]	; 105c8 <main+0x5094>
   10c74:	ebffe25b 	bl	95e8 <getenv@plt>
   10c78:	e28d4c4b 	add	r4, sp, #19200	; 0x4b00
   10c7c:	e28440e0 	add	r4, r4, #224	; 0xe0
   10c80:	e244401c 	sub	r4, r4, #28
   10c84:	e1a01000 	mov	r1, r0
   10c88:	e1a03005 	mov	r3, r5
   10c8c:	e3a0200c 	mov	r2, #12
   10c90:	e1a00004 	mov	r0, r4
   10c94:	ebffe975 	bl	b270 <session_create>
   10c98:	e51f06d4 	ldr	r0, [pc, #-1748]	; 105cc <main+0x5098>
   10c9c:	ebffe233 	bl	9570 <printf@plt>
   10ca0:	e51f06d8 	ldr	r0, [pc, #-1752]	; 105d0 <main+0x509c>
   10ca4:	ebffe231 	bl	9570 <printf@plt>
   10ca8:	e51f06dc 	ldr	r0, [pc, #-1756]	; 105d4 <main+0x50a0>
   10cac:	ebffe22f 	bl	9570 <printf@plt>
   10cb0:	e1a01004 	mov	r1, r4
   10cb4:	e51f06e4 	ldr	r0, [pc, #-1764]	; 105d8 <main+0x50a4>
   10cb8:	ebffe22c 	bl	9570 <printf@plt>
   10cbc:	e51f06e8 	ldr	r0, [pc, #-1768]	; 105dc <main+0x50a8>
   10cc0:	ebffe22a 	bl	9570 <printf@plt>
   10cc4:	ea000701 	b	128d0 <main+0x739c>
   10cc8:	e1a00005 	mov	r0, r5
   10ccc:	e51f16f4 	ldr	r1, [pc, #-1780]	; 105e0 <main+0x50ac>
   10cd0:	ebffe30d 	bl	990c <strcmp@plt>
   10cd4:	e3500000 	cmp	r0, #0
   10cd8:	1a000012 	bne	10d28 <main+0x57f4>
   10cdc:	e51f0700 	ldr	r0, [pc, #-1792]	; 105e4 <main+0x50b0>
   10ce0:	ebffe25e 	bl	9660 <system@plt>
   10ce4:	e28d4e12 	add	r4, sp, #288	; 0x120
   10ce8:	e3a0000c 	mov	r0, #12
   10cec:	ebffe267 	bl	9690 <sleep@plt>
   10cf0:	e2444098 	sub	r4, r4, #152	; 0x98
   10cf4:	e51f065c 	ldr	r0, [pc, #-1628]	; 106a0 <main+0x516c>
   10cf8:	ebffe255 	bl	9654 <puts@plt>
   10cfc:	e51f071c 	ldr	r0, [pc, #-1820]	; 105e8 <main+0x50b4>
   10d00:	e1a01004 	mov	r1, r4
   10d04:	ebffe23d 	bl	9600 <sncfg_get@plt>
   10d08:	e3500001 	cmp	r0, #1
   10d0c:	0a0006ef 	beq	128d0 <main+0x739c>
   10d10:	e5941000 	ldr	r1, [r4]
   10d14:	e3510000 	cmp	r1, #0
   10d18:	0a0006ec 	beq	128d0 <main+0x739c>
   10d1c:	e51f070c 	ldr	r0, [pc, #-1804]	; 10618 <main+0x50e4>
   10d20:	ebffe212 	bl	9570 <printf@plt>
   10d24:	ea0006e9 	b	128d0 <main+0x739c>
   10d28:	e1a00005 	mov	r0, r5
   10d2c:	e51f1748 	ldr	r1, [pc, #-1864]	; 105ec <main+0x50b8>
   10d30:	ebffe2f5 	bl	990c <strcmp@plt>
   10d34:	e3500000 	cmp	r0, #0
   10d38:	1a000003 	bne	10d4c <main+0x5818>
   10d3c:	e51f06a4 	ldr	r0, [pc, #-1700]	; 106a0 <main+0x516c>
   10d40:	ebffe243 	bl	9654 <puts@plt>
   10d44:	ebffe7b7 	bl	ac28 <print_signal>
   10d48:	ea0006e0 	b	128d0 <main+0x739c>
   10d4c:	e1a00005 	mov	r0, r5
   10d50:	e51f1768 	ldr	r1, [pc, #-1896]	; 105f0 <main+0x50bc>
   10d54:	ebffe2ec 	bl	990c <strcmp@plt>
   10d58:	e3500000 	cmp	r0, #0
   10d5c:	1a00003b 	bne	10e50 <main+0x591c>
   10d60:	e51f06c8 	ldr	r0, [pc, #-1736]	; 106a0 <main+0x516c>
   10d64:	ebffe23a 	bl	9654 <puts@plt>
   10d68:	e51f0704 	ldr	r0, [pc, #-1796]	; 1066c <main+0x5138>
   10d6c:	e51f16fc 	ldr	r1, [pc, #-1788]	; 10678 <main+0x5144>
   10d70:	ebffe2cd 	bl	98ac <fopen@plt>
   10d74:	e2505000 	subs	r5, r0, #0
   10d78:	1a000018 	bne	10de0 <main+0x58ac>
   10d7c:	e28d5c4a 	add	r5, sp, #18944	; 0x4a00
   10d80:	e2855020 	add	r5, r5, #32
   10d84:	e28d4e12 	add	r4, sp, #288	; 0x120
   10d88:	e2455050 	sub	r5, r5, #80	; 0x50
   10d8c:	e244409c 	sub	r4, r4, #156	; 0x9c
   10d90:	e2800001 	add	r0, r0, #1
   10d94:	e1a01005 	mov	r1, r5
   10d98:	e1a02004 	mov	r2, r4
   10d9c:	ebffe31f 	bl	9a20 <wmxapi_get_cert@plt>
   10da0:	e3700001 	cmn	r0, #1
   10da4:	1a00000a 	bne	10dd4 <main+0x58a0>
   10da8:	e1a01005 	mov	r1, r5
   10dac:	e1a02004 	mov	r2, r4
   10db0:	e2800002 	add	r0, r0, #2
   10db4:	ebffe319 	bl	9a20 <wmxapi_get_cert@plt>
   10db8:	e5941000 	ldr	r1, [r4]
   10dbc:	e51f07b8 	ldr	r0, [pc, #-1976]	; 1060c <main+0x50d8>
   10dc0:	ebffe1ea 	bl	9570 <printf@plt>
   10dc4:	e1a01005 	mov	r1, r5
   10dc8:	e51f07b8 	ldr	r0, [pc, #-1976]	; 10618 <main+0x50e4>
   10dcc:	ebffe1e7 	bl	9570 <printf@plt>
   10dd0:	ea0006be 	b	128d0 <main+0x739c>
   10dd4:	e51f07c8 	ldr	r0, [pc, #-1992]	; 10614 <main+0x50e0>
   10dd8:	ebffe1e4 	bl	9570 <printf@plt>
   10ddc:	ea0006bb 	b	128d0 <main+0x739c>
   10de0:	e28d4c4a 	add	r4, sp, #18944	; 0x4a00
   10de4:	e2844020 	add	r4, r4, #32
   10de8:	e24440a8 	sub	r4, r4, #168	; 0xa8
   10dec:	e1a01004 	mov	r1, r4
   10df0:	e51f078c 	ldr	r0, [pc, #-1932]	; 1066c <main+0x5138>
   10df4:	ebffe2d6 	bl	9954 <stat@plt>
   10df8:	e594102c 	ldr	r1, [r4, #44]	; 0x2c
   10dfc:	e51f07f8 	ldr	r0, [pc, #-2040]	; 1060c <main+0x50d8>
   10e00:	ea000004 	b	10e18 <main+0x58e4>
   10e04:	ebffe206 	bl	9624 <fgets@plt>
   10e08:	e3500000 	cmp	r0, #0
   10e0c:	e1a01004 	mov	r1, r4
   10e10:	e51f0800 	ldr	r0, [pc, #-2048]	; 10618 <main+0x50e4>
   10e14:	0a000000 	beq	10e1c <main+0x58e8>
   10e18:	ebffe1d4 	bl	9570 <printf@plt>
   10e1c:	e1a00005 	mov	r0, r5
   10e20:	ebffe211 	bl	966c <feof@plt>
   10e24:	e28d4c4a 	add	r4, sp, #18944	; 0x4a00
   10e28:	e2844020 	add	r4, r4, #32
   10e2c:	e2444050 	sub	r4, r4, #80	; 0x50
   10e30:	e3500000 	cmp	r0, #0
   10e34:	e3a01f7d 	mov	r1, #500	; 0x1f4
   10e38:	e1a02005 	mov	r2, r5
   10e3c:	e1a00004 	mov	r0, r4
   10e40:	0affffef 	beq	10e04 <main+0x58d0>
   10e44:	e1a00005 	mov	r0, r5
   10e48:	ebffe2a6 	bl	98e8 <fclose@plt>
   10e4c:	ea00069f 	b	128d0 <main+0x739c>
   10e50:	e1a00005 	mov	r0, r5
   10e54:	e51f1868 	ldr	r1, [pc, #-2152]	; 105f4 <main+0x50c0>
   10e58:	ebffe2ab 	bl	990c <strcmp@plt>
   10e5c:	e3500000 	cmp	r0, #0
   10e60:	1a00003a 	bne	10f50 <main+0x5a1c>
   10e64:	e51f07cc 	ldr	r0, [pc, #-1996]	; 106a0 <main+0x516c>
   10e68:	ebffe1f9 	bl	9654 <puts@plt>
   10e6c:	e51f0804 	ldr	r0, [pc, #-2052]	; 10670 <main+0x513c>
   10e70:	e51f1800 	ldr	r1, [pc, #-2048]	; 10678 <main+0x5144>
   10e74:	ebffe28c 	bl	98ac <fopen@plt>
   10e78:	e2506000 	subs	r6, r0, #0
   10e7c:	1a000017 	bne	10ee0 <main+0x59ac>
   10e80:	e28d5b12 	add	r5, sp, #18432	; 0x4800
   10e84:	e2855020 	add	r5, r5, #32
   10e88:	e28d4e12 	add	r4, sp, #288	; 0x120
   10e8c:	e245509c 	sub	r5, r5, #156	; 0x9c
   10e90:	e24440a0 	sub	r4, r4, #160	; 0xa0
   10e94:	e1a01005 	mov	r1, r5
   10e98:	e1a02004 	mov	r2, r4
   10e9c:	ebffe2df 	bl	9a20 <wmxapi_get_cert@plt>
   10ea0:	e3700001 	cmn	r0, #1
   10ea4:	1a00000a 	bne	10ed4 <main+0x59a0>
   10ea8:	e1a01005 	mov	r1, r5
   10eac:	e1a02004 	mov	r2, r4
   10eb0:	e1a00006 	mov	r0, r6
   10eb4:	ebffe2d9 	bl	9a20 <wmxapi_get_cert@plt>
   10eb8:	e5941000 	ldr	r1, [r4]
   10ebc:	e51f08b8 	ldr	r0, [pc, #-2232]	; 1060c <main+0x50d8>
   10ec0:	ebffe1aa 	bl	9570 <printf@plt>
   10ec4:	e1a01005 	mov	r1, r5
   10ec8:	e51f08b8 	ldr	r0, [pc, #-2232]	; 10618 <main+0x50e4>
   10ecc:	ebffe1a7 	bl	9570 <printf@plt>
   10ed0:	ea00067e 	b	128d0 <main+0x739c>
   10ed4:	e51f08c8 	ldr	r0, [pc, #-2248]	; 10614 <main+0x50e0>
   10ed8:	ebffe1a4 	bl	9570 <printf@plt>
   10edc:	ea00067b 	b	128d0 <main+0x739c>
   10ee0:	e28d4b12 	add	r4, sp, #18432	; 0x4800
   10ee4:	e2844020 	add	r4, r4, #32
   10ee8:	e24440f4 	sub	r4, r4, #244	; 0xf4
   10eec:	e1a01004 	mov	r1, r4
   10ef0:	e51f0888 	ldr	r0, [pc, #-2184]	; 10670 <main+0x513c>
   10ef4:	ebffe296 	bl	9954 <stat@plt>
   10ef8:	e594102c 	ldr	r1, [r4, #44]	; 0x2c
   10efc:	e51f08f8 	ldr	r0, [pc, #-2296]	; 1060c <main+0x50d8>
   10f00:	ea000004 	b	10f18 <main+0x59e4>
   10f04:	ebffe1c6 	bl	9624 <fgets@plt>
   10f08:	e3500000 	cmp	r0, #0
   10f0c:	e1a01004 	mov	r1, r4
   10f10:	e51f0900 	ldr	r0, [pc, #-2304]	; 10618 <main+0x50e4>
   10f14:	0a000000 	beq	10f1c <main+0x59e8>
   10f18:	ebffe194 	bl	9570 <printf@plt>
   10f1c:	e1a00006 	mov	r0, r6
   10f20:	ebffe1d1 	bl	966c <feof@plt>
   10f24:	e28d4b12 	add	r4, sp, #18432	; 0x4800
   10f28:	e2844020 	add	r4, r4, #32
   10f2c:	e244409c 	sub	r4, r4, #156	; 0x9c
   10f30:	e3500000 	cmp	r0, #0
   10f34:	e3a01f7d 	mov	r1, #500	; 0x1f4
   10f38:	e1a02006 	mov	r2, r6
   10f3c:	e1a00004 	mov	r0, r4
   10f40:	0affffef 	beq	10f04 <main+0x59d0>
   10f44:	e1a00006 	mov	r0, r6
   10f48:	ebffe266 	bl	98e8 <fclose@plt>
   10f4c:	ea00065f 	b	128d0 <main+0x739c>
   10f50:	e1a00005 	mov	r0, r5
   10f54:	e51f1964 	ldr	r1, [pc, #-2404]	; 105f8 <main+0x50c4>
   10f58:	ebffe26b 	bl	990c <strcmp@plt>
   10f5c:	e3500000 	cmp	r0, #0
   10f60:	1a000024 	bne	10ff8 <main+0x5ac4>
   10f64:	e28d4c45 	add	r4, sp, #17664	; 0x4500
   10f68:	e2844020 	add	r4, r4, #32
   10f6c:	e2444040 	sub	r4, r4, #64	; 0x40
   10f70:	e1a01004 	mov	r1, r4
   10f74:	e51f0908 	ldr	r0, [pc, #-2312]	; 10674 <main+0x5140>
   10f78:	ebffe275 	bl	9954 <stat@plt>
   10f7c:	e51f08e4 	ldr	r0, [pc, #-2276]	; 106a0 <main+0x516c>
   10f80:	ebffe1b3 	bl	9654 <puts@plt>
   10f84:	e594102c 	ldr	r1, [r4, #44]	; 0x2c
   10f88:	e51f0994 	ldr	r0, [pc, #-2452]	; 105fc <main+0x50c8>
   10f8c:	ebffe177 	bl	9570 <printf@plt>
   10f90:	e51f0924 	ldr	r0, [pc, #-2340]	; 10674 <main+0x5140>
   10f94:	e51f1924 	ldr	r1, [pc, #-2340]	; 10678 <main+0x5144>
   10f98:	ebffe243 	bl	98ac <fopen@plt>
   10f9c:	e2505000 	subs	r5, r0, #0
   10fa0:	1a000007 	bne	10fc4 <main+0x5a90>
   10fa4:	e51f0998 	ldr	r0, [pc, #-2456]	; 10614 <main+0x50e0>
   10fa8:	ebffe170 	bl	9570 <printf@plt>
   10fac:	ea00000e 	b	10fec <main+0x5ab8>
   10fb0:	ebffe19b 	bl	9624 <fgets@plt>
   10fb4:	e3500000 	cmp	r0, #0
   10fb8:	e1a01004 	mov	r1, r4
   10fbc:	e51f09ac 	ldr	r0, [pc, #-2476]	; 10618 <main+0x50e4>
   10fc0:	1bffe16a 	blne	9570 <printf@plt>
   10fc4:	e1a00005 	mov	r0, r5
   10fc8:	ebffe1a7 	bl	966c <feof@plt>
   10fcc:	e28d4c46 	add	r4, sp, #17920	; 0x4600
   10fd0:	e2844020 	add	r4, r4, #32
   10fd4:	e24440e8 	sub	r4, r4, #232	; 0xe8
   10fd8:	e3500000 	cmp	r0, #0
   10fdc:	e3a01f7d 	mov	r1, #500	; 0x1f4
   10fe0:	e1a02005 	mov	r2, r5
   10fe4:	e1a00004 	mov	r0, r4
   10fe8:	0afffff0 	beq	10fb0 <main+0x5a7c>
   10fec:	e1a00005 	mov	r0, r5
   10ff0:	ebffe23c 	bl	98e8 <fclose@plt>
   10ff4:	ea000635 	b	128d0 <main+0x739c>
   10ff8:	e1a00005 	mov	r0, r5
   10ffc:	e51f1a04 	ldr	r1, [pc, #-2564]	; 10600 <main+0x50cc>
   11000:	ebffe241 	bl	990c <strcmp@plt>
   11004:	e3500000 	cmp	r0, #0
   11008:	1a000024 	bne	110a0 <main+0x5b6c>
   1100c:	e28d4c43 	add	r4, sp, #17152	; 0x4300
   11010:	e2844020 	add	r4, r4, #32
   11014:	e244408c 	sub	r4, r4, #140	; 0x8c
   11018:	e1a01004 	mov	r1, r4
   1101c:	e51f0a20 	ldr	r0, [pc, #-2592]	; 10604 <main+0x50d0>
   11020:	ebffe24b 	bl	9954 <stat@plt>
   11024:	e51f098c 	ldr	r0, [pc, #-2444]	; 106a0 <main+0x516c>
   11028:	ebffe189 	bl	9654 <puts@plt>
   1102c:	e594102c 	ldr	r1, [r4, #44]	; 0x2c
   11030:	e51f0a2c 	ldr	r0, [pc, #-2604]	; 1060c <main+0x50d8>
   11034:	ebffe14d 	bl	9570 <printf@plt>
   11038:	e51f0a3c 	ldr	r0, [pc, #-2620]	; 10604 <main+0x50d0>
   1103c:	e51f19cc 	ldr	r1, [pc, #-2508]	; 10678 <main+0x5144>
   11040:	ebffe219 	bl	98ac <fopen@plt>
   11044:	e2505000 	subs	r5, r0, #0
   11048:	1a000007 	bne	1106c <main+0x5b38>
   1104c:	e51f0a40 	ldr	r0, [pc, #-2624]	; 10614 <main+0x50e0>
   11050:	ebffe146 	bl	9570 <printf@plt>
   11054:	ea00000e 	b	11094 <main+0x5b60>
   11058:	ebffe171 	bl	9624 <fgets@plt>
   1105c:	e3500000 	cmp	r0, #0
   11060:	e1a01004 	mov	r1, r4
   11064:	e51f0a54 	ldr	r0, [pc, #-2644]	; 10618 <main+0x50e4>
   11068:	1bffe140 	blne	9570 <printf@plt>
   1106c:	e1a00005 	mov	r0, r5
   11070:	ebffe17d 	bl	966c <feof@plt>
   11074:	e28d4c43 	add	r4, sp, #17152	; 0x4300
   11078:	e2844020 	add	r4, r4, #32
   1107c:	e2444034 	sub	r4, r4, #52	; 0x34
   11080:	e3500000 	cmp	r0, #0
   11084:	e3a01f7d 	mov	r1, #500	; 0x1f4
   11088:	e1a02005 	mov	r2, r5
   1108c:	e1a00004 	mov	r0, r4
   11090:	0afffff0 	beq	11058 <main+0x5b24>
   11094:	e1a00005 	mov	r0, r5
   11098:	ebffe212 	bl	98e8 <fclose@plt>
   1109c:	ea00060b 	b	128d0 <main+0x739c>
   110a0:	e1a00005 	mov	r0, r5
   110a4:	e51f1aa4 	ldr	r1, [pc, #-2724]	; 10608 <main+0x50d4>
   110a8:	ebffe217 	bl	990c <strcmp@plt>
   110ac:	e3500000 	cmp	r0, #0
   110b0:	1a000024 	bne	11148 <main+0x5c14>
   110b4:	e28d4c41 	add	r4, sp, #16640	; 0x4100
   110b8:	e2844020 	add	r4, r4, #32
   110bc:	e24440d8 	sub	r4, r4, #216	; 0xd8
   110c0:	e1a01004 	mov	r1, r4
   110c4:	e51f0abc 	ldr	r0, [pc, #-2748]	; 10610 <main+0x50dc>
   110c8:	ebffe221 	bl	9954 <stat@plt>
   110cc:	e51f0a34 	ldr	r0, [pc, #-2612]	; 106a0 <main+0x516c>
   110d0:	ebffe15f 	bl	9654 <puts@plt>
   110d4:	e594102c 	ldr	r1, [r4, #44]	; 0x2c
   110d8:	e51f0ad4 	ldr	r0, [pc, #-2772]	; 1060c <main+0x50d8>
   110dc:	ebffe123 	bl	9570 <printf@plt>
   110e0:	e51f0ad8 	ldr	r0, [pc, #-2776]	; 10610 <main+0x50dc>
   110e4:	e51f1a74 	ldr	r1, [pc, #-2676]	; 10678 <main+0x5144>
   110e8:	ebffe1ef 	bl	98ac <fopen@plt>
   110ec:	e2505000 	subs	r5, r0, #0
   110f0:	1a000007 	bne	11114 <main+0x5be0>
   110f4:	e51f0ae8 	ldr	r0, [pc, #-2792]	; 10614 <main+0x50e0>
   110f8:	ebffe11c 	bl	9570 <printf@plt>
   110fc:	ea00000e 	b	1113c <main+0x5c08>
   11100:	ebffe147 	bl	9624 <fgets@plt>
   11104:	e3500000 	cmp	r0, #0
   11108:	e1a01004 	mov	r1, r4
   1110c:	e51f0afc 	ldr	r0, [pc, #-2812]	; 10618 <main+0x50e4>
   11110:	1bffe116 	blne	9570 <printf@plt>
   11114:	e1a00005 	mov	r0, r5
   11118:	ebffe153 	bl	966c <feof@plt>
   1111c:	e28d4c41 	add	r4, sp, #16640	; 0x4100
   11120:	e2844020 	add	r4, r4, #32
   11124:	e2444080 	sub	r4, r4, #128	; 0x80
   11128:	e3500000 	cmp	r0, #0
   1112c:	e3a01f7d 	mov	r1, #500	; 0x1f4
   11130:	e1a02005 	mov	r2, r5
   11134:	e1a00004 	mov	r0, r4
   11138:	0afffff0 	beq	11100 <main+0x5bcc>
   1113c:	e1a00005 	mov	r0, r5
   11140:	ebffe1e8 	bl	98e8 <fclose@plt>
   11144:	ea0005e1 	b	128d0 <main+0x739c>
   11148:	e1a00005 	mov	r0, r5
   1114c:	e51f1b38 	ldr	r1, [pc, #-2872]	; 1061c <main+0x50e8>
   11150:	ebffe1ed 	bl	990c <strcmp@plt>
   11154:	e3500000 	cmp	r0, #0
   11158:	1a000009 	bne	11184 <main+0x5c50>
   1115c:	e51f0ac4 	ldr	r0, [pc, #-2756]	; 106a0 <main+0x516c>
   11160:	ebffe13b 	bl	9654 <puts@plt>
   11164:	e51f2b4c 	ldr	r2, [pc, #-2892]	; 10620 <main+0x50ec>
   11168:	e28d3e12 	add	r3, sp, #288	; 0x120
   1116c:	e8920030 	ldm	r2, {r4, r5}
   11170:	e24330a8 	sub	r3, r3, #168	; 0xa8
   11174:	e1a00003 	mov	r0, r3
   11178:	e8830030 	stm	r3, {r4, r5}
   1117c:	ebffe762 	bl	af0c <print_init_value>
   11180:	ea0005d2 	b	128d0 <main+0x739c>
   11184:	e1a00005 	mov	r0, r5
   11188:	e51f1b6c 	ldr	r1, [pc, #-2924]	; 10624 <main+0x50f0>
   1118c:	ebffe1de 	bl	990c <strcmp@plt>
   11190:	e2506000 	subs	r6, r0, #0
   11194:	1a00000e 	bne	111d4 <main+0x5ca0>
   11198:	e28d4e12 	add	r4, sp, #288	; 0x120
   1119c:	e24440b0 	sub	r4, r4, #176	; 0xb0
   111a0:	e51f0b08 	ldr	r0, [pc, #-2824]	; 106a0 <main+0x516c>
   111a4:	ebffe12a 	bl	9654 <puts@plt>
   111a8:	e1a00004 	mov	r0, r4
   111ac:	e5846004 	str	r6, [r4, #4]
   111b0:	e5846000 	str	r6, [r4]
   111b4:	ebffe1ef 	bl	9978 <wmxapi_widescan_progress@plt>
   111b8:	e3700001 	cmn	r0, #1
   111bc:	0a0005c3 	beq	128d0 <main+0x739c>
   111c0:	e5942000 	ldr	r2, [r4]
   111c4:	e5941004 	ldr	r1, [r4, #4]
   111c8:	e51f0ba8 	ldr	r0, [pc, #-2984]	; 10628 <main+0x50f4>
   111cc:	ebffe0e7 	bl	9570 <printf@plt>
   111d0:	ea0005be 	b	128d0 <main+0x739c>
   111d4:	e1a00005 	mov	r0, r5
   111d8:	e51f1bb4 	ldr	r1, [pc, #-2996]	; 1062c <main+0x50f8>
   111dc:	ebffe1ca 	bl	990c <strcmp@plt>
   111e0:	e3500000 	cmp	r0, #0
   111e4:	1a000005 	bne	11200 <main+0x5ccc>
   111e8:	e51f0b50 	ldr	r0, [pc, #-2896]	; 106a0 <main+0x516c>
   111ec:	ebffe118 	bl	9654 <puts@plt>
   111f0:	ebffe15c 	bl	9768 <wmxapi_start_widescan_by_key@plt>
   111f4:	e51f0bcc 	ldr	r0, [pc, #-3020]	; 10630 <main+0x50fc>
   111f8:	ebffe0dc 	bl	9570 <printf@plt>
   111fc:	ea0005b3 	b	128d0 <main+0x739c>
   11200:	e1a00005 	mov	r0, r5
   11204:	e51f1bd8 	ldr	r1, [pc, #-3032]	; 10634 <main+0x5100>
   11208:	ebffe1bf 	bl	990c <strcmp@plt>
   1120c:	e3500000 	cmp	r0, #0
   11210:	1a000015 	bne	1126c <main+0x5d38>
   11214:	e51f0b7c 	ldr	r0, [pc, #-2940]	; 106a0 <main+0x516c>
   11218:	e28d4e12 	add	r4, sp, #288	; 0x120
   1121c:	ebffe10c 	bl	9654 <puts@plt>
   11220:	e24440b4 	sub	r4, r4, #180	; 0xb4
   11224:	ebffe7ce 	bl	b164 <tag_scanner_config>
   11228:	e3a0003b 	mov	r0, #59	; 0x3b
   1122c:	ebffe0c3 	bl	9540 <putchar@plt>
   11230:	ebffe750 	bl	af78 <tag_visible_network_list>
   11234:	e51f0bfc 	ldr	r0, [pc, #-3068]	; 10640 <main+0x510c>
   11238:	e1a01004 	mov	r1, r4
   1123c:	ebffe0ef 	bl	9600 <sncfg_get@plt>
   11240:	e3500001 	cmp	r0, #1
   11244:	0a000002 	beq	11254 <main+0x5d20>
   11248:	e5941000 	ldr	r1, [r4]
   1124c:	e3510000 	cmp	r1, #0
   11250:	1a000002 	bne	11260 <main+0x5d2c>
   11254:	e51f0be0 	ldr	r0, [pc, #-3040]	; 1067c <main+0x5148>
   11258:	ebffe0c4 	bl	9570 <printf@plt>
   1125c:	ea00059b 	b	128d0 <main+0x739c>
   11260:	e51f0c18 	ldr	r0, [pc, #-3096]	; 10650 <main+0x511c>
   11264:	ebffe0c1 	bl	9570 <printf@plt>
   11268:	ea000598 	b	128d0 <main+0x739c>
   1126c:	e1a00005 	mov	r0, r5
   11270:	e51f1c40 	ldr	r1, [pc, #-3136]	; 10638 <main+0x5104>
   11274:	ebffe1a4 	bl	990c <strcmp@plt>
   11278:	e3500000 	cmp	r0, #0
   1127c:	1a000021 	bne	11308 <main+0x5dd4>
   11280:	e51f0be8 	ldr	r0, [pc, #-3048]	; 106a0 <main+0x516c>
   11284:	ebffe0f2 	bl	9654 <puts@plt>
   11288:	e51fec54 	ldr	lr, [pc, #-3156]	; 1063c <main+0x5108>
   1128c:	e28dcc41 	add	ip, sp, #16640	; 0x4100
   11290:	e1a0400e 	mov	r4, lr
   11294:	e8b4000f 	ldm	r4!, {r0, r1, r2, r3}
   11298:	e28cc020 	add	ip, ip, #32
   1129c:	e24cc0ec 	sub	ip, ip, #236	; 0xec
   112a0:	e8ac000f 	stmia	ip!, {r0, r1, r2, r3}
   112a4:	e59e3010 	ldr	r3, [lr, #16]
   112a8:	e28d0c41 	add	r0, sp, #16640	; 0x4100
   112ac:	e2800020 	add	r0, r0, #32
   112b0:	e58c3000 	str	r3, [ip]
   112b4:	e24000ec 	sub	r0, r0, #236	; 0xec
   112b8:	e28d4e12 	add	r4, sp, #288	; 0x120
   112bc:	ebffe712 	bl	af0c <print_init_value>
   112c0:	e24440b8 	sub	r4, r4, #184	; 0xb8
   112c4:	e3a0003b 	mov	r0, #59	; 0x3b
   112c8:	ebffe09c 	bl	9540 <putchar@plt>
   112cc:	ebffe729 	bl	af78 <tag_visible_network_list>
   112d0:	e51f0c98 	ldr	r0, [pc, #-3224]	; 10640 <main+0x510c>
   112d4:	e1a01004 	mov	r1, r4
   112d8:	ebffe0c8 	bl	9600 <sncfg_get@plt>
   112dc:	e3500001 	cmp	r0, #1
   112e0:	0a000002 	beq	112f0 <main+0x5dbc>
   112e4:	e5941000 	ldr	r1, [r4]
   112e8:	e3510000 	cmp	r1, #0
   112ec:	1a000002 	bne	112fc <main+0x5dc8>
   112f0:	e51f0c7c 	ldr	r0, [pc, #-3196]	; 1067c <main+0x5148>
   112f4:	ebffe09d 	bl	9570 <printf@plt>
   112f8:	ea000574 	b	128d0 <main+0x739c>
   112fc:	e51f0cb4 	ldr	r0, [pc, #-3252]	; 10650 <main+0x511c>
   11300:	ebffe09a 	bl	9570 <printf@plt>
   11304:	ea000571 	b	128d0 <main+0x739c>
   11308:	e1a00005 	mov	r0, r5
   1130c:	e51f1cd0 	ldr	r1, [pc, #-3280]	; 10644 <main+0x5110>
   11310:	ebffe17d 	bl	990c <strcmp@plt>
   11314:	e3500000 	cmp	r0, #0
   11318:	1a000003 	bne	1132c <main+0x5df8>
   1131c:	e51f0c84 	ldr	r0, [pc, #-3204]	; 106a0 <main+0x516c>
   11320:	ebffe0cb 	bl	9654 <puts@plt>
   11324:	ebffe78e 	bl	b164 <tag_scanner_config>
   11328:	ea000568 	b	128d0 <main+0x739c>
   1132c:	e1a00005 	mov	r0, r5
   11330:	e51f1cf0 	ldr	r1, [pc, #-3312]	; 10648 <main+0x5114>
   11334:	ebffe174 	bl	990c <strcmp@plt>
   11338:	e2506000 	subs	r6, r0, #0
   1133c:	1a00001d 	bne	113b8 <main+0x5e84>
   11340:	e51f0ca8 	ldr	r0, [pc, #-3240]	; 106a0 <main+0x516c>
   11344:	ebffe0c2 	bl	9654 <puts@plt>
   11348:	e51fed04 	ldr	lr, [pc, #-3332]	; 1064c <main+0x5118>
   1134c:	e1a0c00e 	mov	ip, lr
   11350:	e8bc000f 	ldm	ip!, {r0, r1, r2, r3}
   11354:	e28dc901 	add	ip, sp, #16384	; 0x4000
   11358:	e28cc020 	add	ip, ip, #32
   1135c:	e8ac000f 	stmia	ip!, {r0, r1, r2, r3}
   11360:	e59e3010 	ldr	r3, [lr, #16]
   11364:	e28d0901 	add	r0, sp, #16384	; 0x4000
   11368:	e2800020 	add	r0, r0, #32
   1136c:	e58c3000 	str	r3, [ip]
   11370:	e1a05000 	mov	r5, r0
   11374:	e28d4e12 	add	r4, sp, #288	; 0x120
   11378:	ebffe6e3 	bl	af0c <print_init_value>
   1137c:	e2455080 	sub	r5, r5, #128	; 0x80
   11380:	e3a03080 	mov	r3, #128	; 0x80
   11384:	e24440bc 	sub	r4, r4, #188	; 0xbc
   11388:	e1a01006 	mov	r1, r6
   1138c:	e1a02003 	mov	r2, r3
   11390:	e5843000 	str	r3, [r4]
   11394:	e1a00005 	mov	r0, r5
   11398:	ebffe149 	bl	98c4 <memset@plt>
   1139c:	e1a01004 	mov	r1, r4
   113a0:	e1a00005 	mov	r0, r5
   113a4:	ebffe0d1 	bl	96f0 <wmxapi_get_customer_info@plt>
   113a8:	e1a01005 	mov	r1, r5
   113ac:	e51f0d64 	ldr	r0, [pc, #-3428]	; 10650 <main+0x511c>
   113b0:	ebffe06e 	bl	9570 <printf@plt>
   113b4:	ea000545 	b	128d0 <main+0x739c>
   113b8:	e1a00005 	mov	r0, r5
   113bc:	e51f1d70 	ldr	r1, [pc, #-3440]	; 10654 <main+0x5120>
   113c0:	ebffe151 	bl	990c <strcmp@plt>
   113c4:	e3500000 	cmp	r0, #0
   113c8:	1a000020 	bne	11450 <main+0x5f1c>
   113cc:	e51f0d34 	ldr	r0, [pc, #-3380]	; 106a0 <main+0x516c>
   113d0:	ebffe09f 	bl	9654 <puts@plt>
   113d4:	e51fed84 	ldr	lr, [pc, #-3460]	; 10658 <main+0x5124>
   113d8:	e28dc901 	add	ip, sp, #16384	; 0x4000
   113dc:	e1a0400e 	mov	r4, lr
   113e0:	e8b4000f 	ldm	r4!, {r0, r1, r2, r3}
   113e4:	e28cc020 	add	ip, ip, #32
   113e8:	e24cc094 	sub	ip, ip, #148	; 0x94
   113ec:	e8ac000f 	stmia	ip!, {r0, r1, r2, r3}
   113f0:	e59e3010 	ldr	r3, [lr, #16]
   113f4:	e28d0901 	add	r0, sp, #16384	; 0x4000
   113f8:	e28d4e12 	add	r4, sp, #288	; 0x120
   113fc:	e2800020 	add	r0, r0, #32
   11400:	e58c3000 	str	r3, [ip]
   11404:	e24440c0 	sub	r4, r4, #192	; 0xc0
   11408:	e2400094 	sub	r0, r0, #148	; 0x94
   1140c:	ebffe6be 	bl	af0c <print_init_value>
   11410:	e1a00004 	mov	r0, r4
   11414:	ebffe139 	bl	9900 <time@plt>
   11418:	e1a00004 	mov	r0, r4
   1141c:	ebffe125 	bl	98b8 <localtime@plt>
   11420:	e28d4901 	add	r4, sp, #16384	; 0x4000
   11424:	e2844020 	add	r4, r4, #32
   11428:	e24440e4 	sub	r4, r4, #228	; 0xe4
   1142c:	e1a03000 	mov	r3, r0
   11430:	e3a01050 	mov	r1, #80	; 0x50
   11434:	e1a00004 	mov	r0, r4
   11438:	e51f2de4 	ldr	r2, [pc, #-3556]	; 1065c <main+0x5128>
   1143c:	ebffe141 	bl	9948 <strftime@plt>
   11440:	e1a01004 	mov	r1, r4
   11444:	e51f0dec 	ldr	r0, [pc, #-3564]	; 10660 <main+0x512c>
   11448:	ebffe048 	bl	9570 <printf@plt>
   1144c:	ea00051f 	b	128d0 <main+0x739c>
   11450:	e1a00005 	mov	r0, r5
   11454:	e51f1df8 	ldr	r1, [pc, #-3576]	; 10664 <main+0x5130>
   11458:	ebffe12b 	bl	990c <strcmp@plt>
   1145c:	e3500000 	cmp	r0, #0
   11460:	1a000047 	bne	11584 <main+0x6050>
   11464:	e51f0dcc 	ldr	r0, [pc, #-3532]	; 106a0 <main+0x516c>
   11468:	ebffe079 	bl	9654 <puts@plt>
   1146c:	e51f3e0c 	ldr	r3, [pc, #-3596]	; 10668 <main+0x5134>
   11470:	e28dcc3f 	add	ip, sp, #16128	; 0x3f00
   11474:	e1a0e003 	mov	lr, r3
   11478:	e8be000f 	ldm	lr!, {r0, r1, r2, r3}
   1147c:	e28cc020 	add	ip, ip, #32
   11480:	e24cc018 	sub	ip, ip, #24
   11484:	e8ac000f 	stmia	ip!, {r0, r1, r2, r3}
   11488:	e8be000f 	ldm	lr!, {r0, r1, r2, r3}
   1148c:	e8ac000f 	stmia	ip!, {r0, r1, r2, r3}
   11490:	e8be000f 	ldm	lr!, {r0, r1, r2, r3}
   11494:	e8ac000f 	stmia	ip!, {r0, r1, r2, r3}
   11498:	e59e3000 	ldr	r3, [lr]
   1149c:	e28d0c3f 	add	r0, sp, #16128	; 0x3f00
   114a0:	e2800020 	add	r0, r0, #32
   114a4:	e2400018 	sub	r0, r0, #24
   114a8:	e58c3000 	str	r3, [ip]
   114ac:	ebffe696 	bl	af0c <print_init_value>
   114b0:	e51f0e4c 	ldr	r0, [pc, #-3660]	; 1066c <main+0x5138>
   114b4:	e51f1e44 	ldr	r1, [pc, #-3652]	; 10678 <main+0x5144>
   114b8:	ebffe0fb 	bl	98ac <fopen@plt>
   114bc:	e2504000 	subs	r4, r0, #0
   114c0:	1a00000b 	bne	114f4 <main+0x5fc0>
   114c4:	e28d1c3d 	add	r1, sp, #15616	; 0x3d00
   114c8:	e28d2e12 	add	r2, sp, #288	; 0x120
   114cc:	e2811020 	add	r1, r1, #32
   114d0:	e241100c 	sub	r1, r1, #12
   114d4:	e24220c4 	sub	r2, r2, #196	; 0xc4
   114d8:	e2800001 	add	r0, r0, #1
   114dc:	ebffe14f 	bl	9a20 <wmxapi_get_cert@plt>
   114e0:	e3700001 	cmn	r0, #1
   114e4:	051f0e6c 	ldreq	r0, [pc, #-3692]	; 10680 <main+0x514c>
   114e8:	151f0e74 	ldrne	r0, [pc, #-3700]	; 1067c <main+0x5148>
   114ec:	ebffe01f 	bl	9570 <printf@plt>
   114f0:	ea000003 	b	11504 <main+0x5fd0>
   114f4:	e51f0e7c 	ldr	r0, [pc, #-3708]	; 10680 <main+0x514c>
   114f8:	ebffe01c 	bl	9570 <printf@plt>
   114fc:	e1a00004 	mov	r0, r4
   11500:	ebffe0f8 	bl	98e8 <fclose@plt>
   11504:	e51f0e9c 	ldr	r0, [pc, #-3740]	; 10670 <main+0x513c>
   11508:	e51f1e98 	ldr	r1, [pc, #-3736]	; 10678 <main+0x5144>
   1150c:	ebffe0e6 	bl	98ac <fopen@plt>
   11510:	e2504000 	subs	r4, r0, #0
   11514:	1a000009 	bne	11540 <main+0x600c>
   11518:	e28d2e12 	add	r2, sp, #288	; 0x120
   1151c:	e28d1c3b 	add	r1, sp, #15104	; 0x3b00
   11520:	e24220c8 	sub	r2, r2, #200	; 0xc8
   11524:	e2811020 	add	r1, r1, #32
   11528:	ebffe13c 	bl	9a20 <wmxapi_get_cert@plt>
   1152c:	e3700001 	cmn	r0, #1
   11530:	051f0eb8 	ldreq	r0, [pc, #-3768]	; 10680 <main+0x514c>
   11534:	151f0ec0 	ldrne	r0, [pc, #-3776]	; 1067c <main+0x5148>
   11538:	ebffe00c 	bl	9570 <printf@plt>
   1153c:	ea000003 	b	11550 <main+0x601c>
   11540:	e51f0ec8 	ldr	r0, [pc, #-3784]	; 10680 <main+0x514c>
   11544:	ebffe009 	bl	9570 <printf@plt>
   11548:	e1a00004 	mov	r0, r4
   1154c:	ebffe0e5 	bl	98e8 <fclose@plt>
   11550:	e51f0ee4 	ldr	r0, [pc, #-3812]	; 10674 <main+0x5140>
   11554:	e51f1ee4 	ldr	r1, [pc, #-3812]	; 10678 <main+0x5144>
   11558:	ebffe0d3 	bl	98ac <fopen@plt>
   1155c:	e2504000 	subs	r4, r0, #0
   11560:	1a000002 	bne	11570 <main+0x603c>
   11564:	e51f0ef0 	ldr	r0, [pc, #-3824]	; 1067c <main+0x5148>
   11568:	ebffe000 	bl	9570 <printf@plt>
   1156c:	ea0004d7 	b	128d0 <main+0x739c>
   11570:	e51f0ef8 	ldr	r0, [pc, #-3832]	; 10680 <main+0x514c>
   11574:	ebffdffd 	bl	9570 <printf@plt>
   11578:	e1a00004 	mov	r0, r4
   1157c:	ebffe0d9 	bl	98e8 <fclose@plt>
   11580:	ea0004d2 	b	128d0 <main+0x739c>
   11584:	e1a00005 	mov	r0, r5
   11588:	e51f1f0c 	ldr	r1, [pc, #-3852]	; 10684 <main+0x5150>
   1158c:	ebffe0de 	bl	990c <strcmp@plt>
   11590:	e3500000 	cmp	r0, #0
   11594:	1a00000b 	bne	115c8 <main+0x6094>
   11598:	e28d4c3b 	add	r4, sp, #15104	; 0x3b00
   1159c:	e2844020 	add	r4, r4, #32
   115a0:	e24440d8 	sub	r4, r4, #216	; 0xd8
   115a4:	e51f0f0c 	ldr	r0, [pc, #-3852]	; 106a0 <main+0x516c>
   115a8:	ebffe029 	bl	9654 <puts@plt>
   115ac:	e1a00004 	mov	r0, r4
   115b0:	e51f1f30 	ldr	r1, [pc, #-3888]	; 10688 <main+0x5154>
   115b4:	e3a020d8 	mov	r2, #216	; 0xd8
   115b8:	ebffe01f 	bl	963c <memcpy@plt>
   115bc:	e1a00004 	mov	r0, r4
   115c0:	ebffe651 	bl	af0c <print_init_value>
   115c4:	ea0004c1 	b	128d0 <main+0x739c>
   115c8:	e1a00005 	mov	r0, r5
   115cc:	e51f1f48 	ldr	r1, [pc, #-3912]	; 1068c <main+0x5158>
   115d0:	ebffe0cd 	bl	990c <strcmp@plt>
   115d4:	e3500000 	cmp	r0, #0
   115d8:	1a000011 	bne	11624 <main+0x60f0>
   115dc:	e51f0f44 	ldr	r0, [pc, #-3908]	; 106a0 <main+0x516c>
   115e0:	ebffe01b 	bl	9654 <puts@plt>
   115e4:	e51f3f5c 	ldr	r3, [pc, #-3932]	; 10690 <main+0x515c>
   115e8:	e28dcc3a 	add	ip, sp, #14848	; 0x3a00
   115ec:	e1a0e003 	mov	lr, r3
   115f0:	e8be000f 	ldm	lr!, {r0, r1, r2, r3}
   115f4:	e28cc020 	add	ip, ip, #32
   115f8:	e24cc008 	sub	ip, ip, #8
   115fc:	e8ac000f 	stmia	ip!, {r0, r1, r2, r3}
   11600:	e8be000f 	ldm	lr!, {r0, r1, r2, r3}
   11604:	e8ac000f 	stmia	ip!, {r0, r1, r2, r3}
   11608:	e89e000f 	ldm	lr, {r0, r1, r2, r3}
   1160c:	e88c000f 	stm	ip, {r0, r1, r2, r3}
   11610:	e28d0c3a 	add	r0, sp, #14848	; 0x3a00
   11614:	e2800020 	add	r0, r0, #32
   11618:	e2400008 	sub	r0, r0, #8
   1161c:	ebffe63a 	bl	af0c <print_init_value>
   11620:	ea0004aa 	b	128d0 <main+0x739c>
   11624:	e1a00005 	mov	r0, r5
   11628:	e51f1f9c 	ldr	r1, [pc, #-3996]	; 10694 <main+0x5160>
   1162c:	ebffe0b6 	bl	990c <strcmp@plt>
   11630:	e3500000 	cmp	r0, #0
   11634:	1a00000a 	bne	11664 <main+0x6130>
   11638:	e51f0fa0 	ldr	r0, [pc, #-4000]	; 106a0 <main+0x516c>
   1163c:	ebffe004 	bl	9654 <puts@plt>
   11640:	e51f3fb0 	ldr	r3, [pc, #-4016]	; 10698 <main+0x5164>
   11644:	e28dcc3a 	add	ip, sp, #14848	; 0x3a00
   11648:	e8930007 	ldm	r3, {r0, r1, r2}
   1164c:	e28cc020 	add	ip, ip, #32
   11650:	e24cc014 	sub	ip, ip, #20
   11654:	e88c0007 	stm	ip, {r0, r1, r2}
   11658:	e1a0000c 	mov	r0, ip
   1165c:	ebffe62a 	bl	af0c <print_init_value>
   11660:	ea00049a 	b	128d0 <main+0x739c>
   11664:	e1a00005 	mov	r0, r5
   11668:	e51f1fd4 	ldr	r1, [pc, #-4052]	; 1069c <main+0x5168>
   1166c:	ebffe0a6 	bl	990c <strcmp@plt>
   11670:	e3500000 	cmp	r0, #0
   11674:	1a00000f 	bne	116b8 <main+0x6184>
   11678:	e51f0fe0 	ldr	r0, [pc, #-4064]	; 106a0 <main+0x516c>
   1167c:	ebffdff4 	bl	9654 <puts@plt>
   11680:	e59fef78 	ldr	lr, [pc, #3960]	; 12600 <main+0x70cc>
   11684:	e28dcc3a 	add	ip, sp, #14848	; 0x3a00
   11688:	e1a0400e 	mov	r4, lr
   1168c:	e8b4000f 	ldm	r4!, {r0, r1, r2, r3}
   11690:	e28cc020 	add	ip, ip, #32
   11694:	e24cc028 	sub	ip, ip, #40	; 0x28
   11698:	e8ac000f 	stmia	ip!, {r0, r1, r2, r3}
   1169c:	e59e3010 	ldr	r3, [lr, #16]
   116a0:	e28d0c3a 	add	r0, sp, #14848	; 0x3a00
   116a4:	e2800020 	add	r0, r0, #32
   116a8:	e2400028 	sub	r0, r0, #40	; 0x28
   116ac:	e58c3000 	str	r3, [ip]
   116b0:	ebffe615 	bl	af0c <print_init_value>
   116b4:	ea000485 	b	128d0 <main+0x739c>
   116b8:	e1a00005 	mov	r0, r5
   116bc:	e59f1f40 	ldr	r1, [pc, #3904]	; 12604 <main+0x70d0>
   116c0:	ebffe091 	bl	990c <strcmp@plt>
   116c4:	e2504000 	subs	r4, r0, #0
   116c8:	1a0000a1 	bne	11954 <main+0x6420>
   116cc:	e59f0f34 	ldr	r0, [pc, #3892]	; 12608 <main+0x70d4>
   116d0:	ebffdfdf 	bl	9654 <puts@plt>
   116d4:	e59f3f30 	ldr	r3, [pc, #3888]	; 1260c <main+0x70d8>
   116d8:	e28dac3a 	add	sl, sp, #14848	; 0x3a00
   116dc:	e28aa020 	add	sl, sl, #32
   116e0:	e1a0e003 	mov	lr, r3
   116e4:	e8be000f 	ldm	lr!, {r0, r1, r2, r3}
   116e8:	e24aa050 	sub	sl, sl, #80	; 0x50
   116ec:	e1a0c00a 	mov	ip, sl
   116f0:	e8ac000f 	stmia	ip!, {r0, r1, r2, r3}
   116f4:	e8be000f 	ldm	lr!, {r0, r1, r2, r3}
   116f8:	e8ac000f 	stmia	ip!, {r0, r1, r2, r3}
   116fc:	e89e0003 	ldm	lr, {r0, r1}
   11700:	e88c0003 	stm	ip, {r0, r1}
   11704:	e59f0f04 	ldr	r0, [pc, #3844]	; 12610 <main+0x70dc>
   11708:	ebffdfd4 	bl	9660 <system@plt>
   1170c:	e59f0f00 	ldr	r0, [pc, #3840]	; 12614 <main+0x70e0>
   11710:	e59f1f00 	ldr	r1, [pc, #3840]	; 12618 <main+0x70e4>
   11714:	ebffe064 	bl	98ac <fopen@plt>
   11718:	e2508000 	subs	r8, r0, #0
   1171c:	128d5c37 	addne	r5, sp, #14080	; 0x3700
   11720:	12855020 	addne	r5, r5, #32
   11724:	e1a07004 	mov	r7, r4
   11728:	e1a09004 	mov	r9, r4
   1172c:	124550b0 	subne	r5, r5, #176	; 0xb0
   11730:	11a06004 	movne	r6, r4
   11734:	1a000008 	bne	1175c <main+0x6228>
   11738:	ea000018 	b	117a0 <main+0x626c>
   1173c:	ebffdf82 	bl	954c <strcpy@plt>
   11740:	e1a00004 	mov	r0, r4
   11744:	ebffe09d 	bl	99c0 <strlen@plt>
   11748:	e3a03000 	mov	r3, #0
   1174c:	e0850000 	add	r0, r5, r0
   11750:	e5403001 	strb	r3, [r0, #-1]
   11754:	e2899001 	add	r9, r9, #1
   11758:	e2855012 	add	r5, r5, #18
   1175c:	e28d4c2f 	add	r4, sp, #12032	; 0x2f00
   11760:	e2844020 	add	r4, r4, #32
   11764:	e24440b0 	sub	r4, r4, #176	; 0xb0
   11768:	e3a01012 	mov	r1, #18
   1176c:	e1a02008 	mov	r2, r8
   11770:	e1a00004 	mov	r0, r4
   11774:	ebffdfaa 	bl	9624 <fgets@plt>
   11778:	e28d3c37 	add	r3, sp, #14080	; 0x3700
   1177c:	e2833020 	add	r3, r3, #32
   11780:	e24330b0 	sub	r3, r3, #176	; 0xb0
   11784:	e3500000 	cmp	r0, #0
   11788:	e1a01004 	mov	r1, r4
   1178c:	e0830006 	add	r0, r3, r6
   11790:	e2866012 	add	r6, r6, #18
   11794:	1affffe8 	bne	1173c <main+0x6208>
   11798:	e1a00008 	mov	r0, r8
   1179c:	ebffe051 	bl	98e8 <fclose@plt>
   117a0:	e59f3e74 	ldr	r3, [pc, #3700]	; 1261c <main+0x70e8>
   117a4:	e28dcc2f 	add	ip, sp, #12032	; 0x2f00
   117a8:	e1a0e003 	mov	lr, r3
   117ac:	e8be000f 	ldm	lr!, {r0, r1, r2, r3}
   117b0:	e28cc020 	add	ip, ip, #32
   117b4:	e24cc0b0 	sub	ip, ip, #176	; 0xb0
   117b8:	e8ac000f 	stmia	ip!, {r0, r1, r2, r3}
   117bc:	e8be000f 	ldm	lr!, {r0, r1, r2, r3}
   117c0:	e8ac000f 	stmia	ip!, {r0, r1, r2, r3}
   117c4:	e89e000f 	ldm	lr, {r0, r1, r2, r3}
   117c8:	e8ac0007 	stmia	ip!, {r0, r1, r2}
   117cc:	e28d0c2f 	add	r0, sp, #12032	; 0x2f00
   117d0:	e2800020 	add	r0, r0, #32
   117d4:	e5cc3000 	strb	r3, [ip]
   117d8:	e24000b0 	sub	r0, r0, #176	; 0xb0
   117dc:	ebffdf9f 	bl	9660 <system@plt>
   117e0:	e59f0e38 	ldr	r0, [pc, #3640]	; 12620 <main+0x70ec>
   117e4:	e3a01000 	mov	r1, #0
   117e8:	ebffe077 	bl	99cc <open@plt>
   117ec:	e3500000 	cmp	r0, #0
   117f0:	e58d0010 	str	r0, [sp, #16]
   117f4:	a3a0b000 	movge	fp, #0
   117f8:	aa000045 	bge	11914 <main+0x63e0>
   117fc:	ea000433 	b	128d0 <main+0x739c>
   11800:	e3a07000 	mov	r7, #0
   11804:	e1570009 	cmp	r7, r9
   11808:	e5968010 	ldr	r8, [r6, #16]
   1180c:	aa000040 	bge	11914 <main+0x63e0>
   11810:	e1a05007 	mov	r5, r7
   11814:	e1a04009 	mov	r4, r9
   11818:	e1a00008 	mov	r0, r8
   1181c:	ebffe034 	bl	98f4 <inet_ntoa@plt>
   11820:	e28d1c37 	add	r1, sp, #14080	; 0x3700
   11824:	e2811020 	add	r1, r1, #32
   11828:	e24110b0 	sub	r1, r1, #176	; 0xb0
   1182c:	e0811005 	add	r1, r1, r5
   11830:	ebffe035 	bl	990c <strcmp@plt>
   11834:	e3500000 	cmp	r0, #0
   11838:	03a07001 	moveq	r7, #1
   1183c:	e2544001 	subs	r4, r4, #1
   11840:	e2855012 	add	r5, r5, #18
   11844:	1afffff3 	bne	11818 <main+0x62e4>
   11848:	e3570001 	cmp	r7, #1
   1184c:	1a000030 	bne	11914 <main+0x63e0>
   11850:	e59f3dcc 	ldr	r3, [pc, #3532]	; 12624 <main+0x70f0>
   11854:	e28d5c8b 	add	r5, sp, #35584	; 0x8b00
   11858:	e2855020 	add	r5, r5, #32
   1185c:	e59f0dc4 	ldr	r0, [pc, #3524]	; 12628 <main+0x70f4>
   11860:	e7d52003 	ldrb	r2, [r5, r3]
   11864:	e5d6c002 	ldrb	ip, [r6, #2]
   11868:	e5d6e003 	ldrb	lr, [r6, #3]
   1186c:	e5d64004 	ldrb	r4, [r6, #4]
   11870:	e5d65005 	ldrb	r5, [r6, #5]
   11874:	e35b0000 	cmp	fp, #0
   11878:	e5d63001 	ldrb	r3, [r6, #1]
   1187c:	e59f1da8 	ldr	r1, [pc, #3496]	; 1262c <main+0x70f8>
   11880:	01a01000 	moveq	r1, r0
   11884:	e59f0da4 	ldr	r0, [pc, #3492]	; 12630 <main+0x70fc>
   11888:	e88d5000 	stm	sp, {ip, lr}
   1188c:	e58d4008 	str	r4, [sp, #8]
   11890:	e58d500c 	str	r5, [sp, #12]
   11894:	ebffdf35 	bl	9570 <printf@plt>
   11898:	e1a00008 	mov	r0, r8
   1189c:	ebffe014 	bl	98f4 <inet_ntoa@plt>
   118a0:	e1a01000 	mov	r1, r0
   118a4:	e59f0d88 	ldr	r0, [pc, #3464]	; 12634 <main+0x7100>
   118a8:	ebffdf30 	bl	9570 <printf@plt>
   118ac:	e5960014 	ldr	r0, [r6, #20]
   118b0:	ebffdfb8 	bl	9798 <ntohl@plt>
   118b4:	e2506000 	subs	r6, r0, #0
   118b8:	1a000002 	bne	118c8 <main+0x6394>
   118bc:	e59f0d74 	ldr	r0, [pc, #3444]	; 12638 <main+0x7104>
   118c0:	ebffdf2a 	bl	9570 <printf@plt>
   118c4:	ea000011 	b	11910 <main+0x63dc>
   118c8:	e3a01ee1 	mov	r1, #3600	; 0xe10
   118cc:	eb00071e 	bl	1354c <__divsi3>
   118d0:	e3a01ee1 	mov	r1, #3600	; 0xe10
   118d4:	e1a05000 	mov	r5, r0
   118d8:	e1a00006 	mov	r0, r6
   118dc:	eb000799 	bl	13748 <__modsi3>
   118e0:	e3a0103c 	mov	r1, #60	; 0x3c
   118e4:	e1a06000 	mov	r6, r0
   118e8:	eb000717 	bl	1354c <__divsi3>
   118ec:	e3a0103c 	mov	r1, #60	; 0x3c
   118f0:	e1a04000 	mov	r4, r0
   118f4:	e1a00006 	mov	r0, r6
   118f8:	eb000792 	bl	13748 <__modsi3>
   118fc:	e1a01005 	mov	r1, r5
   11900:	e1a03000 	mov	r3, r0
   11904:	e1a02004 	mov	r2, r4
   11908:	e59f0d2c 	ldr	r0, [pc, #3372]	; 1263c <main+0x7108>
   1190c:	ebffdf17 	bl	9570 <printf@plt>
   11910:	e3a0b001 	mov	fp, #1
   11914:	e28d6c2f 	add	r6, sp, #12032	; 0x2f00
   11918:	e2866020 	add	r6, r6, #32
   1191c:	e24660c8 	sub	r6, r6, #200	; 0xc8
   11920:	e59d0010 	ldr	r0, [sp, #16]
   11924:	e1a01006 	mov	r1, r6
   11928:	e3a02018 	mov	r2, #24
   1192c:	ebffdfb4 	bl	9804 <read@plt>
   11930:	e3500018 	cmp	r0, #24
   11934:	0affffb1 	beq	11800 <main+0x62cc>
   11938:	e59d0010 	ldr	r0, [sp, #16]
   1193c:	ebffe034 	bl	9a14 <close@plt>
   11940:	e3a0003b 	mov	r0, #59	; 0x3b
   11944:	ebffdefd 	bl	9540 <putchar@plt>
   11948:	e1a0000a 	mov	r0, sl
   1194c:	ebffe56e 	bl	af0c <print_init_value>
   11950:	ea0003de 	b	128d0 <main+0x739c>
   11954:	e1a00005 	mov	r0, r5
   11958:	e59f1ce0 	ldr	r1, [pc, #3296]	; 12640 <main+0x710c>
   1195c:	ebffdfea 	bl	990c <strcmp@plt>
   11960:	e3500000 	cmp	r0, #0
   11964:	1a00000f 	bne	119a8 <main+0x6474>
   11968:	e59f0c98 	ldr	r0, [pc, #3224]	; 12608 <main+0x70d4>
   1196c:	ebffdf38 	bl	9654 <puts@plt>
   11970:	e59f3ccc 	ldr	r3, [pc, #3276]	; 12644 <main+0x7110>
   11974:	e28dcc2f 	add	ip, sp, #12032	; 0x2f00
   11978:	e1a0e003 	mov	lr, r3
   1197c:	e8be000f 	ldm	lr!, {r0, r1, r2, r3}
   11980:	e28cc020 	add	ip, ip, #32
   11984:	e24cc0e4 	sub	ip, ip, #228	; 0xe4
   11988:	e8ac000f 	stmia	ip!, {r0, r1, r2, r3}
   1198c:	e89e0007 	ldm	lr, {r0, r1, r2}
   11990:	e88c0007 	stm	ip, {r0, r1, r2}
   11994:	e28d0c2f 	add	r0, sp, #12032	; 0x2f00
   11998:	e2800020 	add	r0, r0, #32
   1199c:	e24000e4 	sub	r0, r0, #228	; 0xe4
   119a0:	ebffe559 	bl	af0c <print_init_value>
   119a4:	ea0003c9 	b	128d0 <main+0x739c>
   119a8:	e1a00005 	mov	r0, r5
   119ac:	e59f1c94 	ldr	r1, [pc, #3220]	; 12648 <main+0x7114>
   119b0:	ebffdfd5 	bl	990c <strcmp@plt>
   119b4:	e3500000 	cmp	r0, #0
   119b8:	1a00000a 	bne	119e8 <main+0x64b4>
   119bc:	e59f0c44 	ldr	r0, [pc, #3140]	; 12608 <main+0x70d4>
   119c0:	ebffdf23 	bl	9654 <puts@plt>
   119c4:	e59f3c80 	ldr	r3, [pc, #3200]	; 1264c <main+0x7118>
   119c8:	e28dcc2f 	add	ip, sp, #12032	; 0x2f00
   119cc:	e8930007 	ldm	r3, {r0, r1, r2}
   119d0:	e28cc020 	add	ip, ip, #32
   119d4:	e24cc0f0 	sub	ip, ip, #240	; 0xf0
   119d8:	e88c0007 	stm	ip, {r0, r1, r2}
   119dc:	e1a0000c 	mov	r0, ip
   119e0:	ebffe549 	bl	af0c <print_init_value>
   119e4:	ea0003b9 	b	128d0 <main+0x739c>
   119e8:	e1a00005 	mov	r0, r5
   119ec:	e59f1c5c 	ldr	r1, [pc, #3164]	; 12650 <main+0x711c>
   119f0:	ebffdfc5 	bl	990c <strcmp@plt>
   119f4:	e3500000 	cmp	r0, #0
   119f8:	1a000009 	bne	11a24 <main+0x64f0>
   119fc:	e59f0c04 	ldr	r0, [pc, #3076]	; 12608 <main+0x70d4>
   11a00:	ebffdf13 	bl	9654 <puts@plt>
   11a04:	e59f2c48 	ldr	r2, [pc, #3144]	; 12654 <main+0x7120>
   11a08:	e28d3e12 	add	r3, sp, #288	; 0x120
   11a0c:	e8920030 	ldm	r2, {r4, r5}
   11a10:	e24330d0 	sub	r3, r3, #208	; 0xd0
   11a14:	e1a00003 	mov	r0, r3
   11a18:	e8830030 	stm	r3, {r4, r5}
   11a1c:	ebffe53a 	bl	af0c <print_init_value>
   11a20:	ea0003aa 	b	128d0 <main+0x739c>
   11a24:	e1a00005 	mov	r0, r5
   11a28:	e59f1c28 	ldr	r1, [pc, #3112]	; 12658 <main+0x7124>
   11a2c:	ebffdfb6 	bl	990c <strcmp@plt>
   11a30:	e3500000 	cmp	r0, #0
   11a34:	1a000009 	bne	11a60 <main+0x652c>
   11a38:	e59f0bc8 	ldr	r0, [pc, #3016]	; 12608 <main+0x70d4>
   11a3c:	ebffdf04 	bl	9654 <puts@plt>
   11a40:	e59f2c14 	ldr	r2, [pc, #3092]	; 1265c <main+0x7128>
   11a44:	e28d3e12 	add	r3, sp, #288	; 0x120
   11a48:	e8920030 	ldm	r2, {r4, r5}
   11a4c:	e24330d8 	sub	r3, r3, #216	; 0xd8
   11a50:	e1a00003 	mov	r0, r3
   11a54:	e8830030 	stm	r3, {r4, r5}
   11a58:	ebffe52b 	bl	af0c <print_init_value>
   11a5c:	ea00039b 	b	128d0 <main+0x739c>
   11a60:	e1a00005 	mov	r0, r5
   11a64:	e59f1bf4 	ldr	r1, [pc, #3060]	; 12660 <main+0x712c>
   11a68:	ebffdfa7 	bl	990c <strcmp@plt>
   11a6c:	e3500000 	cmp	r0, #0
   11a70:	1a00000f 	bne	11ab4 <main+0x6580>
   11a74:	e59f0b8c 	ldr	r0, [pc, #2956]	; 12608 <main+0x70d4>
   11a78:	ebffdef5 	bl	9654 <puts@plt>
   11a7c:	e59f3be0 	ldr	r3, [pc, #3040]	; 12664 <main+0x7130>
   11a80:	e28dcc2e 	add	ip, sp, #11776	; 0x2e00
   11a84:	e1a0e003 	mov	lr, r3
   11a88:	e8be000f 	ldm	lr!, {r0, r1, r2, r3}
   11a8c:	e28cc020 	add	ip, ip, #32
   11a90:	e24cc010 	sub	ip, ip, #16
   11a94:	e8ac000f 	stmia	ip!, {r0, r1, r2, r3}
   11a98:	e89e000f 	ldm	lr, {r0, r1, r2, r3}
   11a9c:	e88c000f 	stm	ip, {r0, r1, r2, r3}
   11aa0:	e28d0c2e 	add	r0, sp, #11776	; 0x2e00
   11aa4:	e2800020 	add	r0, r0, #32
   11aa8:	e2400010 	sub	r0, r0, #16
   11aac:	ebffe516 	bl	af0c <print_init_value>
   11ab0:	ea000386 	b	128d0 <main+0x739c>
   11ab4:	e1a00005 	mov	r0, r5
   11ab8:	e59f1ba8 	ldr	r1, [pc, #2984]	; 12668 <main+0x7134>
   11abc:	ebffdf92 	bl	990c <strcmp@plt>
   11ac0:	e3500000 	cmp	r0, #0
   11ac4:	1a000011 	bne	11b10 <main+0x65dc>
   11ac8:	e59f0b38 	ldr	r0, [pc, #2872]	; 12608 <main+0x70d4>
   11acc:	ebffdee0 	bl	9654 <puts@plt>
   11ad0:	e59f3b94 	ldr	r3, [pc, #2964]	; 1266c <main+0x7138>
   11ad4:	e28dcc2e 	add	ip, sp, #11776	; 0x2e00
   11ad8:	e1a0e003 	mov	lr, r3
   11adc:	e8be000f 	ldm	lr!, {r0, r1, r2, r3}
   11ae0:	e28cc020 	add	ip, ip, #32
   11ae4:	e24cc03c 	sub	ip, ip, #60	; 0x3c
   11ae8:	e8ac000f 	stmia	ip!, {r0, r1, r2, r3}
   11aec:	e8be000f 	ldm	lr!, {r0, r1, r2, r3}
   11af0:	e8ac000f 	stmia	ip!, {r0, r1, r2, r3}
   11af4:	e89e0007 	ldm	lr, {r0, r1, r2}
   11af8:	e88c0007 	stm	ip, {r0, r1, r2}
   11afc:	e28d0c2e 	add	r0, sp, #11776	; 0x2e00
   11b00:	e2800020 	add	r0, r0, #32
   11b04:	e240003c 	sub	r0, r0, #60	; 0x3c
   11b08:	ebffe57a 	bl	b0f8 <print_init_wifi>
   11b0c:	ea00036f 	b	128d0 <main+0x739c>
   11b10:	e1a00005 	mov	r0, r5
   11b14:	e59f1b54 	ldr	r1, [pc, #2900]	; 12670 <main+0x713c>
   11b18:	ebffdf7b 	bl	990c <strcmp@plt>
   11b1c:	e2506000 	subs	r6, r0, #0
   11b20:	1a00000b 	bne	11b54 <main+0x6620>
   11b24:	e28d4c1e 	add	r4, sp, #7680	; 0x1e00
   11b28:	e2844020 	add	r4, r4, #32
   11b2c:	e244403c 	sub	r4, r4, #60	; 0x3c
   11b30:	e59f0ad0 	ldr	r0, [pc, #2768]	; 12608 <main+0x70d4>
   11b34:	ebffdec6 	bl	9654 <puts@plt>
   11b38:	e1a01006 	mov	r1, r6
   11b3c:	e1a00004 	mov	r0, r4
   11b40:	ebffdeab 	bl	95f4 <sncfg_get_vpn_server_connection@plt>
   11b44:	e1a01004 	mov	r1, r4
   11b48:	e59f0b24 	ldr	r0, [pc, #2852]	; 12674 <main+0x7140>
   11b4c:	ebffde87 	bl	9570 <printf@plt>
   11b50:	ea00035e 	b	128d0 <main+0x739c>
   11b54:	e1a00005 	mov	r0, r5
   11b58:	e59f1b18 	ldr	r1, [pc, #2840]	; 12678 <main+0x7144>
   11b5c:	ebffdf6a 	bl	990c <strcmp@plt>
   11b60:	e3500000 	cmp	r0, #0
   11b64:	1a00000f 	bne	11ba8 <main+0x6674>
   11b68:	e59f0a98 	ldr	r0, [pc, #2712]	; 12608 <main+0x70d4>
   11b6c:	ebffdeb8 	bl	9654 <puts@plt>
   11b70:	e59f0b04 	ldr	r0, [pc, #2820]	; 1267c <main+0x7148>
   11b74:	ebffe0b3 	bl	9e48 <get_cgi>
   11b78:	e28d4c1a 	add	r4, sp, #6656	; 0x1a00
   11b7c:	e2844020 	add	r4, r4, #32
   11b80:	e244403c 	sub	r4, r4, #60	; 0x3c
   11b84:	e1a02000 	mov	r2, r0
   11b88:	e59f1af0 	ldr	r1, [pc, #2800]	; 12680 <main+0x714c>
   11b8c:	e1a00004 	mov	r0, r4
   11b90:	ebffdf63 	bl	9924 <sprintf@plt>
   11b94:	e1a00004 	mov	r0, r4
   11b98:	ebffdeb0 	bl	9660 <system@plt>
   11b9c:	e59f0ae0 	ldr	r0, [pc, #2784]	; 12684 <main+0x7150>
   11ba0:	ebffde72 	bl	9570 <printf@plt>
   11ba4:	ea000349 	b	128d0 <main+0x739c>
   11ba8:	e1a00005 	mov	r0, r5
   11bac:	e59f1ad4 	ldr	r1, [pc, #2772]	; 12688 <main+0x7154>
   11bb0:	ebffdf55 	bl	990c <strcmp@plt>
   11bb4:	e3500000 	cmp	r0, #0
   11bb8:	1a000023 	bne	11c4c <main+0x6718>
   11bbc:	e59f0a44 	ldr	r0, [pc, #2628]	; 12608 <main+0x70d4>
   11bc0:	ebffdea3 	bl	9654 <puts@plt>
   11bc4:	e59f0ac0 	ldr	r0, [pc, #2752]	; 1268c <main+0x7158>
   11bc8:	ebffe09e 	bl	9e48 <get_cgi>
   11bcc:	e1a05000 	mov	r5, r0
   11bd0:	e59f0ab8 	ldr	r0, [pc, #2744]	; 12690 <main+0x715c>
   11bd4:	ebffe09b 	bl	9e48 <get_cgi>
   11bd8:	e59f1ab4 	ldr	r1, [pc, #2740]	; 12694 <main+0x7160>
   11bdc:	e1a04000 	mov	r4, r0
   11be0:	ebffdf49 	bl	990c <strcmp@plt>
   11be4:	e3500000 	cmp	r0, #0
   11be8:	1a000005 	bne	11c04 <main+0x66d0>
   11bec:	e28d0c16 	add	r0, sp, #5632	; 0x1600
   11bf0:	e2800020 	add	r0, r0, #32
   11bf4:	e59f1a9c 	ldr	r1, [pc, #2716]	; 12698 <main+0x7164>
   11bf8:	e1a02005 	mov	r2, r5
   11bfc:	e240003c 	sub	r0, r0, #60	; 0x3c
   11c00:	ea000009 	b	11c2c <main+0x66f8>
   11c04:	e1a00004 	mov	r0, r4
   11c08:	e59f1a8c 	ldr	r1, [pc, #2700]	; 1269c <main+0x7168>
   11c0c:	ebffdf3e 	bl	990c <strcmp@plt>
   11c10:	e3500000 	cmp	r0, #0
   11c14:	1a000005 	bne	11c30 <main+0x66fc>
   11c18:	e28d0c16 	add	r0, sp, #5632	; 0x1600
   11c1c:	e2800020 	add	r0, r0, #32
   11c20:	e59f1a78 	ldr	r1, [pc, #2680]	; 126a0 <main+0x716c>
   11c24:	e240003c 	sub	r0, r0, #60	; 0x3c
   11c28:	e1a02005 	mov	r2, r5
   11c2c:	ebffdf3c 	bl	9924 <sprintf@plt>
   11c30:	e28d0c16 	add	r0, sp, #5632	; 0x1600
   11c34:	e2800020 	add	r0, r0, #32
   11c38:	e240003c 	sub	r0, r0, #60	; 0x3c
   11c3c:	ebffde87 	bl	9660 <system@plt>
   11c40:	e59f0a3c 	ldr	r0, [pc, #2620]	; 12684 <main+0x7150>
   11c44:	ebffde49 	bl	9570 <printf@plt>
   11c48:	ea000320 	b	128d0 <main+0x739c>
   11c4c:	e1a00005 	mov	r0, r5
   11c50:	e59f1a4c 	ldr	r1, [pc, #2636]	; 126a4 <main+0x7170>
   11c54:	ebffdf2c 	bl	990c <strcmp@plt>
   11c58:	e3500000 	cmp	r0, #0
   11c5c:	1a000013 	bne	11cb0 <main+0x677c>
   11c60:	e59f09a0 	ldr	r0, [pc, #2464]	; 12608 <main+0x70d4>
   11c64:	ebffde7a 	bl	9654 <puts@plt>
   11c68:	e59f3a38 	ldr	r3, [pc, #2616]	; 126a8 <main+0x7174>
   11c6c:	e28dcc16 	add	ip, sp, #5632	; 0x1600
   11c70:	e1a0e003 	mov	lr, r3
   11c74:	e8be000f 	ldm	lr!, {r0, r1, r2, r3}
   11c78:	e28cc020 	add	ip, ip, #32
   11c7c:	e24cc070 	sub	ip, ip, #112	; 0x70
   11c80:	e8ac000f 	stmia	ip!, {r0, r1, r2, r3}
   11c84:	e8be000f 	ldm	lr!, {r0, r1, r2, r3}
   11c88:	e8ac000f 	stmia	ip!, {r0, r1, r2, r3}
   11c8c:	e8be000f 	ldm	lr!, {r0, r1, r2, r3}
   11c90:	e8ac000f 	stmia	ip!, {r0, r1, r2, r3}
   11c94:	e59e3000 	ldr	r3, [lr]
   11c98:	e28d0c16 	add	r0, sp, #5632	; 0x1600
   11c9c:	e2800020 	add	r0, r0, #32
   11ca0:	e2400070 	sub	r0, r0, #112	; 0x70
   11ca4:	e58c3000 	str	r3, [ip]
   11ca8:	ebffe512 	bl	b0f8 <print_init_wifi>
   11cac:	ea000307 	b	128d0 <main+0x739c>
   11cb0:	e1a00005 	mov	r0, r5
   11cb4:	e59f19f0 	ldr	r1, [pc, #2544]	; 126ac <main+0x7178>
   11cb8:	ebffdf13 	bl	990c <strcmp@plt>
   11cbc:	e3500000 	cmp	r0, #0
   11cc0:	1a00000b 	bne	11cf4 <main+0x67c0>
   11cc4:	e28d4b05 	add	r4, sp, #5120	; 0x1400
   11cc8:	e2844020 	add	r4, r4, #32
   11ccc:	e2444064 	sub	r4, r4, #100	; 0x64
   11cd0:	e59f0930 	ldr	r0, [pc, #2352]	; 12608 <main+0x70d4>
   11cd4:	ebffde5e 	bl	9654 <puts@plt>
   11cd8:	e1a00004 	mov	r0, r4
   11cdc:	e3a01001 	mov	r1, #1
   11ce0:	ebffde43 	bl	95f4 <sncfg_get_vpn_server_connection@plt>
   11ce4:	e1a01004 	mov	r1, r4
   11ce8:	e59f0984 	ldr	r0, [pc, #2436]	; 12674 <main+0x7140>
   11cec:	ebffde1f 	bl	9570 <printf@plt>
   11cf0:	ea0002f6 	b	128d0 <main+0x739c>
   11cf4:	e1a00005 	mov	r0, r5
   11cf8:	e59f19b0 	ldr	r1, [pc, #2480]	; 126b0 <main+0x717c>
   11cfc:	ebffdf02 	bl	990c <strcmp@plt>
   11d00:	e3500000 	cmp	r0, #0
   11d04:	1a00000f 	bne	11d48 <main+0x6814>
   11d08:	e59f08f8 	ldr	r0, [pc, #2296]	; 12608 <main+0x70d4>
   11d0c:	ebffde50 	bl	9654 <puts@plt>
   11d10:	e59f0964 	ldr	r0, [pc, #2404]	; 1267c <main+0x7148>
   11d14:	ebffe04b 	bl	9e48 <get_cgi>
   11d18:	e28d4a01 	add	r4, sp, #4096	; 0x1000
   11d1c:	e2844020 	add	r4, r4, #32
   11d20:	e2444064 	sub	r4, r4, #100	; 0x64
   11d24:	e1a02000 	mov	r2, r0
   11d28:	e59f1984 	ldr	r1, [pc, #2436]	; 126b4 <main+0x7180>
   11d2c:	e1a00004 	mov	r0, r4
   11d30:	ebffdefb 	bl	9924 <sprintf@plt>
   11d34:	e1a00004 	mov	r0, r4
   11d38:	ebffde48 	bl	9660 <system@plt>
   11d3c:	e59f0940 	ldr	r0, [pc, #2368]	; 12684 <main+0x7150>
   11d40:	ebffde0a 	bl	9570 <printf@plt>
   11d44:	ea0002e1 	b	128d0 <main+0x739c>
   11d48:	e1a00005 	mov	r0, r5
   11d4c:	e59f1964 	ldr	r1, [pc, #2404]	; 126b8 <main+0x7184>
   11d50:	ebffdeed 	bl	990c <strcmp@plt>
   11d54:	e3500000 	cmp	r0, #0
   11d58:	1a00001f 	bne	11ddc <main+0x68a8>
   11d5c:	e59f08a4 	ldr	r0, [pc, #2212]	; 12608 <main+0x70d4>
   11d60:	ebffde3b 	bl	9654 <puts@plt>
   11d64:	e59f0950 	ldr	r0, [pc, #2384]	; 126bc <main+0x7188>
   11d68:	ebffe036 	bl	9e48 <get_cgi>
   11d6c:	e1a05000 	mov	r5, r0
   11d70:	e59f0948 	ldr	r0, [pc, #2376]	; 126c0 <main+0x718c>
   11d74:	ebffe033 	bl	9e48 <get_cgi>
   11d78:	e59f1914 	ldr	r1, [pc, #2324]	; 12694 <main+0x7160>
   11d7c:	e1a04000 	mov	r4, r0
   11d80:	ebffdee1 	bl	990c <strcmp@plt>
   11d84:	e3500000 	cmp	r0, #0
   11d88:	028d0ec2 	addeq	r0, sp, #3104	; 0xc20
   11d8c:	01a02005 	moveq	r2, r5
   11d90:	02400064 	subeq	r0, r0, #100	; 0x64
   11d94:	059f1928 	ldreq	r1, [pc, #2344]	; 126c4 <main+0x7190>
   11d98:	0a000008 	beq	11dc0 <main+0x688c>
   11d9c:	e1a00004 	mov	r0, r4
   11da0:	e59f18f4 	ldr	r1, [pc, #2292]	; 1269c <main+0x7168>
   11da4:	ebffded8 	bl	990c <strcmp@plt>
   11da8:	e3500000 	cmp	r0, #0
   11dac:	1a000004 	bne	11dc4 <main+0x6890>
   11db0:	e28d0ec2 	add	r0, sp, #3104	; 0xc20
   11db4:	e59f190c 	ldr	r1, [pc, #2316]	; 126c8 <main+0x7194>
   11db8:	e2400064 	sub	r0, r0, #100	; 0x64
   11dbc:	e1a02005 	mov	r2, r5
   11dc0:	ebffded7 	bl	9924 <sprintf@plt>
   11dc4:	e28d0ec2 	add	r0, sp, #3104	; 0xc20
   11dc8:	e2400064 	sub	r0, r0, #100	; 0x64
   11dcc:	ebffde23 	bl	9660 <system@plt>
   11dd0:	e59f08ac 	ldr	r0, [pc, #2220]	; 12684 <main+0x7150>
   11dd4:	ebffdde5 	bl	9570 <printf@plt>
   11dd8:	ea0002bc 	b	128d0 <main+0x739c>
   11ddc:	e1a00005 	mov	r0, r5
   11de0:	e59f18e4 	ldr	r1, [pc, #2276]	; 126cc <main+0x7198>
   11de4:	ebffdec8 	bl	990c <strcmp@plt>
   11de8:	e3500000 	cmp	r0, #0
   11dec:	1a00000f 	bne	11e30 <main+0x68fc>
   11df0:	e59f0810 	ldr	r0, [pc, #2064]	; 12608 <main+0x70d4>
   11df4:	ebffde16 	bl	9654 <puts@plt>
   11df8:	e59f38d0 	ldr	r3, [pc, #2256]	; 126d0 <main+0x719c>
   11dfc:	e1a0e003 	mov	lr, r3
   11e00:	e28dcec2 	add	ip, sp, #3104	; 0xc20
   11e04:	e8be000f 	ldm	lr!, {r0, r1, r2, r3}
   11e08:	e24cc094 	sub	ip, ip, #148	; 0x94
   11e0c:	e8ac000f 	stmia	ip!, {r0, r1, r2, r3}
   11e10:	e8be000f 	ldm	lr!, {r0, r1, r2, r3}
   11e14:	e8ac000f 	stmia	ip!, {r0, r1, r2, r3}
   11e18:	e89e000f 	ldm	lr, {r0, r1, r2, r3}
   11e1c:	e88c000f 	stm	ip, {r0, r1, r2, r3}
   11e20:	e28d0ec2 	add	r0, sp, #3104	; 0xc20
   11e24:	e2400094 	sub	r0, r0, #148	; 0x94
   11e28:	ebffe4b2 	bl	b0f8 <print_init_wifi>
   11e2c:	ea0002a7 	b	128d0 <main+0x739c>
   11e30:	e1a00005 	mov	r0, r5
   11e34:	e59f1898 	ldr	r1, [pc, #2200]	; 126d4 <main+0x71a0>
   11e38:	ebffdeb3 	bl	990c <strcmp@plt>
   11e3c:	e3500000 	cmp	r0, #0
   11e40:	1a00000c 	bne	11e78 <main+0x6944>
   11e44:	e28d4ea2 	add	r4, sp, #2592	; 0xa20
   11e48:	e2444088 	sub	r4, r4, #136	; 0x88
   11e4c:	e59f07b4 	ldr	r0, [pc, #1972]	; 12608 <main+0x70d4>
   11e50:	ebffddff 	bl	9654 <puts@plt>
   11e54:	e1a00004 	mov	r0, r4
   11e58:	e59f1878 	ldr	r1, [pc, #2168]	; 126d8 <main+0x71a4>
   11e5c:	e59f2878 	ldr	r2, [pc, #2168]	; 126dc <main+0x71a8>
   11e60:	e59f3878 	ldr	r3, [pc, #2168]	; 126e0 <main+0x71ac>
   11e64:	ebffdecf 	bl	99a8 <sncfg_get_vpn_client_connection@plt>
   11e68:	e1a01004 	mov	r1, r4
   11e6c:	e59f0800 	ldr	r0, [pc, #2048]	; 12674 <main+0x7140>
   11e70:	ebffddbe 	bl	9570 <printf@plt>
   11e74:	ea000295 	b	128d0 <main+0x739c>
   11e78:	e1a00005 	mov	r0, r5
   11e7c:	e59f1860 	ldr	r1, [pc, #2144]	; 126e4 <main+0x71b0>
   11e80:	ebffdea1 	bl	990c <strcmp@plt>
   11e84:	e3500000 	cmp	r0, #0
   11e88:	1a000011 	bne	11ed4 <main+0x69a0>
   11e8c:	e59f0774 	ldr	r0, [pc, #1908]	; 12608 <main+0x70d4>
   11e90:	ebffddef 	bl	9654 <puts@plt>
   11e94:	e59f384c 	ldr	r3, [pc, #2124]	; 126e8 <main+0x71b4>
   11e98:	e1a0e003 	mov	lr, r3
   11e9c:	e28dcea2 	add	ip, sp, #2592	; 0xa20
   11ea0:	e8be000f 	ldm	lr!, {r0, r1, r2, r3}
   11ea4:	e24cc0bc 	sub	ip, ip, #188	; 0xbc
   11ea8:	e8ac000f 	stmia	ip!, {r0, r1, r2, r3}
   11eac:	e8be000f 	ldm	lr!, {r0, r1, r2, r3}
   11eb0:	e8ac000f 	stmia	ip!, {r0, r1, r2, r3}
   11eb4:	e8be000f 	ldm	lr!, {r0, r1, r2, r3}
   11eb8:	e8ac000f 	stmia	ip!, {r0, r1, r2, r3}
   11ebc:	e59e3000 	ldr	r3, [lr]
   11ec0:	e28d0ea2 	add	r0, sp, #2592	; 0xa20
   11ec4:	e24000bc 	sub	r0, r0, #188	; 0xbc
   11ec8:	e58c3000 	str	r3, [ip]
   11ecc:	ebffe489 	bl	b0f8 <print_init_wifi>
   11ed0:	ea00027e 	b	128d0 <main+0x739c>
   11ed4:	e1a00005 	mov	r0, r5
   11ed8:	e59f180c 	ldr	r1, [pc, #2060]	; 126ec <main+0x71b8>
   11edc:	ebffde8a 	bl	990c <strcmp@plt>
   11ee0:	e3500000 	cmp	r0, #0
   11ee4:	1a00000c 	bne	11f1c <main+0x69e8>
   11ee8:	e28d4e82 	add	r4, sp, #2080	; 0x820
   11eec:	e24440b0 	sub	r4, r4, #176	; 0xb0
   11ef0:	e59f0710 	ldr	r0, [pc, #1808]	; 12608 <main+0x70d4>
   11ef4:	ebffddd6 	bl	9654 <puts@plt>
   11ef8:	e1a00004 	mov	r0, r4
   11efc:	e59f17ec 	ldr	r1, [pc, #2028]	; 126f0 <main+0x71bc>
   11f00:	e59f27ec 	ldr	r2, [pc, #2028]	; 126f4 <main+0x71c0>
   11f04:	e59f37ec 	ldr	r3, [pc, #2028]	; 126f8 <main+0x71c4>
   11f08:	ebffdea6 	bl	99a8 <sncfg_get_vpn_client_connection@plt>
   11f0c:	e1a01004 	mov	r1, r4
   11f10:	e59f075c 	ldr	r0, [pc, #1884]	; 12674 <main+0x7140>
   11f14:	ebffdd95 	bl	9570 <printf@plt>
   11f18:	ea00026c 	b	128d0 <main+0x739c>
   11f1c:	e1a00005 	mov	r0, r5
   11f20:	e59f17d4 	ldr	r1, [pc, #2004]	; 126fc <main+0x71c8>
   11f24:	ebffde78 	bl	990c <strcmp@plt>
   11f28:	e2504000 	subs	r4, r0, #0
   11f2c:	1a000029 	bne	11fd8 <main+0x6aa4>
   11f30:	e59f06d0 	ldr	r0, [pc, #1744]	; 12608 <main+0x70d4>
   11f34:	ebffddc6 	bl	9654 <puts@plt>
   11f38:	e1a08004 	mov	r8, r4
   11f3c:	e3a05001 	mov	r5, #1
   11f40:	e28d4e82 	add	r4, sp, #2080	; 0x820
   11f44:	e24440d0 	sub	r4, r4, #208	; 0xd0
   11f48:	e1a02005 	mov	r2, r5
   11f4c:	e59f17ac 	ldr	r1, [pc, #1964]	; 12700 <main+0x71cc>
   11f50:	e1a00004 	mov	r0, r4
   11f54:	ebffde72 	bl	9924 <sprintf@plt>
   11f58:	e28d7e82 	add	r7, sp, #2080	; 0x820
   11f5c:	e28d6e72 	add	r6, sp, #1824	; 0x720
   11f60:	e3580000 	cmp	r8, #0
   11f64:	e24770f0 	sub	r7, r7, #240	; 0xf0
   11f68:	e2466010 	sub	r6, r6, #16
   11f6c:	e2888001 	add	r8, r8, #1
   11f70:	e3a00023 	mov	r0, #35	; 0x23
   11f74:	1bffdd71 	blne	9540 <putchar@plt>
   11f78:	e1a02005 	mov	r2, r5
   11f7c:	e59f1780 	ldr	r1, [pc, #1920]	; 12704 <main+0x71d0>
   11f80:	e1a00007 	mov	r0, r7
   11f84:	ebffde66 	bl	9924 <sprintf@plt>
   11f88:	e1a02005 	mov	r2, r5
   11f8c:	e59f1774 	ldr	r1, [pc, #1908]	; 12708 <main+0x71d4>
   11f90:	e1a00006 	mov	r0, r6
   11f94:	ebffde62 	bl	9924 <sprintf@plt>
   11f98:	e59f276c 	ldr	r2, [pc, #1900]	; 1270c <main+0x71d8>
   11f9c:	e28dec8b 	add	lr, sp, #35584	; 0x8b00
   11fa0:	e28ee020 	add	lr, lr, #32
   11fa4:	e28d3e72 	add	r3, sp, #1824	; 0x720
   11fa8:	e2433020 	sub	r3, r3, #32
   11fac:	e78e4002 	str	r4, [lr, r2]
   11fb0:	e3a02000 	mov	r2, #0
   11fb4:	e1a00003 	mov	r0, r3
   11fb8:	e2855001 	add	r5, r5, #1
   11fbc:	e5837004 	str	r7, [r3, #4]
   11fc0:	e5836008 	str	r6, [r3, #8]
   11fc4:	e583200c 	str	r2, [r3, #12]
   11fc8:	ebffe3cf 	bl	af0c <print_init_value>
   11fcc:	e3550008 	cmp	r5, #8
   11fd0:	daffffda 	ble	11f40 <main+0x6a0c>
   11fd4:	ea00023d 	b	128d0 <main+0x739c>
   11fd8:	e1a00005 	mov	r0, r5
   11fdc:	e59f172c 	ldr	r1, [pc, #1836]	; 12710 <main+0x71dc>
   11fe0:	ebffde49 	bl	990c <strcmp@plt>
   11fe4:	e3500000 	cmp	r0, #0
   11fe8:	1a00000f 	bne	1202c <main+0x6af8>
   11fec:	e59f0614 	ldr	r0, [pc, #1556]	; 12608 <main+0x70d4>
   11ff0:	ebffdd97 	bl	9654 <puts@plt>
   11ff4:	e59f3718 	ldr	r3, [pc, #1816]	; 12714 <main+0x71e0>
   11ff8:	e1a0e003 	mov	lr, r3
   11ffc:	e8be000f 	ldm	lr!, {r0, r1, r2, r3}
   12000:	e28dce72 	add	ip, sp, #1824	; 0x720
   12004:	e24cc040 	sub	ip, ip, #64	; 0x40
   12008:	e8ac000f 	stmia	ip!, {r0, r1, r2, r3}
   1200c:	e89e000f 	ldm	lr, {r0, r1, r2, r3}
   12010:	e88c000f 	stm	ip, {r0, r1, r2, r3}
   12014:	e28d0e72 	add	r0, sp, #1824	; 0x720
   12018:	e2400040 	sub	r0, r0, #64	; 0x40
   1201c:	ebffe3ba 	bl	af0c <print_init_value>
   12020:	e59f06f0 	ldr	r0, [pc, #1776]	; 12718 <main+0x71e4>
   12024:	ebffdd8d 	bl	9660 <system@plt>
   12028:	ea000228 	b	128d0 <main+0x739c>
   1202c:	e1a00005 	mov	r0, r5
   12030:	e59f16e4 	ldr	r1, [pc, #1764]	; 1271c <main+0x71e8>
   12034:	ebffde34 	bl	990c <strcmp@plt>
   12038:	e3500000 	cmp	r0, #0
   1203c:	1a000027 	bne	120e0 <main+0x6bac>
   12040:	e59f05c0 	ldr	r0, [pc, #1472]	; 12608 <main+0x70d4>
   12044:	ebffdd82 	bl	9654 <puts@plt>
   12048:	e59f36d0 	ldr	r3, [pc, #1744]	; 12720 <main+0x71ec>
   1204c:	e1a0e003 	mov	lr, r3
   12050:	e8be000f 	ldm	lr!, {r0, r1, r2, r3}
   12054:	e28dce72 	add	ip, sp, #1824	; 0x720
   12058:	e24cc064 	sub	ip, ip, #100	; 0x64
   1205c:	e8ac000f 	stmia	ip!, {r0, r1, r2, r3}
   12060:	e8be000f 	ldm	lr!, {r0, r1, r2, r3}
   12064:	e8ac000f 	stmia	ip!, {r0, r1, r2, r3}
   12068:	e59e3000 	ldr	r3, [lr]
   1206c:	e28d0e72 	add	r0, sp, #1824	; 0x720
   12070:	e2400064 	sub	r0, r0, #100	; 0x64
   12074:	e58c3000 	str	r3, [ip]
   12078:	ebffe3a3 	bl	af0c <print_init_value>
   1207c:	e59f06a0 	ldr	r0, [pc, #1696]	; 12724 <main+0x71f0>
   12080:	e59f1590 	ldr	r1, [pc, #1424]	; 12618 <main+0x70e4>
   12084:	ebffde08 	bl	98ac <fopen@plt>
   12088:	e2504000 	subs	r4, r0, #0
   1208c:	1a000002 	bne	1209c <main+0x6b68>
   12090:	e59f0690 	ldr	r0, [pc, #1680]	; 12728 <main+0x71f4>
   12094:	ebffdd35 	bl	9570 <printf@plt>
   12098:	ea000003 	b	120ac <main+0x6b78>
   1209c:	e59f0688 	ldr	r0, [pc, #1672]	; 1272c <main+0x71f8>
   120a0:	ebffdd32 	bl	9570 <printf@plt>
   120a4:	e1a00004 	mov	r0, r4
   120a8:	ebffde0e 	bl	98e8 <fclose@plt>
   120ac:	e59f067c 	ldr	r0, [pc, #1660]	; 12730 <main+0x71fc>
   120b0:	e59f1560 	ldr	r1, [pc, #1376]	; 12618 <main+0x70e4>
   120b4:	ebffddfc 	bl	98ac <fopen@plt>
   120b8:	e2504000 	subs	r4, r0, #0
   120bc:	1a000002 	bne	120cc <main+0x6b98>
   120c0:	e59f0660 	ldr	r0, [pc, #1632]	; 12728 <main+0x71f4>
   120c4:	ebffdd29 	bl	9570 <printf@plt>
   120c8:	ea000200 	b	128d0 <main+0x739c>
   120cc:	e59f0658 	ldr	r0, [pc, #1624]	; 1272c <main+0x71f8>
   120d0:	ebffdd26 	bl	9570 <printf@plt>
   120d4:	e1a00004 	mov	r0, r4
   120d8:	ebffde02 	bl	98e8 <fclose@plt>
   120dc:	ea0001fb 	b	128d0 <main+0x739c>
   120e0:	e1a00005 	mov	r0, r5
   120e4:	e59f1648 	ldr	r1, [pc, #1608]	; 12734 <main+0x7200>
   120e8:	ebffde07 	bl	990c <strcmp@plt>
   120ec:	e3500000 	cmp	r0, #0
   120f0:	1a00000f 	bne	12134 <main+0x6c00>
   120f4:	e59f050c 	ldr	r0, [pc, #1292]	; 12608 <main+0x70d4>
   120f8:	ebffdd55 	bl	9654 <puts@plt>
   120fc:	e59f3634 	ldr	r3, [pc, #1588]	; 12738 <main+0x7204>
   12100:	e1a0e003 	mov	lr, r3
   12104:	e28dce72 	add	ip, sp, #1824	; 0x720
   12108:	e8be000f 	ldm	lr!, {r0, r1, r2, r3}
   1210c:	e24cc094 	sub	ip, ip, #148	; 0x94
   12110:	e8ac000f 	stmia	ip!, {r0, r1, r2, r3}
   12114:	e8be000f 	ldm	lr!, {r0, r1, r2, r3}
   12118:	e8ac000f 	stmia	ip!, {r0, r1, r2, r3}
   1211c:	e89e000f 	ldm	lr, {r0, r1, r2, r3}
   12120:	e88c000f 	stm	ip, {r0, r1, r2, r3}
   12124:	e28d0e72 	add	r0, sp, #1824	; 0x720
   12128:	e2400094 	sub	r0, r0, #148	; 0x94
   1212c:	ebffe376 	bl	af0c <print_init_value>
   12130:	ea0001e6 	b	128d0 <main+0x739c>
   12134:	e1a00005 	mov	r0, r5
   12138:	e59f15fc 	ldr	r1, [pc, #1532]	; 1273c <main+0x7208>
   1213c:	ebffddf2 	bl	990c <strcmp@plt>
   12140:	e3500000 	cmp	r0, #0
   12144:	1a00000d 	bne	12180 <main+0x6c4c>
   12148:	e59f04b8 	ldr	r0, [pc, #1208]	; 12608 <main+0x70d4>
   1214c:	ebffdd40 	bl	9654 <puts@plt>
   12150:	e59f35e8 	ldr	r3, [pc, #1512]	; 12740 <main+0x720c>
   12154:	e1a0e003 	mov	lr, r3
   12158:	e8be000f 	ldm	lr!, {r0, r1, r2, r3}
   1215c:	e28dce72 	add	ip, sp, #1824	; 0x720
   12160:	e24cc0ac 	sub	ip, ip, #172	; 0xac
   12164:	e8ac000f 	stmia	ip!, {r0, r1, r2, r3}
   12168:	e89e0003 	ldm	lr, {r0, r1}
   1216c:	e88c0003 	stm	ip, {r0, r1}
   12170:	e28d0e72 	add	r0, sp, #1824	; 0x720
   12174:	e24000ac 	sub	r0, r0, #172	; 0xac
   12178:	ebffe363 	bl	af0c <print_init_value>
   1217c:	ea0001d3 	b	128d0 <main+0x739c>
   12180:	e1a00005 	mov	r0, r5
   12184:	e59f15b8 	ldr	r1, [pc, #1464]	; 12744 <main+0x7210>
   12188:	ebffdddf 	bl	990c <strcmp@plt>
   1218c:	e3500000 	cmp	r0, #0
   12190:	1a00000f 	bne	121d4 <main+0x6ca0>
   12194:	e59f046c 	ldr	r0, [pc, #1132]	; 12608 <main+0x70d4>
   12198:	ebffdd2d 	bl	9654 <puts@plt>
   1219c:	e59f35a4 	ldr	r3, [pc, #1444]	; 12748 <main+0x7214>
   121a0:	e1a0e003 	mov	lr, r3
   121a4:	e28dce72 	add	ip, sp, #1824	; 0x720
   121a8:	e8be000f 	ldm	lr!, {r0, r1, r2, r3}
   121ac:	e24cc0d4 	sub	ip, ip, #212	; 0xd4
   121b0:	e8ac000f 	stmia	ip!, {r0, r1, r2, r3}
   121b4:	e8be000f 	ldm	lr!, {r0, r1, r2, r3}
   121b8:	e8ac000f 	stmia	ip!, {r0, r1, r2, r3}
   121bc:	e89e0003 	ldm	lr, {r0, r1}
   121c0:	e88c0003 	stm	ip, {r0, r1}
   121c4:	e28d0e72 	add	r0, sp, #1824	; 0x720
   121c8:	e24000d4 	sub	r0, r0, #212	; 0xd4
   121cc:	ebffe34e 	bl	af0c <print_init_value>
   121d0:	ea0001be 	b	128d0 <main+0x739c>
   121d4:	e1a00005 	mov	r0, r5
   121d8:	e59f156c 	ldr	r1, [pc, #1388]	; 1274c <main+0x7218>
   121dc:	ebffddca 	bl	990c <strcmp@plt>
   121e0:	e3500000 	cmp	r0, #0
   121e4:	1a000054 	bne	1233c <main+0x6e08>
   121e8:	e59f0418 	ldr	r0, [pc, #1048]	; 12608 <main+0x70d4>
   121ec:	ebffdd18 	bl	9654 <puts@plt>
   121f0:	e59f3558 	ldr	r3, [pc, #1368]	; 12750 <main+0x721c>
   121f4:	e1a0e003 	mov	lr, r3
   121f8:	e8be000f 	ldm	lr!, {r0, r1, r2, r3}
   121fc:	e28dce62 	add	ip, sp, #1568	; 0x620
   12200:	e8ac000f 	stmia	ip!, {r0, r1, r2, r3}
   12204:	e8be000f 	ldm	lr!, {r0, r1, r2, r3}
   12208:	e8ac000f 	stmia	ip!, {r0, r1, r2, r3}
   1220c:	e89e0007 	ldm	lr, {r0, r1, r2}
   12210:	e88c0007 	stm	ip, {r0, r1, r2}
   12214:	e28d0e62 	add	r0, sp, #1568	; 0x620
   12218:	ebffe3b6 	bl	b0f8 <print_init_wifi>
   1221c:	e59f0530 	ldr	r0, [pc, #1328]	; 12754 <main+0x7220>
   12220:	e59f13f0 	ldr	r1, [pc, #1008]	; 12618 <main+0x70e4>
   12224:	ebffdda0 	bl	98ac <fopen@plt>
   12228:	e2505000 	subs	r5, r0, #0
   1222c:	1a000002 	bne	1223c <main+0x6d08>
   12230:	e59f0520 	ldr	r0, [pc, #1312]	; 12758 <main+0x7224>
   12234:	ebffdccd 	bl	9570 <printf@plt>
   12238:	ea000020 	b	122c0 <main+0x6d8c>
   1223c:	e28d4e52 	add	r4, sp, #1312	; 0x520
   12240:	e24440f4 	sub	r4, r4, #244	; 0xf4
   12244:	e1a00004 	mov	r0, r4
   12248:	e3a01f7d 	mov	r1, #500	; 0x1f4
   1224c:	e1a02005 	mov	r2, r5
   12250:	ebffdcf3 	bl	9624 <fgets@plt>
   12254:	e3500000 	cmp	r0, #0
   12258:	0a000014 	beq	122b0 <main+0x6d7c>
   1225c:	e1a00004 	mov	r0, r4
   12260:	e59f14f4 	ldr	r1, [pc, #1268]	; 1275c <main+0x7228>
   12264:	e3a02004 	mov	r2, #4
   12268:	ebffdd68 	bl	9810 <strncmp@plt>
   1226c:	e3500000 	cmp	r0, #0
   12270:	0a00000e 	beq	122b0 <main+0x6d7c>
   12274:	e1a00004 	mov	r0, r4
   12278:	e59f14e0 	ldr	r1, [pc, #1248]	; 12760 <main+0x722c>
   1227c:	e3a02004 	mov	r2, #4
   12280:	ebffdd62 	bl	9810 <strncmp@plt>
   12284:	e3500000 	cmp	r0, #0
   12288:	0a000008 	beq	122b0 <main+0x6d7c>
   1228c:	e1a00004 	mov	r0, r4
   12290:	e59f14cc 	ldr	r1, [pc, #1228]	; 12764 <main+0x7230>
   12294:	e3a02004 	mov	r2, #4
   12298:	ebffdd5c 	bl	9810 <strncmp@plt>
   1229c:	e3500000 	cmp	r0, #0
   122a0:	11a00004 	movne	r0, r4
   122a4:	159f14bc 	ldrne	r1, [pc, #1212]	; 12768 <main+0x7234>
   122a8:	13a02004 	movne	r2, #4
   122ac:	1bffdd57 	blne	9810 <strncmp@plt>
   122b0:	e59f04a0 	ldr	r0, [pc, #1184]	; 12758 <main+0x7224>
   122b4:	ebffdcad 	bl	9570 <printf@plt>
   122b8:	e1a00005 	mov	r0, r5
   122bc:	ebffdd89 	bl	98e8 <fclose@plt>
   122c0:	e28d4e12 	add	r4, sp, #288	; 0x120
   122c4:	e24440dc 	sub	r4, r4, #220	; 0xdc
   122c8:	e59f049c 	ldr	r0, [pc, #1180]	; 1276c <main+0x7238>
   122cc:	e1a01004 	mov	r1, r4
   122d0:	ebffdcca 	bl	9600 <sncfg_get@plt>
   122d4:	e3500001 	cmp	r0, #1
   122d8:	0a000002 	beq	122e8 <main+0x6db4>
   122dc:	e5941000 	ldr	r1, [r4]
   122e0:	e3510000 	cmp	r1, #0
   122e4:	1a000002 	bne	122f4 <main+0x6dc0>
   122e8:	e3a00023 	mov	r0, #35	; 0x23
   122ec:	ebffdc93 	bl	9540 <putchar@plt>
   122f0:	ea000001 	b	122fc <main+0x6dc8>
   122f4:	e59f0474 	ldr	r0, [pc, #1140]	; 12770 <main+0x723c>
   122f8:	ebffdc9c 	bl	9570 <printf@plt>
   122fc:	e28d4e12 	add	r4, sp, #288	; 0x120
   12300:	e24440dc 	sub	r4, r4, #220	; 0xdc
   12304:	e59f0468 	ldr	r0, [pc, #1128]	; 12774 <main+0x7240>
   12308:	e1a01004 	mov	r1, r4
   1230c:	ebffdcbb 	bl	9600 <sncfg_get@plt>
   12310:	e3500001 	cmp	r0, #1
   12314:	0a000002 	beq	12324 <main+0x6df0>
   12318:	e5941000 	ldr	r1, [r4]
   1231c:	e3510000 	cmp	r1, #0
   12320:	1a000002 	bne	12330 <main+0x6dfc>
   12324:	e3a00023 	mov	r0, #35	; 0x23
   12328:	ebffdc84 	bl	9540 <putchar@plt>
   1232c:	ea000167 	b	128d0 <main+0x739c>
   12330:	e59f0438 	ldr	r0, [pc, #1080]	; 12770 <main+0x723c>
   12334:	ebffdc8d 	bl	9570 <printf@plt>
   12338:	ea000164 	b	128d0 <main+0x739c>
   1233c:	e1a00005 	mov	r0, r5
   12340:	e59f1430 	ldr	r1, [pc, #1072]	; 12778 <main+0x7244>
   12344:	ebffdd70 	bl	990c <strcmp@plt>
   12348:	e3500000 	cmp	r0, #0
   1234c:	1a000055 	bne	124a8 <main+0x6f74>
   12350:	e28d4e42 	add	r4, sp, #1056	; 0x420
   12354:	e2444078 	sub	r4, r4, #120	; 0x78
   12358:	e59f02a8 	ldr	r0, [pc, #680]	; 12608 <main+0x70d4>
   1235c:	ebffdcbc 	bl	9654 <puts@plt>
   12360:	e28d5e12 	add	r5, sp, #288	; 0x120
   12364:	e59f1410 	ldr	r1, [pc, #1040]	; 1277c <main+0x7248>
   12368:	e3a02084 	mov	r2, #132	; 0x84
   1236c:	e1a00004 	mov	r0, r4
   12370:	ebffdcb1 	bl	963c <memcpy@plt>
   12374:	e24550e0 	sub	r5, r5, #224	; 0xe0
   12378:	e1a00004 	mov	r0, r4
   1237c:	ebffe35d 	bl	b0f8 <print_init_wifi>
   12380:	e59f03ec 	ldr	r0, [pc, #1004]	; 12774 <main+0x7240>
   12384:	e1a01005 	mov	r1, r5
   12388:	ebffdc9c 	bl	9600 <sncfg_get@plt>
   1238c:	e3500001 	cmp	r0, #1
   12390:	0a000002 	beq	123a0 <main+0x6e6c>
   12394:	e5951000 	ldr	r1, [r5]
   12398:	e3510000 	cmp	r1, #0
   1239c:	1a000002 	bne	123ac <main+0x6e78>
   123a0:	e3a00023 	mov	r0, #35	; 0x23
   123a4:	ebffdc65 	bl	9540 <putchar@plt>
   123a8:	ea000001 	b	123b4 <main+0x6e80>
   123ac:	e59f03bc 	ldr	r0, [pc, #956]	; 12770 <main+0x723c>
   123b0:	ebffdc6e 	bl	9570 <printf@plt>
   123b4:	e28d4e12 	add	r4, sp, #288	; 0x120
   123b8:	e24440e0 	sub	r4, r4, #224	; 0xe0
   123bc:	e59f03bc 	ldr	r0, [pc, #956]	; 12780 <main+0x724c>
   123c0:	e1a01004 	mov	r1, r4
   123c4:	ebffdc8d 	bl	9600 <sncfg_get@plt>
   123c8:	e3500001 	cmp	r0, #1
   123cc:	0a000002 	beq	123dc <main+0x6ea8>
   123d0:	e5941000 	ldr	r1, [r4]
   123d4:	e3510000 	cmp	r1, #0
   123d8:	1a000002 	bne	123e8 <main+0x6eb4>
   123dc:	e3a00023 	mov	r0, #35	; 0x23
   123e0:	ebffdc56 	bl	9540 <putchar@plt>
   123e4:	ea000001 	b	123f0 <main+0x6ebc>
   123e8:	e59f0380 	ldr	r0, [pc, #896]	; 12770 <main+0x723c>
   123ec:	ebffdc5f 	bl	9570 <printf@plt>
   123f0:	e28d4e12 	add	r4, sp, #288	; 0x120
   123f4:	e24440e0 	sub	r4, r4, #224	; 0xe0
   123f8:	e59f0384 	ldr	r0, [pc, #900]	; 12784 <main+0x7250>
   123fc:	e1a01004 	mov	r1, r4
   12400:	ebffdc7e 	bl	9600 <sncfg_get@plt>
   12404:	e3500001 	cmp	r0, #1
   12408:	0a000002 	beq	12418 <main+0x6ee4>
   1240c:	e5941000 	ldr	r1, [r4]
   12410:	e3510000 	cmp	r1, #0
   12414:	1a000002 	bne	12424 <main+0x6ef0>
   12418:	e3a00023 	mov	r0, #35	; 0x23
   1241c:	ebffdc47 	bl	9540 <putchar@plt>
   12420:	ea000001 	b	1242c <main+0x6ef8>
   12424:	e59f0344 	ldr	r0, [pc, #836]	; 12770 <main+0x723c>
   12428:	ebffdc50 	bl	9570 <printf@plt>
   1242c:	e28d4e12 	add	r4, sp, #288	; 0x120
   12430:	e24440e0 	sub	r4, r4, #224	; 0xe0
   12434:	e59f034c 	ldr	r0, [pc, #844]	; 12788 <main+0x7254>
   12438:	e1a01004 	mov	r1, r4
   1243c:	ebffdc6f 	bl	9600 <sncfg_get@plt>
   12440:	e3500001 	cmp	r0, #1
   12444:	0a000002 	beq	12454 <main+0x6f20>
   12448:	e5941000 	ldr	r1, [r4]
   1244c:	e3510000 	cmp	r1, #0
   12450:	1a000002 	bne	12460 <main+0x6f2c>
   12454:	e3a00023 	mov	r0, #35	; 0x23
   12458:	ebffdc38 	bl	9540 <putchar@plt>
   1245c:	ea000001 	b	12468 <main+0x6f34>
   12460:	e59f0308 	ldr	r0, [pc, #776]	; 12770 <main+0x723c>
   12464:	ebffdc41 	bl	9570 <printf@plt>
   12468:	e28d4e12 	add	r4, sp, #288	; 0x120
   1246c:	e24440e0 	sub	r4, r4, #224	; 0xe0
   12470:	e59f0314 	ldr	r0, [pc, #788]	; 1278c <main+0x7258>
   12474:	e1a01004 	mov	r1, r4
   12478:	ebffdc60 	bl	9600 <sncfg_get@plt>
   1247c:	e3500001 	cmp	r0, #1
   12480:	0a000002 	beq	12490 <main+0x6f5c>
   12484:	e5941000 	ldr	r1, [r4]
   12488:	e3510000 	cmp	r1, #0
   1248c:	1a000002 	bne	1249c <main+0x6f68>
   12490:	e3a00023 	mov	r0, #35	; 0x23
   12494:	ebffdc29 	bl	9540 <putchar@plt>
   12498:	ea00010c 	b	128d0 <main+0x739c>
   1249c:	e59f02cc 	ldr	r0, [pc, #716]	; 12770 <main+0x723c>
   124a0:	ebffdc32 	bl	9570 <printf@plt>
   124a4:	ea000109 	b	128d0 <main+0x739c>
   124a8:	e1a00005 	mov	r0, r5
   124ac:	e59f12dc 	ldr	r1, [pc, #732]	; 12790 <main+0x725c>
   124b0:	ebffdd15 	bl	990c <strcmp@plt>
   124b4:	e3500000 	cmp	r0, #0
   124b8:	1a000021 	bne	12544 <main+0x7010>
   124bc:	e28d4e42 	add	r4, sp, #1056	; 0x420
   124c0:	e24440d0 	sub	r4, r4, #208	; 0xd0
   124c4:	e59f013c 	ldr	r0, [pc, #316]	; 12608 <main+0x70d4>
   124c8:	ebffdc61 	bl	9654 <puts@plt>
   124cc:	e59f02c0 	ldr	r0, [pc, #704]	; 12794 <main+0x7260>
   124d0:	e1a01004 	mov	r1, r4
   124d4:	ebffdd1e 	bl	9954 <stat@plt>
   124d8:	e3500000 	cmp	r0, #0
   124dc:	0a000002 	beq	124ec <main+0x6fb8>
   124e0:	e3a00030 	mov	r0, #48	; 0x30
   124e4:	ebffdc15 	bl	9540 <putchar@plt>
   124e8:	ea000002 	b	124f8 <main+0x6fc4>
   124ec:	e594102c 	ldr	r1, [r4, #44]	; 0x2c
   124f0:	e59f02a0 	ldr	r0, [pc, #672]	; 12798 <main+0x7264>
   124f4:	ebffdc1d 	bl	9570 <printf@plt>
   124f8:	e28d4e32 	add	r4, sp, #800	; 0x320
   124fc:	e2444018 	sub	r4, r4, #24
   12500:	e59f0294 	ldr	r0, [pc, #660]	; 1279c <main+0x7268>
   12504:	e1a01004 	mov	r1, r4
   12508:	ebffdcdb 	bl	987c <statvfs@plt>
   1250c:	e3500000 	cmp	r0, #0
   12510:	1a000008 	bne	12538 <main+0x7004>
   12514:	e28d1c8b 	add	r1, sp, #35584	; 0x8b00
   12518:	e59f2280 	ldr	r2, [pc, #640]	; 127a0 <main+0x726c>
   1251c:	e2811020 	add	r1, r1, #32
   12520:	e5943010 	ldr	r3, [r4, #16]
   12524:	e7912002 	ldr	r2, [r1, r2]
   12528:	e59f0274 	ldr	r0, [pc, #628]	; 127a4 <main+0x7270>
   1252c:	e0010392 	mul	r1, r2, r3
   12530:	ebffdc0e 	bl	9570 <printf@plt>
   12534:	ea0000e5 	b	128d0 <main+0x739c>
   12538:	e59f01e8 	ldr	r0, [pc, #488]	; 12728 <main+0x71f4>
   1253c:	ebffdc0b 	bl	9570 <printf@plt>
   12540:	ea0000e2 	b	128d0 <main+0x739c>
   12544:	e1a00005 	mov	r0, r5
   12548:	e59f1258 	ldr	r1, [pc, #600]	; 127a8 <main+0x7274>
   1254c:	ebffdcee 	bl	990c <strcmp@plt>
   12550:	e3500000 	cmp	r0, #0
   12554:	1a00000c 	bne	1258c <main+0x7058>
   12558:	e59f00a8 	ldr	r0, [pc, #168]	; 12608 <main+0x70d4>
   1255c:	ebffdc3c 	bl	9654 <puts@plt>
   12560:	e59f0244 	ldr	r0, [pc, #580]	; 127ac <main+0x7278>
   12564:	e59f10ac 	ldr	r1, [pc, #172]	; 12618 <main+0x70e4>
   12568:	ebffdccf 	bl	98ac <fopen@plt>
   1256c:	e3500000 	cmp	r0, #0
   12570:	0a000002 	beq	12580 <main+0x704c>
   12574:	e3a00031 	mov	r0, #49	; 0x31
   12578:	ebffdbf0 	bl	9540 <putchar@plt>
   1257c:	ea0000d3 	b	128d0 <main+0x739c>
   12580:	e3a00030 	mov	r0, #48	; 0x30
   12584:	ebffdbed 	bl	9540 <putchar@plt>
   12588:	ea0000d0 	b	128d0 <main+0x739c>
   1258c:	e1a00005 	mov	r0, r5
   12590:	e59f1218 	ldr	r1, [pc, #536]	; 127b0 <main+0x727c>
   12594:	ebffdcdc 	bl	990c <strcmp@plt>
   12598:	e3500000 	cmp	r0, #0
   1259c:	1a000094 	bne	127f4 <main+0x72c0>
   125a0:	e59f0060 	ldr	r0, [pc, #96]	; 12608 <main+0x70d4>
   125a4:	ebffdc2a 	bl	9654 <puts@plt>
   125a8:	e59f0204 	ldr	r0, [pc, #516]	; 127b4 <main+0x7280>
   125ac:	e59f1064 	ldr	r1, [pc, #100]	; 12618 <main+0x70e4>
   125b0:	ebffdcbd 	bl	98ac <fopen@plt>
   125b4:	e2505000 	subs	r5, r0, #0
   125b8:	1a000006 	bne	125d8 <main+0x70a4>
   125bc:	e59f01f4 	ldr	r0, [pc, #500]	; 127b8 <main+0x7284>
   125c0:	ebffdbea 	bl	9570 <printf@plt>
   125c4:	ea0000c1 	b	128d0 <main+0x739c>
   125c8:	ebffdc15 	bl	9624 <fgets@plt>
   125cc:	e3500000 	cmp	r0, #0
   125d0:	e1a00004 	mov	r0, r4
   125d4:	1bffdc1e 	blne	9654 <puts@plt>
   125d8:	e1a00005 	mov	r0, r5
   125dc:	ebffdc22 	bl	966c <feof@plt>
   125e0:	e28d4e12 	add	r4, sp, #288	; 0x120
   125e4:	e244400c 	sub	r4, r4, #12
   125e8:	e3500000 	cmp	r0, #0
   125ec:	e3a01f7d 	mov	r1, #500	; 0x1f4
   125f0:	e1a02005 	mov	r2, r5
   125f4:	e1a00004 	mov	r0, r4
   125f8:	0afffff2 	beq	125c8 <main+0x7094>
   125fc:	ea0000b3 	b	128d0 <main+0x739c>
   12600:	0001928c 	andeq	r9, r1, ip, lsl #5
   12604:	00018944 	andeq	r8, r1, r4, asr #18
   12608:	000153f8 	strdeq	r5, [r1], -r8
   1260c:	000192a0 	andeq	r9, r1, r0, lsr #5
   12610:	0001895c 	andeq	r8, r1, ip, asr r9
   12614:	000189c4 	andeq	r8, r1, r4, asr #19
   12618:	000187ac 	andeq	r8, r1, ip, lsr #15
   1261c:	000189d4 	ldrdeq	r8, [r1], -r4
   12620:	00018a04 	andeq	r8, r1, r4, lsl #20
   12624:	ffffa338 			; <UNDEFINED> instruction: 0xffffa338
   12628:	000143d8 	ldrdeq	r4, [r1], -r8
   1262c:	00018a1c 	andeq	r8, r1, ip, lsl sl
   12630:	00018a20 	andeq	r8, r1, r0, lsr #20
   12634:	00018a40 	andeq	r8, r1, r0, asr #20
   12638:	00018a44 	andeq	r8, r1, r4, asr #20
   1263c:	00018a50 	andeq	r8, r1, r0, asr sl
   12640:	00018a60 	andeq	r8, r1, r0, ror #20
   12644:	000192c8 	andeq	r9, r1, r8, asr #5
   12648:	00018a78 	andeq	r8, r1, r8, ror sl
   1264c:	000192e4 	andeq	r9, r1, r4, ror #5
   12650:	00018a90 	muleq	r1, r0, sl
   12654:	000192f0 	strdeq	r9, [r1], -r0
   12658:	00018ab4 			; <UNDEFINED> instruction: 0x00018ab4
   1265c:	000192f8 	strdeq	r9, [r1], -r8
   12660:	00018ad4 	ldrdeq	r8, [r1], -r4
   12664:	00019300 	andeq	r9, r1, r0, lsl #6
   12668:	00018aec 	andeq	r8, r1, ip, ror #21
   1266c:	00019320 	andeq	r9, r1, r0, lsr #6
   12670:	00018b0c 	andeq	r8, r1, ip, lsl #22
   12674:	0001908c 	andeq	r9, r1, ip, lsl #1
   12678:	00018b28 	andeq	r8, r1, r8, lsr #22
   1267c:	00018b48 	andeq	r8, r1, r8, asr #22
   12680:	00018b54 	andeq	r8, r1, r4, asr fp
   12684:	00018b7c 	andeq	r8, r1, ip, ror fp
   12688:	00018b80 	andeq	r8, r1, r0, lsl #23
   1268c:	00018b98 	muleq	r1, r8, fp
   12690:	00018b84 	andeq	r8, r1, r4, lsl #23
   12694:	00018bac 	andeq	r8, r1, ip, lsr #23
   12698:	00018bb4 			; <UNDEFINED> instruction: 0x00018bb4
   1269c:	00018bec 	andeq	r8, r1, ip, ror #23
   126a0:	00018bf8 	strdeq	r8, [r1], -r8	; <UNPREDICTABLE>
   126a4:	00018c30 	andeq	r8, r1, r0, lsr ip
   126a8:	0001934c 	andeq	r9, r1, ip, asr #6
   126ac:	00018c50 	andeq	r8, r1, r0, asr ip
   126b0:	00018c6c 	andeq	r8, r1, ip, ror #24
   126b4:	00018c8c 	andeq	r8, r1, ip, lsl #25
   126b8:	00018cb4 			; <UNDEFINED> instruction: 0x00018cb4
   126bc:	00018ccc 	andeq	r8, r1, ip, asr #25
   126c0:	00018cb8 			; <UNDEFINED> instruction: 0x00018cb8
   126c4:	00018ce0 	andeq	r8, r1, r0, ror #25
   126c8:	00018d18 	andeq	r8, r1, r8, lsl sp
   126cc:	00018d54 	andeq	r8, r1, r4, asr sp
   126d0:	00019380 	andeq	r9, r1, r0, lsl #7
   126d4:	00018d74 	andeq	r8, r1, r4, ror sp
   126d8:	00017578 	andeq	r7, r1, r8, ror r5
   126dc:	0001758c 	andeq	r7, r1, ip, lsl #11
   126e0:	00018d8c 	andeq	r8, r1, ip, lsl #27
   126e4:	00018d98 	muleq	r1, r8, sp
   126e8:	000193b0 			; <UNDEFINED> instruction: 0x000193b0
   126ec:	00018db8 			; <UNDEFINED> instruction: 0x00018db8
   126f0:	0001786c 	andeq	r7, r1, ip, ror #16
   126f4:	00017880 	andeq	r7, r1, r0, lsl #17
   126f8:	00018dd0 	ldrdeq	r8, [r1], -r0
   126fc:	00018ddc 	ldrdeq	r8, [r1], -ip
   12700:	00017904 	andeq	r7, r1, r4, lsl #18
   12704:	00017914 	andeq	r7, r1, r4, lsl r9
   12708:	00017928 	andeq	r7, r1, r8, lsr #18
   1270c:	ffff7be0 			; <UNDEFINED> instruction: 0xffff7be0
   12710:	00018dfc 	strdeq	r8, [r1], -ip
   12714:	000193e4 	andeq	r9, r1, r4, ror #7
   12718:	00017b48 	andeq	r7, r1, r8, asr #22
   1271c:	00018e18 	andeq	r8, r1, r8, lsl lr
   12720:	00019404 	andeq	r9, r1, r4, lsl #8
   12724:	000186b4 			; <UNDEFINED> instruction: 0x000186b4
   12728:	000188bc 			; <UNDEFINED> instruction: 0x000188bc
   1272c:	000188c0 	andeq	r8, r1, r0, asr #17
   12730:	00018708 	andeq	r8, r1, r8, lsl #14
   12734:	00018e34 	andeq	r8, r1, r4, lsr lr
   12738:	00019428 	andeq	r9, r1, r8, lsr #8
   1273c:	00018e50 	andeq	r8, r1, r0, asr lr
   12740:	00019458 	andeq	r9, r1, r8, asr r4
   12744:	00018eac 	andeq	r8, r1, ip, lsr #29
   12748:	00019470 	andeq	r9, r1, r0, ror r4
   1274c:	00018ec8 	andeq	r8, r1, r8, asr #29
   12750:	00019498 	muleq	r1, r8, r4
   12754:	00018efc 	strdeq	r8, [r1], -ip
   12758:	00018f20 	andeq	r8, r1, r0, lsr #30
   1275c:	00018f24 	andeq	r8, r1, r4, lsr #30
   12760:	00018f2c 	andeq	r8, r1, ip, lsr #30
   12764:	00018f34 	andeq	r8, r1, r4, lsr pc
   12768:	00018f3c 	andeq	r8, r1, ip, lsr pc
   1276c:	00018800 	andeq	r8, r1, r0, lsl #16
   12770:	00018f44 	andeq	r8, r1, r4, asr #30
   12774:	000154c4 	andeq	r5, r1, r4, asr #9
   12778:	00018f48 	andeq	r8, r1, r8, asr #30
   1277c:	000194c4 	andeq	r9, r1, r4, asr #9
   12780:	00018f64 	andeq	r8, r1, r4, ror #30
   12784:	00018f80 	andeq	r8, r1, r0, lsl #31
   12788:	00018f98 	muleq	r1, r8, pc	; <UNPREDICTABLE>
   1278c:	00018fac 	andeq	r8, r1, ip, lsr #31
   12790:	00018fc4 	andeq	r8, r1, r4, asr #31
   12794:	00018fd4 	ldrdeq	r8, [r1], -r4
   12798:	0001444c 	andeq	r4, r1, ip, asr #8
   1279c:	00018fe0 	andeq	r8, r1, r0, ror #31
   127a0:	ffff77e8 			; <UNDEFINED> instruction: 0xffff77e8
   127a4:	00018fe8 	andeq	r8, r1, r8, ror #31
   127a8:	00018ff0 	strdeq	r8, [r1], -r0
   127ac:	00019000 	andeq	r9, r1, r0
   127b0:	0001900c 	andeq	r9, r1, ip
   127b4:	00019028 	andeq	r9, r1, r8, lsr #32
   127b8:	0001903c 	andeq	r9, r1, ip, lsr r0
   127bc:	00014f64 	andeq	r4, r1, r4, ror #30
   127c0:	00019054 	andeq	r9, r1, r4, asr r0
   127c4:	00018e6c 	andeq	r8, r1, ip, ror #28
   127c8:	00021818 	andeq	r1, r2, r8, lsl r8
   127cc:	00018e7c 	andeq	r8, r1, ip, ror lr
   127d0:	00018e88 	andeq	r8, r1, r8, lsl #29
   127d4:	00018e94 	muleq	r1, r4, lr
   127d8:	00018ea0 	andeq	r8, r1, r0, lsr #29
   127dc:	000153f8 	strdeq	r5, [r1], -r8
   127e0:	00015410 	andeq	r5, r1, r0, lsl r4
   127e4:	00019064 	andeq	r9, r1, r4, rrx
   127e8:	00015450 	andeq	r5, r1, r0, asr r4
   127ec:	0001451c 	andeq	r4, r1, ip, lsl r5
   127f0:	00019088 	andeq	r9, r1, r8, lsl #1
   127f4:	e1a00005 	mov	r0, r5
   127f8:	e51f1044 	ldr	r1, [pc, #-68]	; 127bc <main+0x7288>
   127fc:	ebffdc42 	bl	990c <strcmp@plt>
   12800:	e3500000 	cmp	r0, #0
   12804:	1a00002c 	bne	128bc <main+0x7388>
   12808:	e1a01007 	mov	r1, r7
   1280c:	e51f0054 	ldr	r0, [pc, #-84]	; 127c0 <main+0x728c>
   12810:	ebffde0d 	bl	a04c <init_obj>
   12814:	e51f0058 	ldr	r0, [pc, #-88]	; 127c4 <main+0x7290>
   12818:	ebffdd8a 	bl	9e48 <get_cgi>
   1281c:	e1a01000 	mov	r1, r0
   12820:	e1a04000 	mov	r4, r0
   12824:	e51f0068 	ldr	r0, [pc, #-104]	; 127c4 <main+0x7290>
   12828:	ebffe15d 	bl	ada4 <Sncfg_set>
   1282c:	e51f306c 	ldr	r3, [pc, #-108]	; 127c8 <main+0x7294>
   12830:	e1a00004 	mov	r0, r4
   12834:	e5931000 	ldr	r1, [r3]
   12838:	ebffdc33 	bl	990c <strcmp@plt>
   1283c:	e3500000 	cmp	r0, #0
   12840:	1a000013 	bne	12894 <main+0x7360>
   12844:	e51f0080 	ldr	r0, [pc, #-128]	; 127cc <main+0x7298>
   12848:	ebffdd7e 	bl	9e48 <get_cgi>
   1284c:	e1a01000 	mov	r1, r0
   12850:	e51f008c 	ldr	r0, [pc, #-140]	; 127cc <main+0x7298>
   12854:	ebffe152 	bl	ada4 <Sncfg_set>
   12858:	e51f0090 	ldr	r0, [pc, #-144]	; 127d0 <main+0x729c>
   1285c:	ebffdd79 	bl	9e48 <get_cgi>
   12860:	e1a01000 	mov	r1, r0
   12864:	e51f009c 	ldr	r0, [pc, #-156]	; 127d0 <main+0x729c>
   12868:	ebffe14d 	bl	ada4 <Sncfg_set>
   1286c:	e51f00a0 	ldr	r0, [pc, #-160]	; 127d4 <main+0x72a0>
   12870:	ebffdd74 	bl	9e48 <get_cgi>
   12874:	e1a01000 	mov	r1, r0
   12878:	e51f00ac 	ldr	r0, [pc, #-172]	; 127d4 <main+0x72a0>
   1287c:	ebffe148 	bl	ada4 <Sncfg_set>
   12880:	e51f00b0 	ldr	r0, [pc, #-176]	; 127d8 <main+0x72a4>
   12884:	ebffdd6f 	bl	9e48 <get_cgi>
   12888:	e1a01000 	mov	r1, r0
   1288c:	e51f00bc 	ldr	r0, [pc, #-188]	; 127d8 <main+0x72a4>
   12890:	ebffe143 	bl	ada4 <Sncfg_set>
   12894:	ebffdbb6 	bl	9774 <sncfg_commit@plt>
   12898:	e51f00c4 	ldr	r0, [pc, #-196]	; 127dc <main+0x72a8>
   1289c:	ebffdb6c 	bl	9654 <puts@plt>
   128a0:	e51f00c8 	ldr	r0, [pc, #-200]	; 127e0 <main+0x72ac>
   128a4:	ebffdb31 	bl	9570 <printf@plt>
   128a8:	e51f00cc 	ldr	r0, [pc, #-204]	; 127e4 <main+0x72b0>
   128ac:	ebffdb2f 	bl	9570 <printf@plt>
   128b0:	e51f00d0 	ldr	r0, [pc, #-208]	; 127e8 <main+0x72b4>
   128b4:	ebffdb2d 	bl	9570 <printf@plt>
   128b8:	ea000004 	b	128d0 <main+0x739c>
   128bc:	e51f00d8 	ldr	r0, [pc, #-216]	; 127ec <main+0x72b8>
   128c0:	ebffdd60 	bl	9e48 <get_cgi>
   128c4:	e1a01000 	mov	r1, r0
   128c8:	e51f00e0 	ldr	r0, [pc, #-224]	; 127f0 <main+0x72bc>
   128cc:	ebffdb27 	bl	9570 <printf@plt>
   128d0:	e3a00000 	mov	r0, #0
   128d4:	e28ddeb2 	add	sp, sp, #2848	; 0xb20
   128d8:	e28dd902 	add	sp, sp, #32768	; 0x8000
   128dc:	e8bd4ff0 	pop	{r4, r5, r6, r7, r8, r9, sl, fp, lr}
   128e0:	e12fff1e 	bx	lr

000128e4 <do_readline>:
   128e4:	e92d40f0 	push	{r4, r5, r6, r7, lr}
   128e8:	e2713001 	rsbs	r3, r1, #1
   128ec:	33a03000 	movcc	r3, #0
   128f0:	e1933fa0 	orrs	r3, r3, r0, lsr #31
   128f4:	e24dd004 	sub	sp, sp, #4
   128f8:	e1a05001 	mov	r5, r1
   128fc:	e1a07000 	mov	r7, r0
   12900:	e3a04000 	mov	r4, #0
   12904:	1a000001 	bne	12910 <do_readline+0x2c>
   12908:	e1520004 	cmp	r2, r4
   1290c:	ca000001 	bgt	12918 <do_readline+0x34>
   12910:	e3e00000 	mvn	r0, #0
   12914:	ea000011 	b	12960 <do_readline+0x7c>
   12918:	e1a00001 	mov	r0, r1
   1291c:	e1a01004 	mov	r1, r4
   12920:	e2426001 	sub	r6, r2, #1
   12924:	ebffdbe6 	bl	98c4 <memset@plt>
   12928:	e1540006 	cmp	r4, r6
   1292c:	aa00000a 	bge	1295c <do_readline+0x78>
   12930:	e1a00007 	mov	r0, r7
   12934:	e28d1003 	add	r1, sp, #3
   12938:	e3a02001 	mov	r2, #1
   1293c:	ebffdbb0 	bl	9804 <read@plt>
   12940:	e3500001 	cmp	r0, #1
   12944:	1a000004 	bne	1295c <do_readline+0x78>
   12948:	e5dd3003 	ldrb	r3, [sp, #3]
   1294c:	e353000a 	cmp	r3, #10
   12950:	e7c43005 	strb	r3, [r4, r5]
   12954:	e2844001 	add	r4, r4, #1
   12958:	1afffff2 	bne	12928 <do_readline+0x44>
   1295c:	e1a00004 	mov	r0, r4
   12960:	e28dd004 	add	sp, sp, #4
   12964:	e8bd40f0 	pop	{r4, r5, r6, r7, lr}
   12968:	e12fff1e 	bx	lr

0001296c <do_writeline>:
   1296c:	e92d4030 	push	{r4, r5, lr}
   12970:	e1a05000 	mov	r5, r0
   12974:	e1a00001 	mov	r0, r1
   12978:	e1a04001 	mov	r4, r1
   1297c:	ebffdc0f 	bl	99c0 <strlen@plt>
   12980:	e1a01004 	mov	r1, r4
   12984:	e1a02000 	mov	r2, r0
   12988:	e1a00005 	mov	r0, r5
   1298c:	ebffdb7b 	bl	9780 <write@plt>
   12990:	e8bd4030 	pop	{r4, r5, lr}
   12994:	e12fff1e 	bx	lr

00012998 <do_find>:
   12998:	e92d40f0 	push	{r4, r5, r6, r7, lr}
   1299c:	e59f2058 	ldr	r2, [pc, #88]	; 129fc <do_find+0x64>
   129a0:	e5923000 	ldr	r3, [r2]
   129a4:	e3530000 	cmp	r3, #0
   129a8:	e1a07000 	mov	r7, r0
   129ac:	e3a06000 	mov	r6, #0
   129b0:	0a00000e 	beq	129f0 <do_find+0x58>
   129b4:	e1a04006 	mov	r4, r6
   129b8:	e1a05006 	mov	r5, r6
   129bc:	e7950002 	ldr	r0, [r5, r2]
   129c0:	e1a01007 	mov	r1, r7
   129c4:	ebffdbd0 	bl	990c <strcmp@plt>
   129c8:	e3500000 	cmp	r0, #0
   129cc:	e2844003 	add	r4, r4, #3
   129d0:	e2855018 	add	r5, r5, #24
   129d4:	e59f2020 	ldr	r2, [pc, #32]	; 129fc <do_find+0x64>
   129d8:	01a00006 	moveq	r0, r6
   129dc:	0a000004 	beq	129f4 <do_find+0x5c>
   129e0:	e7923184 	ldr	r3, [r2, r4, lsl #3]
   129e4:	e3530000 	cmp	r3, #0
   129e8:	e2866001 	add	r6, r6, #1
   129ec:	1afffff2 	bne	129bc <do_find+0x24>
   129f0:	e3e00000 	mvn	r0, #0
   129f4:	e8bd40f0 	pop	{r4, r5, r6, r7, lr}
   129f8:	e12fff1e 	bx	lr
   129fc:	0002181c 	andeq	r1, r2, ip, lsl r8

00012a00 <do_addNode>:
   12a00:	e92d41f0 	push	{r4, r5, r6, r7, r8, lr}
   12a04:	e5904000 	ldr	r4, [r0]
   12a08:	e1a08000 	mov	r8, r0
   12a0c:	e3540000 	cmp	r4, #0
   12a10:	e1a06001 	mov	r6, r1
   12a14:	e1a07002 	mov	r7, r2
   12a18:	0a000007 	beq	12a3c <do_addNode+0x3c>
   12a1c:	e5941000 	ldr	r1, [r4]
   12a20:	e1a00006 	mov	r0, r6
   12a24:	ebffdbb8 	bl	990c <strcmp@plt>
   12a28:	e3500000 	cmp	r0, #0
   12a2c:	0a000028 	beq	12ad4 <do_addNode+0xd4>
   12a30:	e5943008 	ldr	r3, [r4, #8]
   12a34:	e2534000 	subs	r4, r3, #0
   12a38:	eafffff6 	b	12a18 <do_addNode+0x18>
   12a3c:	e3a0000c 	mov	r0, #12
   12a40:	ebffdb0f 	bl	9684 <malloc@plt>
   12a44:	e1a05000 	mov	r5, r0
   12a48:	e1a00006 	mov	r0, r6
   12a4c:	ebffdbdb 	bl	99c0 <strlen@plt>
   12a50:	e2800001 	add	r0, r0, #1
   12a54:	ebffdb0a 	bl	9684 <malloc@plt>
   12a58:	e5850000 	str	r0, [r5]
   12a5c:	e1a00007 	mov	r0, r7
   12a60:	ebffdbd6 	bl	99c0 <strlen@plt>
   12a64:	e2800001 	add	r0, r0, #1
   12a68:	ebffdb05 	bl	9684 <malloc@plt>
   12a6c:	e5850004 	str	r0, [r5, #4]
   12a70:	e1a00006 	mov	r0, r6
   12a74:	ebffdbd1 	bl	99c0 <strlen@plt>
   12a78:	e3a01000 	mov	r1, #0
   12a7c:	e2802001 	add	r2, r0, #1
   12a80:	e5950000 	ldr	r0, [r5]
   12a84:	ebffdb8e 	bl	98c4 <memset@plt>
   12a88:	e1a00007 	mov	r0, r7
   12a8c:	ebffdbcb 	bl	99c0 <strlen@plt>
   12a90:	e3a01000 	mov	r1, #0
   12a94:	e2802001 	add	r2, r0, #1
   12a98:	e5950004 	ldr	r0, [r5, #4]
   12a9c:	ebffdb88 	bl	98c4 <memset@plt>
   12aa0:	e1a01006 	mov	r1, r6
   12aa4:	e5950000 	ldr	r0, [r5]
   12aa8:	ebffdaa7 	bl	954c <strcpy@plt>
   12aac:	e1a01007 	mov	r1, r7
   12ab0:	e5950004 	ldr	r0, [r5, #4]
   12ab4:	ebffdaa4 	bl	954c <strcpy@plt>
   12ab8:	e5981000 	ldr	r1, [r8]
   12abc:	e3a03000 	mov	r3, #0
   12ac0:	e3510000 	cmp	r1, #0
   12ac4:	e5853008 	str	r3, [r5, #8]
   12ac8:	05885000 	streq	r5, [r8]
   12acc:	0a000010 	beq	12b14 <do_addNode+0x114>
   12ad0:	ea000009 	b	12afc <do_addNode+0xfc>
   12ad4:	e5940004 	ldr	r0, [r4, #4]
   12ad8:	ebffdbd6 	bl	9a38 <free@plt>
   12adc:	e1a00007 	mov	r0, r7
   12ae0:	ebffdbb6 	bl	99c0 <strlen@plt>
   12ae4:	e2800001 	add	r0, r0, #1
   12ae8:	ebffdae5 	bl	9684 <malloc@plt>
   12aec:	e1a01007 	mov	r1, r7
   12af0:	e5840004 	str	r0, [r4, #4]
   12af4:	ebffda94 	bl	954c <strcpy@plt>
   12af8:	ea000005 	b	12b14 <do_addNode+0x114>
   12afc:	e1a04001 	mov	r4, r1
   12b00:	e5943008 	ldr	r3, [r4, #8]
   12b04:	e3530000 	cmp	r3, #0
   12b08:	15944008 	ldrne	r4, [r4, #8]
   12b0c:	1afffffb 	bne	12b00 <do_addNode+0x100>
   12b10:	e5845008 	str	r5, [r4, #8]
   12b14:	e8bd41f0 	pop	{r4, r5, r6, r7, r8, lr}
   12b18:	e12fff1e 	bx	lr

00012b1c <do_str_parse>:
   12b1c:	e92d47f0 	push	{r4, r5, r6, r7, r8, r9, sl, lr}
   12b20:	e1a05001 	mov	r5, r1
   12b24:	e1a09000 	mov	r9, r0
   12b28:	e3a0100a 	mov	r1, #10
   12b2c:	e1a00005 	mov	r0, r5
   12b30:	e1a07002 	mov	r7, r2
   12b34:	e1a08003 	mov	r8, r3
   12b38:	ebffdbac 	bl	99f0 <strchr@plt>
   12b3c:	e3500000 	cmp	r0, #0
   12b40:	13a03000 	movne	r3, #0
   12b44:	e59da020 	ldr	sl, [sp, #32]
   12b48:	e59f114c 	ldr	r1, [pc, #332]	; 12c9c <do_str_parse+0x180>
   12b4c:	15c03000 	strbne	r3, [r0]
   12b50:	e1a00005 	mov	r0, r5
   12b54:	ebffdb96 	bl	99b4 <strspn@plt>
   12b58:	e3a03001 	mov	r3, #1
   12b5c:	e0854000 	add	r4, r5, r0
   12b60:	e1a06000 	mov	r6, r0
   12b64:	e58a3000 	str	r3, [sl]
   12b68:	e5874000 	str	r4, [r7]
   12b6c:	e1a00004 	mov	r0, r4
   12b70:	e3a01023 	mov	r1, #35	; 0x23
   12b74:	ebffdb9d 	bl	99f0 <strchr@plt>
   12b78:	e3500000 	cmp	r0, #0
   12b7c:	0a00000a 	beq	12bac <do_str_parse+0x90>
   12b80:	e7d53006 	ldrb	r3, [r5, r6]
   12b84:	e2535023 	subs	r5, r3, #35	; 0x23
   12b88:	13a03000 	movne	r3, #0
   12b8c:	15c03000 	strbne	r3, [r0]
   12b90:	1a000005 	bne	12bac <do_str_parse+0x90>
   12b94:	e1a00004 	mov	r0, r4
   12b98:	e59f1100 	ldr	r1, [pc, #256]	; 12ca0 <do_str_parse+0x184>
   12b9c:	ebffdb84 	bl	99b4 <strspn@plt>
   12ba0:	e0840000 	add	r0, r4, r0
   12ba4:	e58a5000 	str	r5, [sl]
   12ba8:	e5870000 	str	r0, [r7]
   12bac:	e5974000 	ldr	r4, [r7]
   12bb0:	e5d40000 	ldrb	r0, [r4]
   12bb4:	e3500000 	cmp	r0, #0
   12bb8:	0a000035 	beq	12c94 <do_str_parse+0x178>
   12bbc:	e1a01009 	mov	r1, r9
   12bc0:	e1a00004 	mov	r0, r4
   12bc4:	ebffdb59 	bl	9930 <strcspn@plt>
   12bc8:	e0845000 	add	r5, r4, r0
   12bcc:	e2852001 	add	r2, r5, #1
   12bd0:	e3a03000 	mov	r3, #0
   12bd4:	e7c43000 	strb	r3, [r4, r0]
   12bd8:	e5882000 	str	r2, [r8]
   12bdc:	e5975000 	ldr	r5, [r7]
   12be0:	e1a00005 	mov	r0, r5
   12be4:	ebffdb75 	bl	99c0 <strlen@plt>
   12be8:	e3500000 	cmp	r0, #0
   12bec:	da00000c 	ble	12c24 <do_str_parse+0x108>
   12bf0:	e59f20ac 	ldr	r2, [pc, #172]	; 12ca4 <do_str_parse+0x188>
   12bf4:	e0853000 	add	r3, r5, r0
   12bf8:	e5533001 	ldrb	r3, [r3, #-1]
   12bfc:	e5922000 	ldr	r2, [r2]
   12c00:	e1a03083 	lsl	r3, r3, #1
   12c04:	e19330b2 	ldrh	r3, [r3, r2]
   12c08:	e3130020 	tst	r3, #32
   12c0c:	0a000004 	beq	12c24 <do_str_parse+0x108>
   12c10:	e2400001 	sub	r0, r0, #1
   12c14:	e3500000 	cmp	r0, #0
   12c18:	e0853000 	add	r3, r5, r0
   12c1c:	c5533001 	ldrbgt	r3, [r3, #-1]
   12c20:	cafffff6 	bgt	12c00 <do_str_parse+0xe4>
   12c24:	e3a03000 	mov	r3, #0
   12c28:	e7c53000 	strb	r3, [r5, r0]
   12c2c:	e5984000 	ldr	r4, [r8]
   12c30:	e59f1064 	ldr	r1, [pc, #100]	; 12c9c <do_str_parse+0x180>
   12c34:	e1a00004 	mov	r0, r4
   12c38:	ebffdb5d 	bl	99b4 <strspn@plt>
   12c3c:	e0844000 	add	r4, r4, r0
   12c40:	e5884000 	str	r4, [r8]
   12c44:	e1a00004 	mov	r0, r4
   12c48:	ebffdb5c 	bl	99c0 <strlen@plt>
   12c4c:	e3500000 	cmp	r0, #0
   12c50:	da00000c 	ble	12c88 <do_str_parse+0x16c>
   12c54:	e59f2048 	ldr	r2, [pc, #72]	; 12ca4 <do_str_parse+0x188>
   12c58:	e0843000 	add	r3, r4, r0
   12c5c:	e5533001 	ldrb	r3, [r3, #-1]
   12c60:	e5922000 	ldr	r2, [r2]
   12c64:	e1a03083 	lsl	r3, r3, #1
   12c68:	e19330b2 	ldrh	r3, [r3, r2]
   12c6c:	e3130020 	tst	r3, #32
   12c70:	0a000004 	beq	12c88 <do_str_parse+0x16c>
   12c74:	e2400001 	sub	r0, r0, #1
   12c78:	e3500000 	cmp	r0, #0
   12c7c:	e0843000 	add	r3, r4, r0
   12c80:	c5533001 	ldrbgt	r3, [r3, #-1]
   12c84:	cafffff6 	bgt	12c64 <do_str_parse+0x148>
   12c88:	e3a03000 	mov	r3, #0
   12c8c:	e7c43000 	strb	r3, [r4, r0]
   12c90:	e3a00001 	mov	r0, #1
   12c94:	e8bd47f0 	pop	{r4, r5, r6, r7, r8, r9, sl, lr}
   12c98:	e12fff1e 	bx	lr
   12c9c:	000142c0 	andeq	r4, r1, r0, asr #5
   12ca0:	0001954c 	andeq	r9, r1, ip, asr #10
   12ca4:	0002184c 	andeq	r1, r2, ip, asr #16

00012ca8 <default_init>:
   12ca8:	e92d41f0 	push	{r4, r5, r6, r7, r8, lr}
   12cac:	e1a08000 	mov	r8, r0
   12cb0:	e24ddffe 	sub	sp, sp, #1016	; 0x3f8
   12cb4:	e1a06001 	mov	r6, r1
   12cb8:	ea00000c 	b	12cf0 <default_init+0x48>
   12cbc:	e59c0008 	ldr	r0, [ip, #8]
   12cc0:	e28dc004 	add	ip, sp, #4
   12cc4:	e58dc000 	str	ip, [sp]
   12cc8:	ebffff93 	bl	12b1c <do_str_parse>
   12ccc:	e3500000 	cmp	r0, #0
   12cd0:	0a000006 	beq	12cf0 <default_init+0x48>
   12cd4:	e59d3004 	ldr	r3, [sp, #4]
   12cd8:	e2870004 	add	r0, r7, #4
   12cdc:	e3530000 	cmp	r3, #0
   12ce0:	e0850000 	add	r0, r5, r0
   12ce4:	159d100c 	ldrne	r1, [sp, #12]
   12ce8:	159d2008 	ldrne	r2, [sp, #8]
   12cec:	1bffff43 	blne	12a00 <do_addNode>
   12cf0:	e28d4010 	add	r4, sp, #16
   12cf4:	e1a01004 	mov	r1, r4
   12cf8:	e3a02ffa 	mov	r2, #1000	; 0x3e8
   12cfc:	e1a00008 	mov	r0, r8
   12d00:	ebfffef7 	bl	128e4 <do_readline>
   12d04:	e59f7028 	ldr	r7, [pc, #40]	; 12d34 <default_init+0x8c>
   12d08:	e0863086 	add	r3, r6, r6, lsl #1
   12d0c:	e1a05183 	lsl	r5, r3, #3
   12d10:	e3500000 	cmp	r0, #0
   12d14:	e085c007 	add	ip, r5, r7
   12d18:	e1a01004 	mov	r1, r4
   12d1c:	e28d200c 	add	r2, sp, #12
   12d20:	e28d3008 	add	r3, sp, #8
   12d24:	1affffe4 	bne	12cbc <default_init+0x14>
   12d28:	e28ddffe 	add	sp, sp, #1016	; 0x3f8
   12d2c:	e8bd41f0 	pop	{r4, r5, r6, r7, r8, lr}
   12d30:	e12fff1e 	bx	lr
   12d34:	0002181c 	andeq	r1, r2, ip, lsl r8

00012d38 <confInit>:
   12d38:	e92d4070 	push	{r4, r5, r6, lr}
   12d3c:	e24ddffa 	sub	sp, sp, #1000	; 0x3e8
   12d40:	e1a04000 	mov	r4, r0
   12d44:	ebffff13 	bl	12998 <do_find>
   12d48:	e2505000 	subs	r5, r0, #0
   12d4c:	e59f10a4 	ldr	r1, [pc, #164]	; 12df8 <confInit+0xc0>
   12d50:	e1a00004 	mov	r0, r4
   12d54:	e3a03000 	mov	r3, #0
   12d58:	ba000022 	blt	12de8 <confInit+0xb0>
   12d5c:	ebffdab4 	bl	9834 <strcasecmp@plt>
   12d60:	e3500000 	cmp	r0, #0
   12d64:	e085c085 	add	ip, r5, r5, lsl #1
   12d68:	e59f208c 	ldr	r2, [pc, #140]	; 12dfc <confInit+0xc4>
   12d6c:	e1a0000d 	mov	r0, sp
   12d70:	e59f1088 	ldr	r1, [pc, #136]	; 12e00 <confInit+0xc8>
   12d74:	059f3088 	ldreq	r3, [pc, #136]	; 12e04 <confInit+0xcc>
   12d78:	0793318c 	ldreq	r3, [r3, ip, lsl #3]
   12d7c:	0bffdae8 	bleq	9924 <sprintf@plt>
   12d80:	e3a01000 	mov	r1, #0
   12d84:	e1a0000d 	mov	r0, sp
   12d88:	ebffdb0f 	bl	99cc <open@plt>
   12d8c:	e3700001 	cmn	r0, #1
   12d90:	e1a04000 	mov	r4, r0
   12d94:	e3a01001 	mov	r1, #1
   12d98:	e3a03000 	mov	r3, #0
   12d9c:	0a000011 	beq	12de8 <confInit+0xb0>
   12da0:	ebffda94 	bl	97f8 <flock@plt>
   12da4:	e59f3058 	ldr	r3, [pc, #88]	; 12e04 <confInit+0xcc>
   12da8:	e0852085 	add	r2, r5, r5, lsl #1
   12dac:	e3700001 	cmn	r0, #1
   12db0:	e0836182 	add	r6, r3, r2, lsl #3
   12db4:	e1a01005 	mov	r1, r5
   12db8:	e1a00004 	mov	r0, r4
   12dbc:	e3a03000 	mov	r3, #0
   12dc0:	0a000008 	beq	12de8 <confInit+0xb0>
   12dc4:	e596c010 	ldr	ip, [r6, #16]
   12dc8:	e1a0e00f 	mov	lr, pc
   12dcc:	e12fff1c 	bx	ip
   12dd0:	e3a01008 	mov	r1, #8
   12dd4:	e1a00004 	mov	r0, r4
   12dd8:	ebffda86 	bl	97f8 <flock@plt>
   12ddc:	e1a00004 	mov	r0, r4
   12de0:	ebffdb0b 	bl	9a14 <close@plt>
   12de4:	e5963004 	ldr	r3, [r6, #4]
   12de8:	e1a00003 	mov	r0, r3
   12dec:	e28ddffa 	add	sp, sp, #1000	; 0x3e8
   12df0:	e8bd4070 	pop	{r4, r5, r6, lr}
   12df4:	e12fff1e 	bx	lr
   12df8:	00014508 	andeq	r4, r1, r8, lsl #10
   12dfc:	00019550 	andeq	r9, r1, r0, asr r5
   12e00:	00019558 	andeq	r9, r1, r8, asr r5
   12e04:	0002181c 	andeq	r1, r2, ip, lsl r8

00012e08 <confGetValue>:
   12e08:	e92d4030 	push	{r4, r5, lr}
   12e0c:	e1a05001 	mov	r5, r1
   12e10:	ebfffee0 	bl	12998 <do_find>
   12e14:	e3500000 	cmp	r0, #0
   12e18:	ba000011 	blt	12e64 <confGetValue+0x5c>
   12e1c:	e59f304c 	ldr	r3, [pc, #76]	; 12e70 <confGetValue+0x68>
   12e20:	e0802080 	add	r2, r0, r0, lsl #1
   12e24:	e0833182 	add	r3, r3, r2, lsl #3
   12e28:	e5930004 	ldr	r0, [r3, #4]
   12e2c:	e3500000 	cmp	r0, #0
   12e30:	11a04000 	movne	r4, r0
   12e34:	1a000002 	bne	12e44 <confGetValue+0x3c>
   12e38:	ea000009 	b	12e64 <confGetValue+0x5c>
   12e3c:	e5940004 	ldr	r0, [r4, #4]
   12e40:	ea000008 	b	12e68 <confGetValue+0x60>
   12e44:	e5940000 	ldr	r0, [r4]
   12e48:	e1a01005 	mov	r1, r5
   12e4c:	ebffda78 	bl	9834 <strcasecmp@plt>
   12e50:	e3500000 	cmp	r0, #0
   12e54:	0afffff8 	beq	12e3c <confGetValue+0x34>
   12e58:	e5944008 	ldr	r4, [r4, #8]
   12e5c:	e3540000 	cmp	r4, #0
   12e60:	1afffff7 	bne	12e44 <confGetValue+0x3c>
   12e64:	e59f0008 	ldr	r0, [pc, #8]	; 12e74 <confGetValue+0x6c>
   12e68:	e8bd4030 	pop	{r4, r5, lr}
   12e6c:	e12fff1e 	bx	lr
   12e70:	0002181c 	andeq	r1, r2, ip, lsl r8
   12e74:	000143d8 	ldrdeq	r4, [r1], -r8

00012e78 <confSetValue>:
   12e78:	e92d4030 	push	{r4, r5, lr}
   12e7c:	e1a04001 	mov	r4, r1
   12e80:	e1a05002 	mov	r5, r2
   12e84:	ebfffec3 	bl	12998 <do_find>
   12e88:	e59f302c 	ldr	r3, [pc, #44]	; 12ebc <confSetValue+0x44>
   12e8c:	e3500000 	cmp	r0, #0
   12e90:	e0800080 	add	r0, r0, r0, lsl #1
   12e94:	e0830180 	add	r0, r3, r0, lsl #3
   12e98:	e1a01004 	mov	r1, r4
   12e9c:	e1a02005 	mov	r2, r5
   12ea0:	e3a03000 	mov	r3, #0
   12ea4:	ba000001 	blt	12eb0 <confSetValue+0x38>
   12ea8:	ebfffed4 	bl	12a00 <do_addNode>
   12eac:	e3a03001 	mov	r3, #1
   12eb0:	e1a00003 	mov	r0, r3
   12eb4:	e8bd4030 	pop	{r4, r5, lr}
   12eb8:	e12fff1e 	bx	lr
   12ebc:	00021820 	andeq	r1, r2, r0, lsr #16

00012ec0 <confDelEntry>:
   12ec0:	e92d47f0 	push	{r4, r5, r6, r7, r8, r9, sl, lr}
   12ec4:	e1a08001 	mov	r8, r1
   12ec8:	ebfffeb2 	bl	12998 <do_find>
   12ecc:	e2505000 	subs	r5, r0, #0
   12ed0:	ba00001f 	blt	12f54 <confDelEntry+0x94>
   12ed4:	e59fa080 	ldr	sl, [pc, #128]	; 12f5c <confDelEntry+0x9c>
   12ed8:	e1a07085 	lsl	r7, r5, #1
   12edc:	e0873005 	add	r3, r7, r5
   12ee0:	e08a3183 	add	r3, sl, r3, lsl #3
   12ee4:	e5930004 	ldr	r0, [r3, #4]
   12ee8:	e3500000 	cmp	r0, #0
   12eec:	0a000018 	beq	12f54 <confDelEntry+0x94>
   12ef0:	e1a04000 	mov	r4, r0
   12ef4:	e5946000 	ldr	r6, [r4]
   12ef8:	e1a01008 	mov	r1, r8
   12efc:	e1a00006 	mov	r0, r6
   12f00:	ebffda81 	bl	990c <strcmp@plt>
   12f04:	e3500000 	cmp	r0, #0
   12f08:	1a00000d 	bne	12f44 <confDelEntry+0x84>
   12f0c:	e0873005 	add	r3, r7, r5
   12f10:	e08a0183 	add	r0, sl, r3, lsl #3
   12f14:	e5903004 	ldr	r3, [r0, #4]
   12f18:	e1540003 	cmp	r4, r3
   12f1c:	e5943008 	ldr	r3, [r4, #8]
   12f20:	05803004 	streq	r3, [r0, #4]
   12f24:	15893008 	strne	r3, [r9, #8]
   12f28:	e1a00006 	mov	r0, r6
   12f2c:	ebffdac1 	bl	9a38 <free@plt>
   12f30:	e5940004 	ldr	r0, [r4, #4]
   12f34:	ebffdabf 	bl	9a38 <free@plt>
   12f38:	e1a00004 	mov	r0, r4
   12f3c:	ebffdabd 	bl	9a38 <free@plt>
   12f40:	ea000003 	b	12f54 <confDelEntry+0x94>
   12f44:	e1a09004 	mov	r9, r4
   12f48:	e5944008 	ldr	r4, [r4, #8]
   12f4c:	e3540000 	cmp	r4, #0
   12f50:	1affffe7 	bne	12ef4 <confDelEntry+0x34>
   12f54:	e8bd47f0 	pop	{r4, r5, r6, r7, r8, r9, sl, lr}
   12f58:	e12fff1e 	bx	lr
   12f5c:	0002181c 	andeq	r1, r2, ip, lsl r8

00012f60 <confMatch>:
   12f60:	e92d4010 	push	{r4, lr}
   12f64:	e1a04002 	mov	r4, r2
   12f68:	ebffffa6 	bl	12e08 <confGetValue>
   12f6c:	e1a01004 	mov	r1, r4
   12f70:	ebffda65 	bl	990c <strcmp@plt>
   12f74:	e2700001 	rsbs	r0, r0, #1
   12f78:	33a00000 	movcc	r0, #0
   12f7c:	e8bd4010 	pop	{r4, lr}
   12f80:	e12fff1e 	bx	lr

00012f84 <confGetSeg>:
   12f84:	e92d4ff0 	push	{r4, r5, r6, r7, r8, r9, sl, fp, lr}
   12f88:	e24dd004 	sub	sp, sp, #4
   12f8c:	e1a05001 	mov	r5, r1
   12f90:	e1a09002 	mov	r9, r2
   12f94:	e1a07003 	mov	r7, r3
   12f98:	e1a04000 	mov	r4, r0
   12f9c:	ebfffe7d 	bl	12998 <do_find>
   12fa0:	e2506000 	subs	r6, r0, #0
   12fa4:	ba000032 	blt	13074 <confGetSeg+0xf0>
   12fa8:	e59fb0d4 	ldr	fp, [pc, #212]	; 13084 <confGetSeg+0x100>
   12fac:	e1a0a086 	lsl	sl, r6, #1
   12fb0:	e08a3006 	add	r3, sl, r6
   12fb4:	e08b8183 	add	r8, fp, r3, lsl #3
   12fb8:	e5980004 	ldr	r0, [r8, #4]
   12fbc:	e3500000 	cmp	r0, #0
   12fc0:	0a00002c 	beq	13078 <confGetSeg+0xf4>
   12fc4:	e1a01005 	mov	r1, r5
   12fc8:	e1a00004 	mov	r0, r4
   12fcc:	ebffff8d 	bl	12e08 <confGetValue>
   12fd0:	e5d03000 	ldrb	r3, [r0]
   12fd4:	e3530000 	cmp	r3, #0
   12fd8:	e1a05000 	mov	r5, r0
   12fdc:	05c93000 	strbeq	r3, [r9]
   12fe0:	01a00003 	moveq	r0, r3
   12fe4:	0a000023 	beq	13078 <confGetSeg+0xf4>
   12fe8:	ea000003 	b	12ffc <confGetSeg+0x78>
   12fec:	e1a00009 	mov	r0, r9
   12ff0:	ebffd955 	bl	954c <strcpy@plt>
   12ff4:	e3a00001 	mov	r0, #1
   12ff8:	ea00001e 	b	13078 <confGetSeg+0xf4>
   12ffc:	ebffda6f 	bl	99c0 <strlen@plt>
   13000:	e2800001 	add	r0, r0, #1
   13004:	ebffd99e 	bl	9684 <malloc@plt>
   13008:	e1a04000 	mov	r4, r0
   1300c:	e58d0000 	str	r0, [sp]
   13010:	e1a00005 	mov	r0, r5
   13014:	ebffda69 	bl	99c0 <strlen@plt>
   13018:	e3a01000 	mov	r1, #0
   1301c:	e2802001 	add	r2, r0, #1
   13020:	e1a00004 	mov	r0, r4
   13024:	e28d4004 	add	r4, sp, #4
   13028:	ebffda25 	bl	98c4 <memset@plt>
   1302c:	e5340004 	ldr	r0, [r4, #-4]!
   13030:	e1a01005 	mov	r1, r5
   13034:	ebffd944 	bl	954c <strcpy@plt>
   13038:	e598100c 	ldr	r1, [r8, #12]
   1303c:	e1a00004 	mov	r0, r4
   13040:	ebffda3d 	bl	993c <strsep@plt>
   13044:	e2501000 	subs	r1, r0, #0
   13048:	0a000007 	beq	1306c <confGetSeg+0xe8>
   1304c:	e08a3006 	add	r3, sl, r6
   13050:	e3570000 	cmp	r7, #0
   13054:	e08b3183 	add	r3, fp, r3, lsl #3
   13058:	e1a00004 	mov	r0, r4
   1305c:	e2477001 	sub	r7, r7, #1
   13060:	0affffe1 	beq	12fec <confGetSeg+0x68>
   13064:	e593100c 	ldr	r1, [r3, #12]
   13068:	eafffff4 	b	13040 <confGetSeg+0xbc>
   1306c:	e59d0000 	ldr	r0, [sp]
   13070:	ebffda70 	bl	9a38 <free@plt>
   13074:	e3a00000 	mov	r0, #0
   13078:	e28dd004 	add	sp, sp, #4
   1307c:	e8bd4ff0 	pop	{r4, r5, r6, r7, r8, r9, sl, fp, lr}
   13080:	e12fff1e 	bx	lr
   13084:	0002181c 	andeq	r1, r2, ip, lsl r8

00013088 <confSetSeg>:
   13088:	e92d4ff0 	push	{r4, r5, r6, r7, r8, r9, sl, fp, lr}
   1308c:	e24dd00c 	sub	sp, sp, #12
   13090:	e1a0b001 	mov	fp, r1
   13094:	e58d2004 	str	r2, [sp, #4]
   13098:	e1a08003 	mov	r8, r3
   1309c:	e1a09000 	mov	r9, r0
   130a0:	ebfffe3c 	bl	12998 <do_find>
   130a4:	e3a04000 	mov	r4, #0
   130a8:	e2507000 	subs	r7, r0, #0
   130ac:	e1a0a004 	mov	sl, r4
   130b0:	ba000009 	blt	130dc <confSetSeg+0x54>
   130b4:	e59f2118 	ldr	r2, [pc, #280]	; 131d4 <confSetSeg+0x14c>
   130b8:	e0873087 	add	r3, r7, r7, lsl #1
   130bc:	e0822183 	add	r2, r2, r3, lsl #3
   130c0:	e5923004 	ldr	r3, [r2, #4]
   130c4:	e3530000 	cmp	r3, #0
   130c8:	0a000003 	beq	130dc <confSetSeg+0x54>
   130cc:	e3a00ffa 	mov	r0, #1000	; 0x3e8
   130d0:	ebffd96b 	bl	9684 <malloc@plt>
   130d4:	e2505000 	subs	r5, r0, #0
   130d8:	1a000001 	bne	130e4 <confSetSeg+0x5c>
   130dc:	e1a00004 	mov	r0, r4
   130e0:	ea000038 	b	131c8 <confSetSeg+0x140>
   130e4:	e1a00009 	mov	r0, r9
   130e8:	e1a0100b 	mov	r1, fp
   130ec:	ebffff45 	bl	12e08 <confGetValue>
   130f0:	e58d0008 	str	r0, [sp, #8]
   130f4:	ea00001e 	b	13174 <confSetSeg+0xec>
   130f8:	e59dc004 	ldr	ip, [sp, #4]
   130fc:	e3580000 	cmp	r8, #0
   13100:	11a0c003 	movne	ip, r3
   13104:	e3540000 	cmp	r4, #0
   13108:	e1a0300c 	mov	r3, ip
   1310c:	1a000001 	bne	13118 <confSetSeg+0x90>
   13110:	ebffd928 	bl	95b8 <snprintf@plt>
   13114:	ea000005 	b	13130 <confSetSeg+0xa8>
   13118:	e596300c 	ldr	r3, [r6, #12]
   1311c:	e59f20b4 	ldr	r2, [pc, #180]	; 131d8 <confSetSeg+0x150>
   13120:	e59f10b4 	ldr	r1, [pc, #180]	; 131dc <confSetSeg+0x154>
   13124:	e1a00005 	mov	r0, r5
   13128:	e58dc000 	str	ip, [sp]
   1312c:	ebffd921 	bl	95b8 <snprintf@plt>
   13130:	e1a00005 	mov	r0, r5
   13134:	ebffda21 	bl	99c0 <strlen@plt>
   13138:	e08aa000 	add	sl, sl, r0
   1313c:	e28a1001 	add	r1, sl, #1
   13140:	e1a00004 	mov	r0, r4
   13144:	ebffd9c0 	bl	984c <realloc@plt>
   13148:	e2504000 	subs	r4, r0, #0
   1314c:	e2488001 	sub	r8, r8, #1
   13150:	e1a00005 	mov	r0, r5
   13154:	0affffe0 	beq	130dc <confSetSeg+0x54>
   13158:	ebffda18 	bl	99c0 <strlen@plt>
   1315c:	e1a02000 	mov	r2, r0
   13160:	e060000a 	rsb	r0, r0, sl
   13164:	e0840000 	add	r0, r4, r0
   13168:	e2822001 	add	r2, r2, #1
   1316c:	e1a01005 	mov	r1, r5
   13170:	ebffd931 	bl	963c <memcpy@plt>
   13174:	e59f3058 	ldr	r3, [pc, #88]	; 131d4 <confSetSeg+0x14c>
   13178:	e0872087 	add	r2, r7, r7, lsl #1
   1317c:	e0836182 	add	r6, r3, r2, lsl #3
   13180:	e596100c 	ldr	r1, [r6, #12]
   13184:	e28d0008 	add	r0, sp, #8
   13188:	ebffd9eb 	bl	993c <strsep@plt>
   1318c:	e2503000 	subs	r3, r0, #0
   13190:	e59f1044 	ldr	r1, [pc, #68]	; 131dc <confSetSeg+0x154>
   13194:	e59f2044 	ldr	r2, [pc, #68]	; 131e0 <confSetSeg+0x158>
   13198:	e1a00005 	mov	r0, r5
   1319c:	1affffd5 	bne	130f8 <confSetSeg+0x70>
   131a0:	e1a0100b 	mov	r1, fp
   131a4:	e1a02004 	mov	r2, r4
   131a8:	e1a00009 	mov	r0, r9
   131ac:	ebffff31 	bl	12e78 <confSetValue>
   131b0:	e1a00005 	mov	r0, r5
   131b4:	ebffda1f 	bl	9a38 <free@plt>
   131b8:	e3540000 	cmp	r4, #0
   131bc:	11a00004 	movne	r0, r4
   131c0:	1bffda1c 	blne	9a38 <free@plt>
   131c4:	e3a00001 	mov	r0, #1
   131c8:	e28dd00c 	add	sp, sp, #12
   131cc:	e8bd4ff0 	pop	{r4, r5, r6, r7, r8, r9, sl, fp, lr}
   131d0:	e12fff1e 	bx	lr
   131d4:	0002181c 	andeq	r1, r2, ip, lsl r8
   131d8:	00019560 	andeq	r9, r1, r0, ror #10
   131dc:	000003e7 	andeq	r0, r0, r7, ror #7
   131e0:	0001908c 	andeq	r9, r1, ip, lsl #1

000131e4 <confMatchSeg>:
   131e4:	e92d4030 	push	{r4, r5, lr}
   131e8:	e24ddffa 	sub	sp, sp, #1000	; 0x3e8
   131ec:	e1a05002 	mov	r5, r2
   131f0:	e1a0200d 	mov	r2, sp
   131f4:	ebffff62 	bl	12f84 <confGetSeg>
   131f8:	e1a0000d 	mov	r0, sp
   131fc:	e1a01005 	mov	r1, r5
   13200:	ebffd9c1 	bl	990c <strcmp@plt>
   13204:	e1a0400d 	mov	r4, sp
   13208:	e2700001 	rsbs	r0, r0, #1
   1320c:	33a00000 	movcc	r0, #0
   13210:	e28ddffa 	add	sp, sp, #1000	; 0x3e8
   13214:	e8bd4030 	pop	{r4, r5, lr}
   13218:	e12fff1e 	bx	lr

0001321c <default_commit>:
   1321c:	e92d47f0 	push	{r4, r5, r6, r7, r8, r9, sl, lr}
   13220:	e59f90bc 	ldr	r9, [pc, #188]	; 132e4 <default_commit+0xc8>
   13224:	e1a08081 	lsl	r8, r1, #1
   13228:	e0883001 	add	r3, r8, r1
   1322c:	e0893183 	add	r3, r9, r3, lsl #3
   13230:	e5934004 	ldr	r4, [r3, #4]
   13234:	e24dde3f 	sub	sp, sp, #1008	; 0x3f0
   13238:	e1a05001 	mov	r5, r1
   1323c:	e3540000 	cmp	r4, #0
   13240:	e1a0a000 	mov	sl, r0
   13244:	e3a07000 	mov	r7, #0
   13248:	0a000021 	beq	132d4 <default_commit+0xb8>
   1324c:	e28d6008 	add	r6, sp, #8
   13250:	e3a01000 	mov	r1, #0
   13254:	e3a02ffa 	mov	r2, #1000	; 0x3e8
   13258:	e1a00006 	mov	r0, r6
   1325c:	ebffd998 	bl	98c4 <memset@plt>
   13260:	e0883005 	add	r3, r8, r5
   13264:	e089c183 	add	ip, r9, r3, lsl #3
   13268:	e5943004 	ldr	r3, [r4, #4]
   1326c:	e5d33000 	ldrb	r3, [r3]
   13270:	e594e000 	ldr	lr, [r4]
   13274:	e3530000 	cmp	r3, #0
   13278:	e1a00006 	mov	r0, r6
   1327c:	e59f1064 	ldr	r1, [pc, #100]	; 132e8 <default_commit+0xcc>
   13280:	e59f2064 	ldr	r2, [pc, #100]	; 132ec <default_commit+0xd0>
   13284:	e1a0300e 	mov	r3, lr
   13288:	1a000001 	bne	13294 <default_commit+0x78>
   1328c:	ebffd8c9 	bl	95b8 <snprintf@plt>
   13290:	ea000008 	b	132b8 <default_commit+0x9c>
   13294:	e59c3008 	ldr	r3, [ip, #8]
   13298:	e58d3000 	str	r3, [sp]
   1329c:	e594c004 	ldr	ip, [r4, #4]
   132a0:	e1a0300e 	mov	r3, lr
   132a4:	e59f103c 	ldr	r1, [pc, #60]	; 132e8 <default_commit+0xcc>
   132a8:	e59f2040 	ldr	r2, [pc, #64]	; 132f0 <default_commit+0xd4>
   132ac:	e1a00006 	mov	r0, r6
   132b0:	e58dc004 	str	ip, [sp, #4]
   132b4:	ebffd8bf 	bl	95b8 <snprintf@plt>
   132b8:	e1a01006 	mov	r1, r6
   132bc:	e1a0000a 	mov	r0, sl
   132c0:	ebfffda9 	bl	1296c <do_writeline>
   132c4:	e5944008 	ldr	r4, [r4, #8]
   132c8:	e0877000 	add	r7, r7, r0
   132cc:	e3540000 	cmp	r4, #0
   132d0:	eaffffdc 	b	13248 <default_commit+0x2c>
   132d4:	e1a00007 	mov	r0, r7
   132d8:	e28dde3f 	add	sp, sp, #1008	; 0x3f0
   132dc:	e8bd47f0 	pop	{r4, r5, r6, r7, r8, r9, sl, lr}
   132e0:	e12fff1e 	bx	lr
   132e4:	0002181c 	andeq	r1, r2, ip, lsl r8
   132e8:	000003e7 	andeq	r0, r0, r7, ror #7
   132ec:	0001956c 	andeq	r9, r1, ip, ror #10
   132f0:	00019568 	andeq	r9, r1, r8, ror #10

000132f4 <confCommit>:
   132f4:	e92d45f0 	push	{r4, r5, r6, r7, r8, sl, lr}
   132f8:	e24ddffa 	sub	sp, sp, #1000	; 0x3e8
   132fc:	e1a07000 	mov	r7, r0
   13300:	ebfffda4 	bl	12998 <do_find>
   13304:	e2505000 	subs	r5, r0, #0
   13308:	e3a06000 	mov	r6, #0
   1330c:	ba00001b 	blt	13380 <confCommit+0x8c>
   13310:	e0853085 	add	r3, r5, r5, lsl #1
   13314:	e59f80b4 	ldr	r8, [pc, #180]	; 133d0 <confCommit+0xdc>
   13318:	e1a04183 	lsl	r4, r3, #3
   1331c:	e084a008 	add	sl, r4, r8
   13320:	e59a3014 	ldr	r3, [sl, #20]
   13324:	e3530000 	cmp	r3, #0
   13328:	0a000014 	beq	13380 <confCommit+0x8c>
   1332c:	e1a00007 	mov	r0, r7
   13330:	e59f109c 	ldr	r1, [pc, #156]	; 133d4 <confCommit+0xe0>
   13334:	ebffd93e 	bl	9834 <strcasecmp@plt>
   13338:	e3500000 	cmp	r0, #0
   1333c:	07943008 	ldreq	r3, [r4, r8]
   13340:	01a0000d 	moveq	r0, sp
   13344:	059f108c 	ldreq	r1, [pc, #140]	; 133d8 <confCommit+0xe4>
   13348:	059f208c 	ldreq	r2, [pc, #140]	; 133dc <confCommit+0xe8>
   1334c:	0bffd974 	bleq	9924 <sprintf@plt>
   13350:	e1a0000d 	mov	r0, sp
   13354:	e3a01041 	mov	r1, #65	; 0x41
   13358:	ebffd99b 	bl	99cc <open@plt>
   1335c:	e3700001 	cmn	r0, #1
   13360:	e1a04000 	mov	r4, r0
   13364:	0a000005 	beq	13380 <confCommit+0x8c>
   13368:	e3a01002 	mov	r1, #2
   1336c:	ebffd921 	bl	97f8 <flock@plt>
   13370:	e3700001 	cmn	r0, #1
   13374:	1a000003 	bne	13388 <confCommit+0x94>
   13378:	e1a00004 	mov	r0, r4
   1337c:	ebffd9a4 	bl	9a14 <close@plt>
   13380:	e1a00006 	mov	r0, r6
   13384:	ea00000e 	b	133c4 <confCommit+0xd0>
   13388:	e1a01005 	mov	r1, r5
   1338c:	e1a00004 	mov	r0, r4
   13390:	e59ac014 	ldr	ip, [sl, #20]
   13394:	e1a0e00f 	mov	lr, pc
   13398:	e12fff1c 	bx	ip
   1339c:	e1a06000 	mov	r6, r0
   133a0:	e1a01006 	mov	r1, r6
   133a4:	e1a00004 	mov	r0, r4
   133a8:	ebffd8cd 	bl	96e4 <ftruncate@plt>
   133ac:	e3a01008 	mov	r1, #8
   133b0:	e1a00004 	mov	r0, r4
   133b4:	ebffd90f 	bl	97f8 <flock@plt>
   133b8:	e1a00004 	mov	r0, r4
   133bc:	ebffd994 	bl	9a14 <close@plt>
   133c0:	e3a00001 	mov	r0, #1
   133c4:	e28ddffa 	add	sp, sp, #1000	; 0x3e8
   133c8:	e8bd45f0 	pop	{r4, r5, r6, r7, r8, sl, lr}
   133cc:	e12fff1e 	bx	lr
   133d0:	0002181c 	andeq	r1, r2, ip, lsl r8
   133d4:	00014508 	andeq	r4, r1, r8, lsl #10
   133d8:	00019558 	andeq	r9, r1, r8, asr r5
   133dc:	00019550 	andeq	r9, r1, r0, asr r5

000133e0 <confFree>:
   133e0:	e92d41f0 	push	{r4, r5, r6, r7, r8, lr}
   133e4:	ebfffd6b 	bl	12998 <do_find>
   133e8:	e2506000 	subs	r6, r0, #0
   133ec:	ba000014 	blt	13444 <confFree+0x64>
   133f0:	e59f8054 	ldr	r8, [pc, #84]	; 1344c <confFree+0x6c>
   133f4:	e1a07086 	lsl	r7, r6, #1
   133f8:	e0873006 	add	r3, r7, r6
   133fc:	e0883183 	add	r3, r8, r3, lsl #3
   13400:	e5934004 	ldr	r4, [r3, #4]
   13404:	e3540000 	cmp	r4, #0
   13408:	0a00000d 	beq	13444 <confFree+0x64>
   1340c:	e1a05004 	mov	r5, r4
   13410:	e1a04005 	mov	r4, r5
   13414:	e5950000 	ldr	r0, [r5]
   13418:	e5955008 	ldr	r5, [r5, #8]
   1341c:	ebffd985 	bl	9a38 <free@plt>
   13420:	e5940004 	ldr	r0, [r4, #4]
   13424:	ebffd983 	bl	9a38 <free@plt>
   13428:	e1a00004 	mov	r0, r4
   1342c:	ebffd981 	bl	9a38 <free@plt>
   13430:	e3550000 	cmp	r5, #0
   13434:	1afffff5 	bne	13410 <confFree+0x30>
   13438:	e0873006 	add	r3, r7, r6
   1343c:	e0883183 	add	r3, r8, r3, lsl #3
   13440:	e5835004 	str	r5, [r3, #4]
   13444:	e8bd41f0 	pop	{r4, r5, r6, r7, r8, lr}
   13448:	e12fff1e 	bx	lr
   1344c:	0002181c 	andeq	r1, r2, ip, lsl r8

00013450 <__udivsi3>:
   13450:	e2512001 	subs	r2, r1, #1
   13454:	012fff1e 	bxeq	lr
   13458:	3a000036 	bcc	13538 <__udivsi3+0xe8>
   1345c:	e1500001 	cmp	r0, r1
   13460:	9a000022 	bls	134f0 <__udivsi3+0xa0>
   13464:	e1110002 	tst	r1, r2
   13468:	0a000023 	beq	134fc <__udivsi3+0xac>
   1346c:	e311020e 	tst	r1, #-536870912	; 0xe0000000
   13470:	01a01181 	lsleq	r1, r1, #3
   13474:	03a03008 	moveq	r3, #8
   13478:	13a03001 	movne	r3, #1
   1347c:	e3510201 	cmp	r1, #268435456	; 0x10000000
   13480:	31510000 	cmpcc	r1, r0
   13484:	31a01201 	lslcc	r1, r1, #4
   13488:	31a03203 	lslcc	r3, r3, #4
   1348c:	3afffffa 	bcc	1347c <__udivsi3+0x2c>
   13490:	e3510102 	cmp	r1, #-2147483648	; 0x80000000
   13494:	31510000 	cmpcc	r1, r0
   13498:	31a01081 	lslcc	r1, r1, #1
   1349c:	31a03083 	lslcc	r3, r3, #1
   134a0:	3afffffa 	bcc	13490 <__udivsi3+0x40>
   134a4:	e3a02000 	mov	r2, #0
   134a8:	e1500001 	cmp	r0, r1
   134ac:	20400001 	subcs	r0, r0, r1
   134b0:	21822003 	orrcs	r2, r2, r3
   134b4:	e15000a1 	cmp	r0, r1, lsr #1
   134b8:	204000a1 	subcs	r0, r0, r1, lsr #1
   134bc:	218220a3 	orrcs	r2, r2, r3, lsr #1
   134c0:	e1500121 	cmp	r0, r1, lsr #2
   134c4:	20400121 	subcs	r0, r0, r1, lsr #2
   134c8:	21822123 	orrcs	r2, r2, r3, lsr #2
   134cc:	e15001a1 	cmp	r0, r1, lsr #3
   134d0:	204001a1 	subcs	r0, r0, r1, lsr #3
   134d4:	218221a3 	orrcs	r2, r2, r3, lsr #3
   134d8:	e3500000 	cmp	r0, #0
   134dc:	11b03223 	lsrsne	r3, r3, #4
   134e0:	11a01221 	lsrne	r1, r1, #4
   134e4:	1affffef 	bne	134a8 <__udivsi3+0x58>
   134e8:	e1a00002 	mov	r0, r2
   134ec:	e12fff1e 	bx	lr
   134f0:	03a00001 	moveq	r0, #1
   134f4:	13a00000 	movne	r0, #0
   134f8:	e12fff1e 	bx	lr
   134fc:	e3510801 	cmp	r1, #65536	; 0x10000
   13500:	21a01821 	lsrcs	r1, r1, #16
   13504:	23a02010 	movcs	r2, #16
   13508:	33a02000 	movcc	r2, #0
   1350c:	e3510c01 	cmp	r1, #256	; 0x100
   13510:	21a01421 	lsrcs	r1, r1, #8
   13514:	22822008 	addcs	r2, r2, #8
   13518:	e3510010 	cmp	r1, #16
   1351c:	21a01221 	lsrcs	r1, r1, #4
   13520:	22822004 	addcs	r2, r2, #4
   13524:	e3510004 	cmp	r1, #4
   13528:	82822003 	addhi	r2, r2, #3
   1352c:	908220a1 	addls	r2, r2, r1, lsr #1
   13530:	e1a00230 	lsr	r0, r0, r2
   13534:	e12fff1e 	bx	lr
   13538:	e52de004 	push	{lr}		; (str lr, [sp, #-4]!)
   1353c:	eb0000bb 	bl	13830 <__div0>
   13540:	e3a00000 	mov	r0, #0
   13544:	e49de004 	pop	{lr}		; (ldr lr, [sp], #4)
   13548:	e12fff1e 	bx	lr

0001354c <__divsi3>:
   1354c:	e3510000 	cmp	r1, #0
   13550:	e020c001 	eor	ip, r0, r1
   13554:	0a000042 	beq	13664 <__divsi3+0x118>
   13558:	42611000 	rsbmi	r1, r1, #0
   1355c:	e2512001 	subs	r2, r1, #1
   13560:	0a000027 	beq	13604 <__divsi3+0xb8>
   13564:	e1b03000 	movs	r3, r0
   13568:	42603000 	rsbmi	r3, r0, #0
   1356c:	e1530001 	cmp	r3, r1
   13570:	9a000026 	bls	13610 <__divsi3+0xc4>
   13574:	e1110002 	tst	r1, r2
   13578:	0a000028 	beq	13620 <__divsi3+0xd4>
   1357c:	e311020e 	tst	r1, #-536870912	; 0xe0000000
   13580:	01a01181 	lsleq	r1, r1, #3
   13584:	03a02008 	moveq	r2, #8
   13588:	13a02001 	movne	r2, #1
   1358c:	e3510201 	cmp	r1, #268435456	; 0x10000000
   13590:	31510003 	cmpcc	r1, r3
   13594:	31a01201 	lslcc	r1, r1, #4
   13598:	31a02202 	lslcc	r2, r2, #4
   1359c:	3afffffa 	bcc	1358c <__divsi3+0x40>
   135a0:	e3510102 	cmp	r1, #-2147483648	; 0x80000000
   135a4:	31510003 	cmpcc	r1, r3
   135a8:	31a01081 	lslcc	r1, r1, #1
   135ac:	31a02082 	lslcc	r2, r2, #1
   135b0:	3afffffa 	bcc	135a0 <__divsi3+0x54>
   135b4:	e3a00000 	mov	r0, #0
   135b8:	e1530001 	cmp	r3, r1
   135bc:	20433001 	subcs	r3, r3, r1
   135c0:	21800002 	orrcs	r0, r0, r2
   135c4:	e15300a1 	cmp	r3, r1, lsr #1
   135c8:	204330a1 	subcs	r3, r3, r1, lsr #1
   135cc:	218000a2 	orrcs	r0, r0, r2, lsr #1
   135d0:	e1530121 	cmp	r3, r1, lsr #2
   135d4:	20433121 	subcs	r3, r3, r1, lsr #2
   135d8:	21800122 	orrcs	r0, r0, r2, lsr #2
   135dc:	e15301a1 	cmp	r3, r1, lsr #3
   135e0:	204331a1 	subcs	r3, r3, r1, lsr #3
   135e4:	218001a2 	orrcs	r0, r0, r2, lsr #3
   135e8:	e3530000 	cmp	r3, #0
   135ec:	11b02222 	lsrsne	r2, r2, #4
   135f0:	11a01221 	lsrne	r1, r1, #4
   135f4:	1affffef 	bne	135b8 <__divsi3+0x6c>
   135f8:	e35c0000 	cmp	ip, #0
   135fc:	42600000 	rsbmi	r0, r0, #0
   13600:	e12fff1e 	bx	lr
   13604:	e13c0000 	teq	ip, r0
   13608:	42600000 	rsbmi	r0, r0, #0
   1360c:	e12fff1e 	bx	lr
   13610:	33a00000 	movcc	r0, #0
   13614:	01a00fcc 	asreq	r0, ip, #31
   13618:	03800001 	orreq	r0, r0, #1
   1361c:	e12fff1e 	bx	lr
   13620:	e3510801 	cmp	r1, #65536	; 0x10000
   13624:	21a01821 	lsrcs	r1, r1, #16
   13628:	23a02010 	movcs	r2, #16
   1362c:	33a02000 	movcc	r2, #0
   13630:	e3510c01 	cmp	r1, #256	; 0x100
   13634:	21a01421 	lsrcs	r1, r1, #8
   13638:	22822008 	addcs	r2, r2, #8
   1363c:	e3510010 	cmp	r1, #16
   13640:	21a01221 	lsrcs	r1, r1, #4
   13644:	22822004 	addcs	r2, r2, #4
   13648:	e3510004 	cmp	r1, #4
   1364c:	82822003 	addhi	r2, r2, #3
   13650:	908220a1 	addls	r2, r2, r1, lsr #1
   13654:	e35c0000 	cmp	ip, #0
   13658:	e1a00233 	lsr	r0, r3, r2
   1365c:	42600000 	rsbmi	r0, r0, #0
   13660:	e12fff1e 	bx	lr
   13664:	e52de004 	push	{lr}		; (str lr, [sp, #-4]!)
   13668:	eb000070 	bl	13830 <__div0>
   1366c:	e3a00000 	mov	r0, #0
   13670:	e49de004 	pop	{lr}		; (ldr lr, [sp], #4)
   13674:	e12fff1e 	bx	lr

00013678 <__umodsi3>:
   13678:	e2512001 	subs	r2, r1, #1
   1367c:	3a00002c 	bcc	13734 <__umodsi3+0xbc>
   13680:	11500001 	cmpne	r0, r1
   13684:	03a00000 	moveq	r0, #0
   13688:	81110002 	tsthi	r1, r2
   1368c:	00000002 	andeq	r0, r0, r2
   13690:	912fff1e 	bxls	lr
   13694:	e3a02000 	mov	r2, #0
   13698:	e3510201 	cmp	r1, #268435456	; 0x10000000
   1369c:	31510000 	cmpcc	r1, r0
   136a0:	31a01201 	lslcc	r1, r1, #4
   136a4:	32822004 	addcc	r2, r2, #4
   136a8:	3afffffa 	bcc	13698 <__umodsi3+0x20>
   136ac:	e3510102 	cmp	r1, #-2147483648	; 0x80000000
   136b0:	31510000 	cmpcc	r1, r0
   136b4:	31a01081 	lslcc	r1, r1, #1
   136b8:	32822001 	addcc	r2, r2, #1
   136bc:	3afffffa 	bcc	136ac <__umodsi3+0x34>
   136c0:	e2522003 	subs	r2, r2, #3
   136c4:	ba00000e 	blt	13704 <__umodsi3+0x8c>
   136c8:	e1500001 	cmp	r0, r1
   136cc:	20400001 	subcs	r0, r0, r1
   136d0:	e15000a1 	cmp	r0, r1, lsr #1
   136d4:	204000a1 	subcs	r0, r0, r1, lsr #1
   136d8:	e1500121 	cmp	r0, r1, lsr #2
   136dc:	20400121 	subcs	r0, r0, r1, lsr #2
   136e0:	e15001a1 	cmp	r0, r1, lsr #3
   136e4:	204001a1 	subcs	r0, r0, r1, lsr #3
   136e8:	e3500001 	cmp	r0, #1
   136ec:	e1a01221 	lsr	r1, r1, #4
   136f0:	a2522004 	subsge	r2, r2, #4
   136f4:	aafffff3 	bge	136c8 <__umodsi3+0x50>
   136f8:	e3120003 	tst	r2, #3
   136fc:	13300000 	teqne	r0, #0
   13700:	0a00000a 	beq	13730 <__umodsi3+0xb8>
   13704:	e3720002 	cmn	r2, #2
   13708:	ba000006 	blt	13728 <__umodsi3+0xb0>
   1370c:	0a000002 	beq	1371c <__umodsi3+0xa4>
   13710:	e1500001 	cmp	r0, r1
   13714:	20400001 	subcs	r0, r0, r1
   13718:	e1a010a1 	lsr	r1, r1, #1
   1371c:	e1500001 	cmp	r0, r1
   13720:	20400001 	subcs	r0, r0, r1
   13724:	e1a010a1 	lsr	r1, r1, #1
   13728:	e1500001 	cmp	r0, r1
   1372c:	20400001 	subcs	r0, r0, r1
   13730:	e12fff1e 	bx	lr
   13734:	e52de004 	push	{lr}		; (str lr, [sp, #-4]!)
   13738:	eb00003c 	bl	13830 <__div0>
   1373c:	e3a00000 	mov	r0, #0
   13740:	e49de004 	pop	{lr}		; (ldr lr, [sp], #4)
   13744:	e12fff1e 	bx	lr

00013748 <__modsi3>:
   13748:	e3510000 	cmp	r1, #0
   1374c:	0a000032 	beq	1381c <__modsi3+0xd4>
   13750:	42611000 	rsbmi	r1, r1, #0
   13754:	e1b0c000 	movs	ip, r0
   13758:	42600000 	rsbmi	r0, r0, #0
   1375c:	e2512001 	subs	r2, r1, #1
   13760:	11500001 	cmpne	r0, r1
   13764:	03a00000 	moveq	r0, #0
   13768:	81110002 	tsthi	r1, r2
   1376c:	00000002 	andeq	r0, r0, r2
   13770:	9a000026 	bls	13810 <__modsi3+0xc8>
   13774:	e3a02000 	mov	r2, #0
   13778:	e3510201 	cmp	r1, #268435456	; 0x10000000
   1377c:	31510000 	cmpcc	r1, r0
   13780:	31a01201 	lslcc	r1, r1, #4
   13784:	32822004 	addcc	r2, r2, #4
   13788:	3afffffa 	bcc	13778 <__modsi3+0x30>
   1378c:	e3510102 	cmp	r1, #-2147483648	; 0x80000000
   13790:	31510000 	cmpcc	r1, r0
   13794:	31a01081 	lslcc	r1, r1, #1
   13798:	32822001 	addcc	r2, r2, #1
   1379c:	3afffffa 	bcc	1378c <__modsi3+0x44>
   137a0:	e2522003 	subs	r2, r2, #3
   137a4:	ba00000e 	blt	137e4 <__modsi3+0x9c>
   137a8:	e1500001 	cmp	r0, r1
   137ac:	20400001 	subcs	r0, r0, r1
   137b0:	e15000a1 	cmp	r0, r1, lsr #1
   137b4:	204000a1 	subcs	r0, r0, r1, lsr #1
   137b8:	e1500121 	cmp	r0, r1, lsr #2
   137bc:	20400121 	subcs	r0, r0, r1, lsr #2
   137c0:	e15001a1 	cmp	r0, r1, lsr #3
   137c4:	204001a1 	subcs	r0, r0, r1, lsr #3
   137c8:	e3500001 	cmp	r0, #1
   137cc:	e1a01221 	lsr	r1, r1, #4
   137d0:	a2522004 	subsge	r2, r2, #4
   137d4:	aafffff3 	bge	137a8 <__modsi3+0x60>
   137d8:	e3120003 	tst	r2, #3
   137dc:	13300000 	teqne	r0, #0
   137e0:	0a00000a 	beq	13810 <__modsi3+0xc8>
   137e4:	e3720002 	cmn	r2, #2
   137e8:	ba000006 	blt	13808 <__modsi3+0xc0>
   137ec:	0a000002 	beq	137fc <__modsi3+0xb4>
   137f0:	e1500001 	cmp	r0, r1
   137f4:	20400001 	subcs	r0, r0, r1
   137f8:	e1a010a1 	lsr	r1, r1, #1
   137fc:	e1500001 	cmp	r0, r1
   13800:	20400001 	subcs	r0, r0, r1
   13804:	e1a010a1 	lsr	r1, r1, #1
   13808:	e1500001 	cmp	r0, r1
   1380c:	20400001 	subcs	r0, r0, r1
   13810:	e35c0000 	cmp	ip, #0
   13814:	42600000 	rsbmi	r0, r0, #0
   13818:	e12fff1e 	bx	lr
   1381c:	e52de004 	push	{lr}		; (str lr, [sp, #-4]!)
   13820:	eb000002 	bl	13830 <__div0>
   13824:	e3a00000 	mov	r0, #0
   13828:	e49de004 	pop	{lr}		; (ldr lr, [sp], #4)
   1382c:	e12fff1e 	bx	lr

00013830 <__div0>:
   13830:	e12fff1e 	bx	lr

00013834 <__subdf3>:
   13834:	e2222102 	eor	r2, r2, #-2147483648	; 0x80000000

00013838 <__adddf3>:
   13838:	e1310003 	teq	r1, r3
   1383c:	0020c002 	eoreq	ip, r0, r2
   13840:	033c0102 	teqeq	ip, #-2147483648	; 0x80000000
   13844:	0a0000a3 	beq	13ad8 <__adddf3+0x2a0>
   13848:	e191c080 	orrs	ip, r1, r0, lsl #1
   1384c:	01a01003 	moveq	r1, r3
   13850:	01a00002 	moveq	r0, r2
   13854:	1193c082 	orrsne	ip, r3, r2, lsl #1
   13858:	012fff1e 	bxeq	lr
   1385c:	e92d4030 	push	{r4, r5, lr}
   13860:	e3a0c47f 	mov	ip, #2130706432	; 0x7f000000
   13864:	e38cc60f 	orr	ip, ip, #15728640	; 0xf00000
   13868:	e000400c 	and	r4, r0, ip
   1386c:	e002500c 	and	r5, r2, ip
   13870:	e134000c 	teq	r4, ip
   13874:	1135000c 	teqne	r5, ip
   13878:	0a0000a2 	beq	13b08 <__adddf3+0x2d0>
   1387c:	e0555004 	subs	r5, r5, r4
   13880:	b2655000 	rsblt	r5, r5, #0
   13884:	da000006 	ble	138a4 <__adddf3+0x6c>
   13888:	e0844005 	add	r4, r4, r5
   1388c:	e0213003 	eor	r3, r1, r3
   13890:	e0202002 	eor	r2, r0, r2
   13894:	e0231001 	eor	r1, r3, r1
   13898:	e0220000 	eor	r0, r2, r0
   1389c:	e0213003 	eor	r3, r1, r3
   138a0:	e0202002 	eor	r2, r0, r2
   138a4:	e3550636 	cmp	r5, #56623104	; 0x3600000
   138a8:	88bd4030 	pophi	{r4, r5, lr}
   138ac:	812fff1e 	bxhi	lr
   138b0:	e3100102 	tst	r0, #-2147483648	; 0x80000000
   138b4:	e1c0008c 	bic	r0, r0, ip, lsl #1
   138b8:	e3800601 	orr	r0, r0, #1048576	; 0x100000
   138bc:	0a000001 	beq	138c8 <__adddf3+0x90>
   138c0:	e2711000 	rsbs	r1, r1, #0
   138c4:	e2e00000 	rsc	r0, r0, #0
   138c8:	e3120102 	tst	r2, #-2147483648	; 0x80000000
   138cc:	e1c2208c 	bic	r2, r2, ip, lsl #1
   138d0:	e3822601 	orr	r2, r2, #1048576	; 0x100000
   138d4:	0a000001 	beq	138e0 <__adddf3+0xa8>
   138d8:	e2733000 	rsbs	r3, r3, #0
   138dc:	e2e22000 	rsc	r2, r2, #0
   138e0:	e1340005 	teq	r4, r5
   138e4:	0a000075 	beq	13ac0 <__adddf3+0x288>
   138e8:	e3a0c000 	mov	ip, #0
   138ec:	e1b05a25 	lsrs	r5, r5, #20
   138f0:	0a000013 	beq	13944 <__adddf3+0x10c>
   138f4:	e3340601 	teq	r4, #1048576	; 0x100000
   138f8:	0a000004 	beq	13910 <__adddf3+0xd8>
   138fc:	e1b01081 	lsls	r1, r1, #1
   13900:	e0ac0080 	adc	r0, ip, r0, lsl #1
   13904:	e2444601 	sub	r4, r4, #1048576	; 0x100000
   13908:	e2555001 	subs	r5, r5, #1
   1390c:	0a00000c 	beq	13944 <__adddf3+0x10c>
   13910:	e275e020 	rsbs	lr, r5, #32
   13914:	ba000004 	blt	1392c <__adddf3+0xf4>
   13918:	e1a0ce13 	lsl	ip, r3, lr
   1391c:	e1a03533 	lsr	r3, r3, r5
   13920:	e1833e12 	orr	r3, r3, r2, lsl lr
   13924:	e1a02552 	asr	r2, r2, r5
   13928:	ea000005 	b	13944 <__adddf3+0x10c>
   1392c:	e2455020 	sub	r5, r5, #32
   13930:	e28ee020 	add	lr, lr, #32
   13934:	e3530001 	cmp	r3, #1
   13938:	e0acce12 	adc	ip, ip, r2, lsl lr
   1393c:	e1a03552 	asr	r3, r2, r5
   13940:	e1a02042 	asr	r2, r2, #32
   13944:	e0911003 	adds	r1, r1, r3
   13948:	e0a00002 	adc	r0, r0, r2
   1394c:	e2105102 	ands	r5, r0, #-2147483648	; 0x80000000
   13950:	5a000002 	bpl	13960 <__adddf3+0x128>
   13954:	e27cc000 	rsbs	ip, ip, #0
   13958:	e2f11000 	rscs	r1, r1, #0
   1395c:	e2e00000 	rsc	r0, r0, #0
   13960:	e3500601 	cmp	r0, #1048576	; 0x100000
   13964:	3a00001a 	bcc	139d4 <__adddf3+0x19c>
   13968:	e3500602 	cmp	r0, #2097152	; 0x200000
   1396c:	3a00000b 	bcc	139a0 <__adddf3+0x168>
   13970:	e3500501 	cmp	r0, #4194304	; 0x400000
   13974:	3a000004 	bcc	1398c <__adddf3+0x154>
   13978:	e1b000a0 	lsrs	r0, r0, #1
   1397c:	e1b01061 	rrxs	r1, r1
   13980:	e1b0c06c 	rrxs	ip, ip
   13984:	238cc001 	orrcs	ip, ip, #1
   13988:	e2844601 	add	r4, r4, #1048576	; 0x100000
   1398c:	e1b000a0 	lsrs	r0, r0, #1
   13990:	e1b01061 	rrxs	r1, r1
   13994:	e1b0c06c 	rrxs	ip, ip
   13998:	238cc001 	orrcs	ip, ip, #1
   1399c:	e2844601 	add	r4, r4, #1048576	; 0x100000
   139a0:	e0911fac 	adds	r1, r1, ip, lsr #31
   139a4:	e2a00000 	adc	r0, r0, #0
   139a8:	e33c0102 	teq	ip, #-2147483648	; 0x80000000
   139ac:	03c11001 	biceq	r1, r1, #1
   139b0:	e3100602 	tst	r0, #2097152	; 0x200000
   139b4:	12844601 	addne	r4, r4, #1048576	; 0x100000
   139b8:	e294c601 	adds	ip, r4, #1048576	; 0x100000
   139bc:	4a00004c 	bmi	13af4 <__adddf3+0x2bc>
   139c0:	e3c00603 	bic	r0, r0, #3145728	; 0x300000
   139c4:	e1800004 	orr	r0, r0, r4
   139c8:	e1800005 	orr	r0, r0, r5
   139cc:	e8bd4030 	pop	{r4, r5, lr}
   139d0:	e12fff1e 	bx	lr
   139d4:	e3300000 	teq	r0, #0
   139d8:	13e0300a 	mvnne	r3, #10
   139dc:	03a03015 	moveq	r3, #21
   139e0:	01a00001 	moveq	r0, r1
   139e4:	03a01000 	moveq	r1, #0
   139e8:	e1a02000 	mov	r2, r0
   139ec:	e1b0c820 	lsrs	ip, r0, #16
   139f0:	01a02802 	lsleq	r2, r2, #16
   139f4:	02833010 	addeq	r3, r3, #16
   139f8:	e31204ff 	tst	r2, #-16777216	; 0xff000000
   139fc:	01a02402 	lsleq	r2, r2, #8
   13a00:	02833008 	addeq	r3, r3, #8
   13a04:	e312020f 	tst	r2, #-268435456	; 0xf0000000
   13a08:	01a02202 	lsleq	r2, r2, #4
   13a0c:	02833004 	addeq	r3, r3, #4
   13a10:	e3120103 	tst	r2, #-1073741824	; 0xc0000000
   13a14:	01a02102 	lsleq	r2, r2, #2
   13a18:	02833002 	addeq	r3, r3, #2
   13a1c:	e3120102 	tst	r2, #-2147483648	; 0x80000000
   13a20:	02833001 	addeq	r3, r3, #1
   13a24:	e2532020 	subs	r2, r3, #32
   13a28:	aa000007 	bge	13a4c <__adddf3+0x214>
   13a2c:	e292200c 	adds	r2, r2, #12
   13a30:	da000004 	ble	13a48 <__adddf3+0x210>
   13a34:	e282c014 	add	ip, r2, #20
   13a38:	e262200c 	rsb	r2, r2, #12
   13a3c:	e1a01c10 	lsl	r1, r0, ip
   13a40:	e1a00230 	lsr	r0, r0, r2
   13a44:	ea000004 	b	13a5c <__adddf3+0x224>
   13a48:	e2822014 	add	r2, r2, #20
   13a4c:	d262c020 	rsble	ip, r2, #32
   13a50:	e1a00210 	lsl	r0, r0, r2
   13a54:	d1800c31 	orrle	r0, r0, r1, lsr ip
   13a58:	d1a01211 	lslle	r1, r1, r2
   13a5c:	e0544a03 	subs	r4, r4, r3, lsl #20
   13a60:	caffffd6 	bgt	139c0 <__adddf3+0x188>
   13a64:	e1e04a44 	mvn	r4, r4, asr #20
   13a68:	e254401e 	subs	r4, r4, #30
   13a6c:	aa00000f 	bge	13ab0 <__adddf3+0x278>
   13a70:	e294400c 	adds	r4, r4, #12
   13a74:	ca000006 	bgt	13a94 <__adddf3+0x25c>
   13a78:	e2844014 	add	r4, r4, #20
   13a7c:	e2642020 	rsb	r2, r4, #32
   13a80:	e1a01431 	lsr	r1, r1, r4
   13a84:	e1811210 	orr	r1, r1, r0, lsl r2
   13a88:	e1850430 	orr	r0, r5, r0, lsr r4
   13a8c:	e8bd4030 	pop	{r4, r5, lr}
   13a90:	e12fff1e 	bx	lr
   13a94:	e264400c 	rsb	r4, r4, #12
   13a98:	e2642020 	rsb	r2, r4, #32
   13a9c:	e1a01231 	lsr	r1, r1, r2
   13aa0:	e1811410 	orr	r1, r1, r0, lsl r4
   13aa4:	e1a00005 	mov	r0, r5
   13aa8:	e8bd4030 	pop	{r4, r5, lr}
   13aac:	e12fff1e 	bx	lr
   13ab0:	e1a01430 	lsr	r1, r0, r4
   13ab4:	e1a00005 	mov	r0, r5
   13ab8:	e8bd4030 	pop	{r4, r5, lr}
   13abc:	e12fff1e 	bx	lr
   13ac0:	e3340000 	teq	r4, #0
   13ac4:	02200601 	eoreq	r0, r0, #1048576	; 0x100000
   13ac8:	02844601 	addeq	r4, r4, #1048576	; 0x100000
   13acc:	e2222601 	eor	r2, r2, #1048576	; 0x100000
   13ad0:	12455601 	subne	r5, r5, #1048576	; 0x100000
   13ad4:	eaffff83 	b	138e8 <__adddf3+0xb0>
   13ad8:	e24cc601 	sub	ip, ip, #1048576	; 0x100000
   13adc:	e000200c 	and	r2, r0, ip
   13ae0:	e132000c 	teq	r2, ip
   13ae4:	038c0702 	orreq	r0, ip, #524288	; 0x80000
   13ae8:	13a00000 	movne	r0, #0
   13aec:	e3a01000 	mov	r1, #0
   13af0:	e12fff1e 	bx	lr
   13af4:	e385047f 	orr	r0, r5, #2130706432	; 0x7f000000
   13af8:	e380060f 	orr	r0, r0, #15728640	; 0xf00000
   13afc:	e3a01000 	mov	r1, #0
   13b00:	e8bd4030 	pop	{r4, r5, lr}
   13b04:	e12fff1e 	bx	lr
   13b08:	e134000c 	teq	r4, ip
   13b0c:	11a00002 	movne	r0, r2
   13b10:	11a01003 	movne	r1, r3
   13b14:	0135000c 	teqeq	r5, ip
   13b18:	18bd4030 	popne	{r4, r5, lr}
   13b1c:	112fff1e 	bxne	lr
   13b20:	e1914600 	orrs	r4, r1, r0, lsl #12
   13b24:	01934602 	orrseq	r4, r3, r2, lsl #12
   13b28:	01300002 	teqeq	r0, r2
   13b2c:	13850702 	orrne	r0, r5, #524288	; 0x80000
   13b30:	13a01000 	movne	r1, #0
   13b34:	e8bd4030 	pop	{r4, r5, lr}
   13b38:	e12fff1e 	bx	lr

00013b3c <__floatunsidf>:
   13b3c:	e3300000 	teq	r0, #0
   13b40:	03a01000 	moveq	r1, #0
   13b44:	012fff1e 	bxeq	lr
   13b48:	e92d4030 	push	{r4, r5, lr}
   13b4c:	e3a04101 	mov	r4, #1073741824	; 0x40000000
   13b50:	e2844633 	add	r4, r4, #53477376	; 0x3300000
   13b54:	e3a05000 	mov	r5, #0
   13b58:	e1a01000 	mov	r1, r0
   13b5c:	e3a00000 	mov	r0, #0
   13b60:	eaffff9b 	b	139d4 <__adddf3+0x19c>

00013b64 <__floatsidf>:
   13b64:	e3300000 	teq	r0, #0
   13b68:	03a01000 	moveq	r1, #0
   13b6c:	012fff1e 	bxeq	lr
   13b70:	e92d4030 	push	{r4, r5, lr}
   13b74:	e3a04101 	mov	r4, #1073741824	; 0x40000000
   13b78:	e2844633 	add	r4, r4, #53477376	; 0x3300000
   13b7c:	e2105102 	ands	r5, r0, #-2147483648	; 0x80000000
   13b80:	42600000 	rsbmi	r0, r0, #0
   13b84:	e1a01000 	mov	r1, r0
   13b88:	e3a00000 	mov	r0, #0
   13b8c:	eaffff90 	b	139d4 <__adddf3+0x19c>

00013b90 <__extendsfdf2>:
   13b90:	e1b02080 	lsls	r2, r0, #1
   13b94:	0a000007 	beq	13bb8 <__extendsfdf2+0x28>
   13b98:	e1a001c2 	asr	r0, r2, #3
   13b9c:	e1a00060 	rrx	r0, r0
   13ba0:	e1a01e02 	lsl	r1, r2, #28
   13ba4:	e21224ff 	ands	r2, r2, #-16777216	; 0xff000000
   13ba8:	0a000005 	beq	13bc4 <__extendsfdf2+0x34>
   13bac:	e33204ff 	teq	r2, #-16777216	; 0xff000000
   13bb0:	1220030e 	eorne	r0, r0, #939524096	; 0x38000000
   13bb4:	e12fff1e 	bx	lr
   13bb8:	e1a00000 	nop			; (mov r0, r0)
   13bbc:	e3a01000 	mov	r1, #0
   13bc0:	e12fff1e 	bx	lr
   13bc4:	e92d4030 	push	{r4, r5, lr}
   13bc8:	e3a0430e 	mov	r4, #939524096	; 0x38000000
   13bcc:	e2844601 	add	r4, r4, #1048576	; 0x100000
   13bd0:	e2005102 	and	r5, r0, #-2147483648	; 0x80000000
   13bd4:	e3c00102 	bic	r0, r0, #-2147483648	; 0x80000000
   13bd8:	eaffff7d 	b	139d4 <__adddf3+0x19c>

00013bdc <__muldf3>:
   13bdc:	e92d4070 	push	{r4, r5, r6, lr}
   13be0:	e3a0c47f 	mov	ip, #2130706432	; 0x7f000000
   13be4:	e38cc60f 	orr	ip, ip, #15728640	; 0xf00000
   13be8:	e000400c 	and	r4, r0, ip
   13bec:	e002500c 	and	r5, r2, ip
   13bf0:	e134000c 	teq	r4, ip
   13bf4:	1135000c 	teqne	r5, ip
   13bf8:	0a00007f 	beq	13dfc <__muldf3+0x220>
   13bfc:	e1916080 	orrs	r6, r1, r0, lsl #1
   13c00:	11936082 	orrsne	r6, r3, r2, lsl #1
   13c04:	0a000030 	beq	13ccc <__muldf3+0xf0>
   13c08:	e1b040a4 	lsrs	r4, r4, #1
   13c0c:	13350000 	teqne	r5, #0
   13c10:	0a000065 	beq	13dac <__muldf3+0x1d0>
   13c14:	e08440c5 	add	r4, r4, r5, asr #1
   13c18:	e1300002 	teq	r0, r2
   13c1c:	43844902 	orrmi	r4, r4, #32768	; 0x8000
   13c20:	e1c0008c 	bic	r0, r0, ip, lsl #1
   13c24:	e1c2208c 	bic	r2, r2, ip, lsl #1
   13c28:	e3800601 	orr	r0, r0, #1048576	; 0x100000
   13c2c:	e3822601 	orr	r2, r2, #1048576	; 0x100000
   13c30:	e08ec391 	umull	ip, lr, r1, r3
   13c34:	e3a05000 	mov	r5, #0
   13c38:	e0a5e291 	umlal	lr, r5, r1, r2
   13c3c:	e0a5e390 	umlal	lr, r5, r0, r3
   13c40:	e3a06000 	mov	r6, #0
   13c44:	e0a65290 	umlal	r5, r6, r0, r2
   13c48:	e33c0000 	teq	ip, #0
   13c4c:	138ee001 	orrne	lr, lr, #1
   13c50:	e1a00804 	lsl	r0, r4, #16
   13c54:	e3c44902 	bic	r4, r4, #32768	; 0x8000
   13c58:	e3160c02 	tst	r6, #512	; 0x200
   13c5c:	0a000004 	beq	13c74 <__muldf3+0x98>
   13c60:	e2844702 	add	r4, r4, #524288	; 0x80000
   13c64:	e1b060a6 	lsrs	r6, r6, #1
   13c68:	e1b05065 	rrxs	r5, r5
   13c6c:	e1b0e06e 	rrxs	lr, lr
   13c70:	238ee001 	orrcs	lr, lr, #1
   13c74:	e1800606 	orr	r0, r0, r6, lsl #12
   13c78:	e1800a25 	orr	r0, r0, r5, lsr #20
   13c7c:	e1a01605 	lsl	r1, r5, #12
   13c80:	e1811a2e 	orr	r1, r1, lr, lsr #20
   13c84:	e244473e 	sub	r4, r4, #16252928	; 0xf80000
   13c88:	e254441f 	subs	r4, r4, #520093696	; 0x1f000000
   13c8c:	da000013 	ble	13ce0 <__muldf3+0x104>
   13c90:	e1b0e60e 	lsls	lr, lr, #12
   13c94:	5a000005 	bpl	13cb0 <__muldf3+0xd4>
   13c98:	e2911001 	adds	r1, r1, #1
   13c9c:	e2a00000 	adc	r0, r0, #0
   13ca0:	e33e0102 	teq	lr, #-2147483648	; 0x80000000
   13ca4:	03c11001 	biceq	r1, r1, #1
   13ca8:	e3100602 	tst	r0, #2097152	; 0x200000
   13cac:	12844702 	addne	r4, r4, #524288	; 0x80000
   13cb0:	e294c702 	adds	ip, r4, #524288	; 0x80000
   13cb4:	e31c0101 	tst	ip, #1073741824	; 0x40000000
   13cb8:	1a00005b 	bne	13e2c <__muldf3+0x250>
   13cbc:	e3c00603 	bic	r0, r0, #3145728	; 0x300000
   13cc0:	e1800084 	orr	r0, r0, r4, lsl #1
   13cc4:	e8bd4070 	pop	{r4, r5, r6, lr}
   13cc8:	e12fff1e 	bx	lr
   13ccc:	e0200002 	eor	r0, r0, r2
   13cd0:	e2000102 	and	r0, r0, #-2147483648	; 0x80000000
   13cd4:	e3a01000 	mov	r1, #0
   13cd8:	e8bd4070 	pop	{r4, r5, r6, lr}
   13cdc:	e12fff1e 	bx	lr
   13ce0:	e374076a 	cmn	r4, #27787264	; 0x1a80000
   13ce4:	d3a01000 	movle	r1, #0
   13ce8:	d2000102 	andle	r0, r0, #-2147483648	; 0x80000000
   13cec:	d8bd4070 	pople	{r4, r5, r6, lr}
   13cf0:	d12fff1e 	bxle	lr
   13cf4:	e1e049c4 	mvn	r4, r4, asr #19
   13cf8:	e254401e 	subs	r4, r4, #30
   13cfc:	aa00001d 	bge	13d78 <__muldf3+0x19c>
   13d00:	e294400c 	adds	r4, r4, #12
   13d04:	ca00000e 	bgt	13d44 <__muldf3+0x168>
   13d08:	e2844014 	add	r4, r4, #20
   13d0c:	e2645020 	rsb	r5, r4, #32
   13d10:	e1a03511 	lsl	r3, r1, r5
   13d14:	e1a01431 	lsr	r1, r1, r4
   13d18:	e1811510 	orr	r1, r1, r0, lsl r5
   13d1c:	e1b00080 	lsls	r0, r0, #1
   13d20:	e1a00430 	lsr	r0, r0, r4
   13d24:	e1a00060 	rrx	r0, r0
   13d28:	e0911fa3 	adds	r1, r1, r3, lsr #31
   13d2c:	e2a00000 	adc	r0, r0, #0
   13d30:	e33e0000 	teq	lr, #0
   13d34:	03330102 	teqeq	r3, #-2147483648	; 0x80000000
   13d38:	03c11001 	biceq	r1, r1, #1
   13d3c:	e8bd4070 	pop	{r4, r5, r6, lr}
   13d40:	e12fff1e 	bx	lr
   13d44:	e264400c 	rsb	r4, r4, #12
   13d48:	e2645020 	rsb	r5, r4, #32
   13d4c:	e1a03411 	lsl	r3, r1, r4
   13d50:	e1a01531 	lsr	r1, r1, r5
   13d54:	e1811410 	orr	r1, r1, r0, lsl r4
   13d58:	e2000102 	and	r0, r0, #-2147483648	; 0x80000000
   13d5c:	e0911fa3 	adds	r1, r1, r3, lsr #31
   13d60:	e2a00000 	adc	r0, r0, #0
   13d64:	e33e0000 	teq	lr, #0
   13d68:	03330102 	teqeq	r3, #-2147483648	; 0x80000000
   13d6c:	03c11001 	biceq	r1, r1, #1
   13d70:	e8bd4070 	pop	{r4, r5, r6, lr}
   13d74:	e12fff1e 	bx	lr
   13d78:	e2645020 	rsb	r5, r4, #32
   13d7c:	e1a06511 	lsl	r6, r1, r5
   13d80:	e1a03431 	lsr	r3, r1, r4
   13d84:	e1833510 	orr	r3, r3, r0, lsl r5
   13d88:	e1a01430 	lsr	r1, r0, r4
   13d8c:	e2000102 	and	r0, r0, #-2147483648	; 0x80000000
   13d90:	e1c11430 	bic	r1, r1, r0, lsr r4
   13d94:	e0811fa3 	add	r1, r1, r3, lsr #31
   13d98:	e196600e 	orrs	r6, r6, lr
   13d9c:	03330102 	teqeq	r3, #-2147483648	; 0x80000000
   13da0:	03c11001 	biceq	r1, r1, #1
   13da4:	e8bd4070 	pop	{r4, r5, r6, lr}
   13da8:	e12fff1e 	bx	lr
   13dac:	e3a0e000 	mov	lr, #0
   13db0:	e3340000 	teq	r4, #0
   13db4:	1a000008 	bne	13ddc <__muldf3+0x200>
   13db8:	e2006102 	and	r6, r0, #-2147483648	; 0x80000000
   13dbc:	e1b01081 	lsls	r1, r1, #1
   13dc0:	e0ae0080 	adc	r0, lr, r0, lsl #1
   13dc4:	e3100601 	tst	r0, #1048576	; 0x100000
   13dc8:	02444702 	subeq	r4, r4, #524288	; 0x80000
   13dcc:	0afffffa 	beq	13dbc <__muldf3+0x1e0>
   13dd0:	e1800006 	orr	r0, r0, r6
   13dd4:	e3350000 	teq	r5, #0
   13dd8:	1affff8d 	bne	13c14 <__muldf3+0x38>
   13ddc:	e2026102 	and	r6, r2, #-2147483648	; 0x80000000
   13de0:	e1b03083 	lsls	r3, r3, #1
   13de4:	e0ae2082 	adc	r2, lr, r2, lsl #1
   13de8:	e3120601 	tst	r2, #1048576	; 0x100000
   13dec:	02455601 	subeq	r5, r5, #1048576	; 0x100000
   13df0:	0afffffa 	beq	13de0 <__muldf3+0x204>
   13df4:	e1822006 	orr	r2, r2, r6
   13df8:	eaffff85 	b	13c14 <__muldf3+0x38>
   13dfc:	e1916080 	orrs	r6, r1, r0, lsl #1
   13e00:	11936082 	orrsne	r6, r3, r2, lsl #1
   13e04:	0a00000e 	beq	13e44 <__muldf3+0x268>
   13e08:	e134000c 	teq	r4, ip
   13e0c:	1a000001 	bne	13e18 <__muldf3+0x23c>
   13e10:	e1916600 	orrs	r6, r1, r0, lsl #12
   13e14:	1a00000a 	bne	13e44 <__muldf3+0x268>
   13e18:	e135000c 	teq	r5, ip
   13e1c:	1a000001 	bne	13e28 <__muldf3+0x24c>
   13e20:	e1936602 	orrs	r6, r3, r2, lsl #12
   13e24:	1a000006 	bne	13e44 <__muldf3+0x268>
   13e28:	e0200002 	eor	r0, r0, r2
   13e2c:	e2000102 	and	r0, r0, #-2147483648	; 0x80000000
   13e30:	e380047f 	orr	r0, r0, #2130706432	; 0x7f000000
   13e34:	e380060f 	orr	r0, r0, #15728640	; 0xf00000
   13e38:	e3a01000 	mov	r1, #0
   13e3c:	e8bd4070 	pop	{r4, r5, r6, lr}
   13e40:	e12fff1e 	bx	lr
   13e44:	e3a0047f 	mov	r0, #2130706432	; 0x7f000000
   13e48:	e380073e 	orr	r0, r0, #16252928	; 0xf80000
   13e4c:	e8bd4070 	pop	{r4, r5, r6, lr}
   13e50:	e12fff1e 	bx	lr

00013e54 <__divdf3>:
   13e54:	e92d4070 	push	{r4, r5, r6, lr}
   13e58:	e3a0c47f 	mov	ip, #2130706432	; 0x7f000000
   13e5c:	e38cc60f 	orr	ip, ip, #15728640	; 0xf00000
   13e60:	e000400c 	and	r4, r0, ip
   13e64:	e002500c 	and	r5, r2, ip
   13e68:	e134000c 	teq	r4, ip
   13e6c:	1135000c 	teqne	r5, ip
   13e70:	11916080 	orrsne	r6, r1, r0, lsl #1
   13e74:	11936082 	orrsne	r6, r3, r2, lsl #1
   13e78:	0a000080 	beq	14080 <__divdf3+0x22c>
   13e7c:	e1b040a4 	lsrs	r4, r4, #1
   13e80:	13350000 	teqne	r5, #0
   13e84:	0a000069 	beq	14030 <__divdf3+0x1dc>
   13e88:	e04440c5 	sub	r4, r4, r5, asr #1
   13e8c:	e020e002 	eor	lr, r0, r2
   13e90:	e3a05201 	mov	r5, #268435456	; 0x10000000
   13e94:	e1a02602 	lsl	r2, r2, #12
   13e98:	e1852222 	orr	r2, r5, r2, lsr #4
   13e9c:	e1822c23 	orr	r2, r2, r3, lsr #24
   13ea0:	e1b03403 	lsls	r3, r3, #8
   13ea4:	e1a00600 	lsl	r0, r0, #12
   13ea8:	01320005 	teqeq	r2, r5
   13eac:	0a00004e 	beq	13fec <__divdf3+0x198>
   13eb0:	e1855220 	orr	r5, r5, r0, lsr #4
   13eb4:	e1855c21 	orr	r5, r5, r1, lsr #24
   13eb8:	e1a06401 	lsl	r6, r1, #8
   13ebc:	e20e0102 	and	r0, lr, #-2147483648	; 0x80000000
   13ec0:	e1550002 	cmp	r5, r2
   13ec4:	01560003 	cmpeq	r6, r3
   13ec8:	2a000002 	bcs	13ed8 <__divdf3+0x84>
   13ecc:	e2444702 	sub	r4, r4, #524288	; 0x80000
   13ed0:	e1b020a2 	lsrs	r2, r2, #1
   13ed4:	e1a03063 	rrx	r3, r3
   13ed8:	e284441f 	add	r4, r4, #520093696	; 0x1f000000
   13edc:	e284473e 	add	r4, r4, #16252928	; 0xf80000
   13ee0:	e374076a 	cmn	r4, #27787264	; 0x1a80000
   13ee4:	daffff79 	ble	13cd0 <__muldf3+0xf4>
   13ee8:	e15400ac 	cmp	r4, ip, lsr #1
   13eec:	aaffffce 	bge	13e2c <__muldf3+0x250>
   13ef0:	e0566003 	subs	r6, r6, r3
   13ef4:	e0c55002 	sbc	r5, r5, r2
   13ef8:	e1b020a2 	lsrs	r2, r2, #1
   13efc:	e1a03063 	rrx	r3, r3
   13f00:	e3a01601 	mov	r1, #1048576	; 0x100000
   13f04:	e3a0c702 	mov	ip, #524288	; 0x80000
   13f08:	e056e003 	subs	lr, r6, r3
   13f0c:	e0d5e002 	sbcs	lr, r5, r2
   13f10:	20466003 	subcs	r6, r6, r3
   13f14:	21a0500e 	movcs	r5, lr
   13f18:	2181100c 	orrcs	r1, r1, ip
   13f1c:	e1b020a2 	lsrs	r2, r2, #1
   13f20:	e1a03063 	rrx	r3, r3
   13f24:	e056e003 	subs	lr, r6, r3
   13f28:	e0d5e002 	sbcs	lr, r5, r2
   13f2c:	20466003 	subcs	r6, r6, r3
   13f30:	21a0500e 	movcs	r5, lr
   13f34:	218110ac 	orrcs	r1, r1, ip, lsr #1
   13f38:	e1b020a2 	lsrs	r2, r2, #1
   13f3c:	e1a03063 	rrx	r3, r3
   13f40:	e056e003 	subs	lr, r6, r3
   13f44:	e0d5e002 	sbcs	lr, r5, r2
   13f48:	20466003 	subcs	r6, r6, r3
   13f4c:	21a0500e 	movcs	r5, lr
   13f50:	2181112c 	orrcs	r1, r1, ip, lsr #2
   13f54:	e1b020a2 	lsrs	r2, r2, #1
   13f58:	e1a03063 	rrx	r3, r3
   13f5c:	e056e003 	subs	lr, r6, r3
   13f60:	e0d5e002 	sbcs	lr, r5, r2
   13f64:	20466003 	subcs	r6, r6, r3
   13f68:	21a0500e 	movcs	r5, lr
   13f6c:	218111ac 	orrcs	r1, r1, ip, lsr #3
   13f70:	e195e006 	orrs	lr, r5, r6
   13f74:	0a00000d 	beq	13fb0 <__divdf3+0x15c>
   13f78:	e1a05205 	lsl	r5, r5, #4
   13f7c:	e1855e26 	orr	r5, r5, r6, lsr #28
   13f80:	e1a06206 	lsl	r6, r6, #4
   13f84:	e1a02182 	lsl	r2, r2, #3
   13f88:	e1822ea3 	orr	r2, r2, r3, lsr #29
   13f8c:	e1a03183 	lsl	r3, r3, #3
   13f90:	e1b0c22c 	lsrs	ip, ip, #4
   13f94:	1affffdb 	bne	13f08 <__divdf3+0xb4>
   13f98:	e3100601 	tst	r0, #1048576	; 0x100000
   13f9c:	1a000006 	bne	13fbc <__divdf3+0x168>
   13fa0:	e1800001 	orr	r0, r0, r1
   13fa4:	e3a01000 	mov	r1, #0
   13fa8:	e3a0c102 	mov	ip, #-2147483648	; 0x80000000
   13fac:	eaffffd5 	b	13f08 <__divdf3+0xb4>
   13fb0:	e3100601 	tst	r0, #1048576	; 0x100000
   13fb4:	01800001 	orreq	r0, r0, r1
   13fb8:	03a01000 	moveq	r1, #0
   13fbc:	e3540000 	cmp	r4, #0
   13fc0:	da000018 	ble	14028 <__divdf3+0x1d4>
   13fc4:	e055c002 	subs	ip, r5, r2
   13fc8:	0056c003 	subseq	ip, r6, r3
   13fcc:	e2b11000 	adcs	r1, r1, #0
   13fd0:	e2a00000 	adc	r0, r0, #0
   13fd4:	e33c0000 	teq	ip, #0
   13fd8:	03c11001 	biceq	r1, r1, #1
   13fdc:	e3c00601 	bic	r0, r0, #1048576	; 0x100000
   13fe0:	e1800084 	orr	r0, r0, r4, lsl #1
   13fe4:	e8bd4070 	pop	{r4, r5, r6, lr}
   13fe8:	e12fff1e 	bx	lr
   13fec:	e20ee102 	and	lr, lr, #-2147483648	; 0x80000000
   13ff0:	e18e0620 	orr	r0, lr, r0, lsr #12
   13ff4:	e284441f 	add	r4, r4, #520093696	; 0x1f000000
   13ff8:	e284473e 	add	r4, r4, #16252928	; 0xf80000
   13ffc:	e15400ac 	cmp	r4, ip, lsr #1
   14000:	aaffff89 	bge	13e2c <__muldf3+0x250>
   14004:	e3540000 	cmp	r4, #0
   14008:	c1800084 	orrgt	r0, r0, r4, lsl #1
   1400c:	c8bd4070 	popgt	{r4, r5, r6, lr}
   14010:	c12fff1e 	bxgt	lr
   14014:	e374076a 	cmn	r4, #27787264	; 0x1a80000
   14018:	daffff2c 	ble	13cd0 <__muldf3+0xf4>
   1401c:	e3800601 	orr	r0, r0, #1048576	; 0x100000
   14020:	e3a0e000 	mov	lr, #0
   14024:	eaffff32 	b	13cf4 <__muldf3+0x118>
   14028:	e185e006 	orr	lr, r5, r6
   1402c:	eaffff30 	b	13cf4 <__muldf3+0x118>
   14030:	e3a0e000 	mov	lr, #0
   14034:	e3340000 	teq	r4, #0
   14038:	1a000008 	bne	14060 <__divdf3+0x20c>
   1403c:	e2006102 	and	r6, r0, #-2147483648	; 0x80000000
   14040:	e1b01081 	lsls	r1, r1, #1
   14044:	e0ae0080 	adc	r0, lr, r0, lsl #1
   14048:	e3100601 	tst	r0, #1048576	; 0x100000
   1404c:	02444702 	subeq	r4, r4, #524288	; 0x80000
   14050:	0afffffa 	beq	14040 <__divdf3+0x1ec>
   14054:	e1800006 	orr	r0, r0, r6
   14058:	e3350000 	teq	r5, #0
   1405c:	1affff89 	bne	13e88 <__divdf3+0x34>
   14060:	e2026102 	and	r6, r2, #-2147483648	; 0x80000000
   14064:	e1b03083 	lsls	r3, r3, #1
   14068:	e0ae2082 	adc	r2, lr, r2, lsl #1
   1406c:	e3120601 	tst	r2, #1048576	; 0x100000
   14070:	02455601 	subeq	r5, r5, #1048576	; 0x100000
   14074:	0afffffa 	beq	14064 <__divdf3+0x210>
   14078:	e1822006 	orr	r2, r2, r6
   1407c:	eaffff81 	b	13e88 <__divdf3+0x34>
   14080:	e134000c 	teq	r4, ip
   14084:	0135000c 	teqeq	r5, ip
   14088:	0affff6d 	beq	13e44 <__muldf3+0x268>
   1408c:	e134000c 	teq	r4, ip
   14090:	1a000002 	bne	140a0 <__divdf3+0x24c>
   14094:	e1914600 	orrs	r4, r1, r0, lsl #12
   14098:	1affff69 	bne	13e44 <__muldf3+0x268>
   1409c:	eaffff61 	b	13e28 <__muldf3+0x24c>
   140a0:	e135000c 	teq	r5, ip
   140a4:	1a000002 	bne	140b4 <__divdf3+0x260>
   140a8:	e1935602 	orrs	r5, r3, r2, lsl #12
   140ac:	1affff64 	bne	13e44 <__muldf3+0x268>
   140b0:	eaffff05 	b	13ccc <__muldf3+0xf0>
   140b4:	e1914080 	orrs	r4, r1, r0, lsl #1
   140b8:	1affff5a 	bne	13e28 <__muldf3+0x24c>
   140bc:	e1935082 	orrs	r5, r3, r2, lsl #1
   140c0:	1affff01 	bne	13ccc <__muldf3+0xf0>
   140c4:	eaffff5e 	b	13e44 <__muldf3+0x268>

000140c8 <__truncdfsf2>:
   140c8:	e1912080 	orrs	r2, r1, r0, lsl #1
   140cc:	01a00062 	rrxeq	r0, r2
   140d0:	012fff1e 	bxeq	lr
   140d4:	e3a0c47f 	mov	ip, #2130706432	; 0x7f000000
   140d8:	e38cc60f 	orr	ip, ip, #15728640	; 0xf00000
   140dc:	e00c2000 	and	r2, ip, r0
   140e0:	e132000c 	teq	r2, ip
   140e4:	0a000013 	beq	14138 <__truncdfsf2+0x70>
   140e8:	e1c0000c 	bic	r0, r0, ip
   140ec:	e352030e 	cmp	r2, #939524096	; 0x38000000
   140f0:	9a000018 	bls	14158 <__truncdfsf2+0x90>
   140f4:	e1b03ea1 	lsrs	r3, r1, #29
   140f8:	e0a33180 	adc	r3, r3, r0, lsl #3
   140fc:	e1a01181 	lsl	r1, r1, #3
   14100:	e3310102 	teq	r1, #-2147483648	; 0x80000000
   14104:	03c33001 	biceq	r3, r3, #1
   14108:	e3130502 	tst	r3, #8388608	; 0x800000
   1410c:	12822601 	addne	r2, r2, #1048576	; 0x100000
   14110:	13c33502 	bicne	r3, r3, #8388608	; 0x800000
   14114:	e3a0c101 	mov	ip, #1073741824	; 0x40000000
   14118:	e38cc67f 	orr	ip, ip, #133169152	; 0x7f00000
   1411c:	e152000c 	cmp	r2, ip
   14120:	2a000008 	bcs	14148 <__truncdfsf2+0x80>
   14124:	e1b00080 	lsls	r0, r0, #1
   14128:	e1a02202 	lsl	r2, r2, #4
   1412c:	e1830062 	orr	r0, r3, r2, rrx
   14130:	e2200101 	eor	r0, r0, #1073741824	; 0x40000000
   14134:	e12fff1e 	bx	lr
   14138:	e1911600 	orrs	r1, r1, r0, lsl #12
   1413c:	13a0047f 	movne	r0, #2130706432	; 0x7f000000
   14140:	13800503 	orrne	r0, r0, #12582912	; 0xc00000
   14144:	112fff1e 	bxne	lr
   14148:	e2000102 	and	r0, r0, #-2147483648	; 0x80000000
   1414c:	e380047f 	orr	r0, r0, #2130706432	; 0x7f000000
   14150:	e3800502 	orr	r0, r0, #8388608	; 0x800000
   14154:	e12fff1e 	bx	lr
   14158:	e25225da 	subs	r2, r2, #914358272	; 0x36800000
   1415c:	d2000102 	andle	r0, r0, #-2147483648	; 0x80000000
   14160:	d12fff1e 	bxle	lr
   14164:	e3800601 	orr	r0, r0, #1048576	; 0x100000
   14168:	e1a02a22 	lsr	r2, r2, #20
   1416c:	e2622019 	rsb	r2, r2, #25
   14170:	e3520014 	cmp	r2, #20
   14174:	ca00000a 	bgt	141a4 <__truncdfsf2+0xdc>
   14178:	e262c020 	rsb	ip, r2, #32
   1417c:	e1a03c11 	lsl	r3, r1, ip
   14180:	e1a01231 	lsr	r1, r1, r2
   14184:	e1811c10 	orr	r1, r1, r0, lsl ip
   14188:	e1b00080 	lsls	r0, r0, #1
   1418c:	e1a00230 	lsr	r0, r0, r2
   14190:	e1a00060 	rrx	r0, r0
   14194:	e3330000 	teq	r3, #0
   14198:	13811001 	orrne	r1, r1, #1
   1419c:	e3a0230e 	mov	r2, #939524096	; 0x38000000
   141a0:	eaffffd3 	b	140f4 <__truncdfsf2+0x2c>
   141a4:	e2622020 	rsb	r2, r2, #32
   141a8:	e262c020 	rsb	ip, r2, #32
   141ac:	e1a03211 	lsl	r3, r1, r2
   141b0:	e1a01c31 	lsr	r1, r1, ip
   141b4:	e1811210 	orr	r1, r1, r0, lsl r2
   141b8:	e2000102 	and	r0, r0, #-2147483648	; 0x80000000
   141bc:	eafffff4 	b	14194 <__truncdfsf2+0xcc>

000141c0 <__gesf2>:
   141c0:	e3e03000 	mvn	r3, #0
   141c4:	ea000002 	b	141d4 <__cmpsf2+0x4>

000141c8 <__lesf2>:
   141c8:	e3a03001 	mov	r3, #1
   141cc:	ea000000 	b	141d4 <__cmpsf2+0x4>

000141d0 <__cmpsf2>:
   141d0:	e3a03001 	mov	r3, #1
   141d4:	e3a0c4ff 	mov	ip, #-16777216	; 0xff000000
   141d8:	e00120ac 	and	r2, r1, ip, lsr #1
   141dc:	e13200ac 	teq	r2, ip, lsr #1
   141e0:	e00020ac 	and	r2, r0, ip, lsr #1
   141e4:	113200ac 	teqne	r2, ip, lsr #1
   141e8:	0a00000f 	beq	1422c <__cmpsf2+0x5c>
   141ec:	e1803001 	orr	r3, r0, r1
   141f0:	e3d33102 	bics	r3, r3, #-2147483648	; 0x80000000
   141f4:	11300001 	teqne	r0, r1
   141f8:	03a00000 	moveq	r0, #0
   141fc:	012fff1e 	bxeq	lr
   14200:	41a00fc0 	asrmi	r0, r0, #31
   14204:	43800001 	orrmi	r0, r0, #1
   14208:	412fff1e 	bxmi	lr
   1420c:	e00130ac 	and	r3, r1, ip, lsr #1
   14210:	e1520003 	cmp	r2, r3
   14214:	01a00480 	lsleq	r0, r0, #9
   14218:	01500481 	cmpeq	r0, r1, lsl #9
   1421c:	21a00fc1 	asrcs	r0, r1, #31
   14220:	31e00fc1 	mvncc	r0, r1, asr #31
   14224:	e3800001 	orr	r0, r0, #1
   14228:	e12fff1e 	bx	lr
   1422c:	e00120ac 	and	r2, r1, ip, lsr #1
   14230:	e13200ac 	teq	r2, ip, lsr #1
   14234:	1a000001 	bne	14240 <__cmpsf2+0x70>
   14238:	e1b02481 	lsls	r2, r1, #9
   1423c:	1a000004 	bne	14254 <__cmpsf2+0x84>
   14240:	e00020ac 	and	r2, r0, ip, lsr #1
   14244:	e13200ac 	teq	r2, ip, lsr #1
   14248:	1affffe7 	bne	141ec <__cmpsf2+0x1c>
   1424c:	e1b0c480 	lsls	ip, r0, #9
   14250:	0affffe5 	beq	141ec <__cmpsf2+0x1c>
   14254:	e1a00003 	mov	r0, r3
   14258:	e12fff1e 	bx	lr

0001425c <__do_global_ctors_aux>:
   1425c:	e92d4010 	push	{r4, lr}
   14260:	e59f302c 	ldr	r3, [pc, #44]	; 14294 <__do_global_ctors_aux+0x38>
   14264:	e5132004 	ldr	r2, [r3, #-4]
   14268:	e2434004 	sub	r4, r3, #4
   1426c:	e3720001 	cmn	r2, #1
   14270:	0a000005 	beq	1428c <__do_global_ctors_aux+0x30>
   14274:	e1a03002 	mov	r3, r2
   14278:	e1a0e00f 	mov	lr, pc
   1427c:	e12fff13 	bx	r3
   14280:	e5343004 	ldr	r3, [r4, #-4]!
   14284:	e3730001 	cmn	r3, #1
   14288:	1afffffa 	bne	14278 <__do_global_ctors_aux+0x1c>
   1428c:	e8bd4010 	pop	{r4, lr}
   14290:	e12fff1e 	bx	lr
   14294:	00021578 	andeq	r1, r2, r8, ror r5

00014298 <call___do_global_ctors_aux>:
   14298:	e52de004 	push	{lr}		; (str lr, [sp, #-4]!)
   1429c:	e49de004 	pop	{lr}		; (ldr lr, [sp], #4)
   142a0:	e12fff1e 	bx	lr